

Microchip MPLAB XC8 Assembler V3.00 build 20241204225717 
                                                                                               Tue May 13 09:24:43 2025

Microchip MPLAB XC8 C Compiler v3.00 (Free license) build 20241204225717 Og1 
     1                           	processor	16F887
     2                           	pagewidth 120
     3                           	opt	flic
     4                           	psect	strings,global,class=STRING,space=0,delta=2,noexec
     5                           	psect	cinit,global,class=CODE,space=0,merge=1,delta=2
     6                           	psect	bssBANK1,global,class=BANK1,space=1,delta=1,noexec
     7                           	psect	bssBANK3,global,class=BANK3,space=1,delta=1,noexec
     8                           	psect	bssBANK2,global,class=BANK2,space=1,delta=1,noexec
     9                           	psect	clrtext,global,class=CODE,space=0,delta=2
    10                           	psect	cstackBANK3,global,class=BANK3,space=1,delta=1,noexec
    11                           	psect	cstackBANK1,global,class=BANK1,space=1,delta=1,noexec
    12                           	psect	cstackCOMMON,global,class=COMMON,space=1,delta=1,noexec
    13                           	psect	cstackBANK0,global,class=BANK0,space=1,delta=1,noexec
    14                           	psect	maintext,global,class=CODE,space=0,split=1,delta=2
    15                           	psect	text1,local,class=CODE,space=0,merge=1,delta=2
    16                           	psect	text2,local,class=CODE,space=0,merge=1,delta=2
    17                           	psect	text3,local,class=CODE,space=0,merge=1,delta=2,group=2
    18                           	psect	text4,local,class=CODE,space=0,merge=1,delta=2
    19                           	psect	text5,local,class=CODE,space=0,merge=1,delta=2
    20                           	psect	text6,local,class=CODE,space=0,merge=1,delta=2
    21                           	psect	text7,local,class=CODE,space=0,merge=1,delta=2
    22                           	psect	text8,local,class=CODE,space=0,merge=1,delta=2
    23                           	psect	text9,local,class=CODE,space=0,merge=1,delta=2
    24                           	psect	text10,local,class=CODE,space=0,merge=1,delta=2
    25                           	psect	text11,local,class=CODE,space=0,merge=1,delta=2
    26                           	psect	text12,local,class=CODE,space=0,merge=1,delta=2
    27                           	psect	text13,local,class=CODE,space=0,merge=1,delta=2,group=3
    28                           	psect	text14,local,class=CODE,space=0,merge=1,delta=2,group=3
    29                           	psect	text15,local,class=CODE,space=0,merge=1,delta=2,group=1
    30                           	psect	text16,local,class=CODE,space=0,merge=1,delta=2,group=1
    31                           	psect	text17,local,class=CODE,space=0,merge=1,delta=2,group=1
    32                           	psect	text18,local,class=CODE,space=0,merge=1,delta=2,group=2
    33                           	psect	text19,local,class=CODE,space=0,merge=1,delta=2,group=2
    34                           	psect	text20,local,class=CODE,space=0,merge=1,delta=2,group=1
    35                           	psect	text21,local,class=CODE,space=0,merge=1,delta=2,group=2
    36                           	psect	text22,local,class=CODE,space=0,merge=1,delta=2,group=1
    37                           	psect	text23,local,class=CODE,space=0,merge=1,delta=2,group=3
    38                           	psect	text24,local,class=CODE,space=0,merge=1,delta=2,group=1
    39                           	psect	text25,local,class=CODE,space=0,merge=1,delta=2,group=3
    40                           	psect	text26,local,class=CODE,space=0,merge=1,delta=2,group=3
    41                           	psect	text27,local,class=CODE,space=0,merge=1,delta=2,group=3
    42                           	psect	text28,local,class=CODE,space=0,merge=1,delta=2,group=3
    43                           	psect	text29,local,class=CODE,space=0,merge=1,delta=2,group=3
    44                           	psect	text30,local,class=CODE,space=0,merge=1,delta=2,group=3
    45                           	psect	text31,local,class=CODE,space=0,merge=1,delta=2,group=3
    46                           	psect	text32,local,class=CODE,space=0,merge=1,delta=2,group=2
    47                           	psect	text33,local,class=CODE,space=0,merge=1,delta=2,group=2
    48                           	psect	text34,local,class=CODE,space=0,merge=1,delta=2,group=2
    49                           	psect	text35,local,class=CODE,space=0,merge=1,delta=2,group=2
    50                           	psect	text36,local,class=CODE,space=0,merge=1,delta=2,group=2
    51                           	psect	text37,local,class=CODE,space=0,merge=1,delta=2,group=2
    52                           	psect	text38,local,class=CODE,space=0,merge=1,delta=2,group=2
    53                           	psect	text39,local,class=CODE,space=0,merge=1,delta=2,group=2
    54                           	psect	text40,local,class=CODE,space=0,merge=1,delta=2,group=2
    55                           	psect	text41,local,class=CODE,space=0,merge=1,delta=2
    56                           	psect	text42,local,class=CODE,space=0,merge=1,delta=2
    57                           	psect	config,global,abs,ovrld,class=CONFIG,space=4,delta=2,noexec
    58                           	psect	text22_split_1,local,class=CODE,space=0,merge=1,delta=2
    59                           	dabs	1,0x7E,2
    60     0000                     
    61                           ; Generated 12/10/2023 GMT
    62                           ; 
    63                           ; Copyright © 2023, Microchip Technology Inc. and its subsidiaries ("Microchip")
    64                           ; All rights reserved.
    65                           ; 
    66                           ; This software is developed by Microchip Technology Inc. and its subsidiaries ("Microch
      +                          ip").
    67                           ; 
    68                           ; Redistribution and use in source and binary forms, with or without modification, are
    69                           ; permitted provided that the following conditions are met:
    70                           ; 
    71                           ;     1. Redistributions of source code must retain the above copyright notice, this lis
      +                          t of
    72                           ;        conditions and the following disclaimer.
    73                           ; 
    74                           ;     2. Redistributions in binary form must reproduce the above copyright notice, this 
      +                          list
    75                           ;        of conditions and the following disclaimer in the documentation and/or other
    76                           ;        materials provided with the distribution. Publication is not required when
    77                           ;        this file is used in an embedded application.
    78                           ; 
    79                           ;     3. Microchip's name may not be used to endorse or promote products derived from th
      +                          is
    80                           ;        software without specific prior written permission.
    81                           ; 
    82                           ; THIS SOFTWARE IS PROVIDED BY MICROCHIP "AS IS" AND ANY EXPRESS OR IMPLIED WARRANTIES,
    83                           ; INCLUDING, BUT NOT LIMITED TO, THE IMPLIED WARRANTIES OF MERCHANTABILITY AND FITNESS F
      +                          OR
    84                           ; PURPOSE ARE DISCLAIMED.  IN NO EVENT SHALL MICROCHIP BE LIABLE FOR ANY DIRECT, INDIREC
      +                          T,
    85                           ; INCIDENTAL, SPECIAL, EXEMPLARY, OR CONSEQUENTIAL DAMAGES (INCLUDING BUT NOT LIMITED TO
    86                           ; PROCUREMENT OF SUBSTITUTE GOODS OR SERVICES; LOSS OF USE, DATA OR PROFITS; OR BUSINESS
    87                           ; INTERRUPTION) HOWSOEVER CAUSED AND ON ANY THEORY OF LIABILITY, WHETHER IN CONTRACT, ST
      +                          RICT
    88                           ; LIABILITY, OR TORT (INCLUDING NEGLIGENCE OR OTHERWISE) ARISING IN ANY WAY OUT OF THE U
      +                          SE OF
    89                           ; THIS SOFTWARE, EVEN IF ADVISED OF THE POSSIBILITY OF SUCH DAMAGE.
    90                           ; 
    91                           ; 
    92                           ; Code-generator required, PIC16F887 Definitions
    93                           ; 
    94                           ; SFR Addresses
    95     0004                     fsr             equ	4
    96     0004                     fsr0            equ	4
    97     0000                     indf            equ	0
    98     0000                     indf0           equ	0
    99     0002                     pc              equ	2
   100     0002                     pcl             equ	2
   101     000A                     pclath          equ	10
   102     0003                     status          equ	3
   103     0000                     INDF            equ	0	;# 
   104     0001                     TMR0            equ	1	;# 
   105     0002                     PCL             equ	2	;# 
   106     0003                     STATUS          equ	3	;# 
   107     0004                     FSR             equ	4	;# 
   108     0005                     PORTA           equ	5	;# 
   109     0006                     PORTB           equ	6	;# 
   110     0007                     PORTC           equ	7	;# 
   111     0008                     PORTD           equ	8	;# 
   112     0009                     PORTE           equ	9	;# 
   113     000A                     PCLATH          equ	10	;# 
   114     000B                     INTCON          equ	11	;# 
   115     000C                     PIR1            equ	12	;# 
   116     000D                     PIR2            equ	13	;# 
   117     000E                     TMR1            equ	14	;# 
   118     000E                     TMR1L           equ	14	;# 
   119     000F                     TMR1H           equ	15	;# 
   120     0010                     T1CON           equ	16	;# 
   121     0011                     TMR2            equ	17	;# 
   122     0012                     T2CON           equ	18	;# 
   123     0013                     SSPBUF          equ	19	;# 
   124     0014                     SSPCON          equ	20	;# 
   125     0015                     CCPR1           equ	21	;# 
   126     0015                     CCPR1L          equ	21	;# 
   127     0016                     CCPR1H          equ	22	;# 
   128     0017                     CCP1CON         equ	23	;# 
   129     0018                     RCSTA           equ	24	;# 
   130     0019                     TXREG           equ	25	;# 
   131     001A                     RCREG           equ	26	;# 
   132     001B                     CCPR2           equ	27	;# 
   133     001B                     CCPR2L          equ	27	;# 
   134     001C                     CCPR2H          equ	28	;# 
   135     001D                     CCP2CON         equ	29	;# 
   136     001E                     ADRESH          equ	30	;# 
   137     001F                     ADCON0          equ	31	;# 
   138     0081                     OPTION_REG      equ	129	;# 
   139     0085                     TRISA           equ	133	;# 
   140     0086                     TRISB           equ	134	;# 
   141     0087                     TRISC           equ	135	;# 
   142     0088                     TRISD           equ	136	;# 
   143     0089                     TRISE           equ	137	;# 
   144     008C                     PIE1            equ	140	;# 
   145     008D                     PIE2            equ	141	;# 
   146     008E                     PCON            equ	142	;# 
   147     008F                     OSCCON          equ	143	;# 
   148     0090                     OSCTUNE         equ	144	;# 
   149     0091                     SSPCON2         equ	145	;# 
   150     0092                     PR2             equ	146	;# 
   151     0093                     SSPADD          equ	147	;# 
   152     0093                     SSPMSK          equ	147	;# 
   153     0093                     MSK             equ	147	;# 
   154     0094                     SSPSTAT         equ	148	;# 
   155     0095                     WPUB            equ	149	;# 
   156     0096                     IOCB            equ	150	;# 
   157     0097                     VRCON           equ	151	;# 
   158     0098                     TXSTA           equ	152	;# 
   159     0099                     SPBRG           equ	153	;# 
   160     009A                     SPBRGH          equ	154	;# 
   161     009B                     PWM1CON         equ	155	;# 
   162     009C                     ECCPAS          equ	156	;# 
   163     009D                     PSTRCON         equ	157	;# 
   164     009E                     ADRESL          equ	158	;# 
   165     009F                     ADCON1          equ	159	;# 
   166     0105                     WDTCON          equ	261	;# 
   167     0107                     CM1CON0         equ	263	;# 
   168     0108                     CM2CON0         equ	264	;# 
   169     0109                     CM2CON1         equ	265	;# 
   170     010C                     EEDATA          equ	268	;# 
   171     010C                     EEDAT           equ	268	;# 
   172     010D                     EEADR           equ	269	;# 
   173     010E                     EEDATH          equ	270	;# 
   174     010F                     EEADRH          equ	271	;# 
   175     0185                     SRCON           equ	389	;# 
   176     0187                     BAUDCTL         equ	391	;# 
   177     0188                     ANSEL           equ	392	;# 
   178     0189                     ANSELH          equ	393	;# 
   179     018C                     EECON1          equ	396	;# 
   180     018D                     EECON2          equ	397	;# 
   181     0000                     INDF            equ	0	;# 
   182     0001                     TMR0            equ	1	;# 
   183     0002                     PCL             equ	2	;# 
   184     0003                     STATUS          equ	3	;# 
   185     0004                     FSR             equ	4	;# 
   186     0005                     PORTA           equ	5	;# 
   187     0006                     PORTB           equ	6	;# 
   188     0007                     PORTC           equ	7	;# 
   189     0008                     PORTD           equ	8	;# 
   190     0009                     PORTE           equ	9	;# 
   191     000A                     PCLATH          equ	10	;# 
   192     000B                     INTCON          equ	11	;# 
   193     000C                     PIR1            equ	12	;# 
   194     000D                     PIR2            equ	13	;# 
   195     000E                     TMR1            equ	14	;# 
   196     000E                     TMR1L           equ	14	;# 
   197     000F                     TMR1H           equ	15	;# 
   198     0010                     T1CON           equ	16	;# 
   199     0011                     TMR2            equ	17	;# 
   200     0012                     T2CON           equ	18	;# 
   201     0013                     SSPBUF          equ	19	;# 
   202     0014                     SSPCON          equ	20	;# 
   203     0015                     CCPR1           equ	21	;# 
   204     0015                     CCPR1L          equ	21	;# 
   205     0016                     CCPR1H          equ	22	;# 
   206     0017                     CCP1CON         equ	23	;# 
   207     0018                     RCSTA           equ	24	;# 
   208     0019                     TXREG           equ	25	;# 
   209     001A                     RCREG           equ	26	;# 
   210     001B                     CCPR2           equ	27	;# 
   211     001B                     CCPR2L          equ	27	;# 
   212     001C                     CCPR2H          equ	28	;# 
   213     001D                     CCP2CON         equ	29	;# 
   214     001E                     ADRESH          equ	30	;# 
   215     001F                     ADCON0          equ	31	;# 
   216     0081                     OPTION_REG      equ	129	;# 
   217     0085                     TRISA           equ	133	;# 
   218     0086                     TRISB           equ	134	;# 
   219     0087                     TRISC           equ	135	;# 
   220     0088                     TRISD           equ	136	;# 
   221     0089                     TRISE           equ	137	;# 
   222     008C                     PIE1            equ	140	;# 
   223     008D                     PIE2            equ	141	;# 
   224     008E                     PCON            equ	142	;# 
   225     008F                     OSCCON          equ	143	;# 
   226     0090                     OSCTUNE         equ	144	;# 
   227     0091                     SSPCON2         equ	145	;# 
   228     0092                     PR2             equ	146	;# 
   229     0093                     SSPADD          equ	147	;# 
   230     0093                     SSPMSK          equ	147	;# 
   231     0093                     MSK             equ	147	;# 
   232     0094                     SSPSTAT         equ	148	;# 
   233     0095                     WPUB            equ	149	;# 
   234     0096                     IOCB            equ	150	;# 
   235     0097                     VRCON           equ	151	;# 
   236     0098                     TXSTA           equ	152	;# 
   237     0099                     SPBRG           equ	153	;# 
   238     009A                     SPBRGH          equ	154	;# 
   239     009B                     PWM1CON         equ	155	;# 
   240     009C                     ECCPAS          equ	156	;# 
   241     009D                     PSTRCON         equ	157	;# 
   242     009E                     ADRESL          equ	158	;# 
   243     009F                     ADCON1          equ	159	;# 
   244     0105                     WDTCON          equ	261	;# 
   245     0107                     CM1CON0         equ	263	;# 
   246     0108                     CM2CON0         equ	264	;# 
   247     0109                     CM2CON1         equ	265	;# 
   248     010C                     EEDATA          equ	268	;# 
   249     010C                     EEDAT           equ	268	;# 
   250     010D                     EEADR           equ	269	;# 
   251     010E                     EEDATH          equ	270	;# 
   252     010F                     EEADRH          equ	271	;# 
   253     0185                     SRCON           equ	389	;# 
   254     0187                     BAUDCTL         equ	391	;# 
   255     0188                     ANSEL           equ	392	;# 
   256     0189                     ANSELH          equ	393	;# 
   257     018C                     EECON1          equ	396	;# 
   258     018D                     EECON2          equ	397	;# 
   259     000E                     _TMR1           set	14
   260     0005                     _PORTA          set	5
   261     001A                     _RCREG          set	26
   262     0019                     _TXREG          set	25
   263     0010                     _T1CON          set	16
   264     002A                     _RA2            set	42
   265     0029                     _RA1            set	41
   266     0028                     _RA0            set	40
   267     00C1                     _OERR           set	193
   268     0065                     _RCIF           set	101
   269     0064                     _TXIF           set	100
   270     00C4                     _CREN           set	196
   271     00C7                     _SPEN           set	199
   272     0080                     _TMR1ON         set	128
   273     0039                     _RC1            set	57
   274     0038                     _RC0            set	56
   275     0045                     _RD5            set	69
   276     0044                     _RD4            set	68
   277     0043                     _RD3            set	67
   278     0042                     _RD2            set	66
   279     0040                     _RD0            set	64
   280     0041                     _RD1            set	65
   281     0087                     _TRISC          set	135
   282     0085                     _TRISA          set	133
   283     009F                     _ADCON1         set	159
   284     008F                     _OSCCON         set	143
   285     0099                     _SPBRG          set	153
   286     0088                     _TRISD          set	136
   287     04C5                     _TXEN           set	1221
   288     04C4                     _SYNC           set	1220
   289     04C2                     _BRGH           set	1218
   290                           
   291                           	psect	strings
   292     1000                     __pstrings:
   293     1000                     stringtab:
   294     1000                     __stringtab:
   295                           
   296                           ;	String table - string pointers are 1 byte each
   297     1000  1BFF               	btfsc	btemp+1,7
   298     1001  280A               	ljmp	stringcode
   299     1002  1383               	bcf	3,7
   300     1003  187F               	btfsc	btemp+1,0
   301     1004  1783               	bsf	3,7
   302     1005  0800               	movf	0,w
   303     1006  0A84               	incf	4,f
   304     1007  1903               	skipnz
   305     1008  0AFF               	incf	btemp+1,f
   306     1009  0008               	return
   307     100A                     stringcode:
   308     100A                     stringdir:
   309     100A  3010               	movlw	high stringdir
   310     100B  008A               	movwf	10
   311     100C  0804               	movf	4,w
   312     100D  0A84               	incf	4,f
   313     100E  0782               	addwf	2,f
   314     100F                     __stringbase:
   315     100F  3400               	retlw	0
   316     1010                     __end_of__stringtab:
   317     1010                     STR_3:
   318     1010  3441               	retlw	65	;'A'
   319     1011  3454               	retlw	84	;'T'
   320     1012  342B               	retlw	43	;'+'
   321     1013  3443               	retlw	67	;'C'
   322     1014  3449               	retlw	73	;'I'
   323     1015  3450               	retlw	80	;'P'
   324     1016  3453               	retlw	83	;'S'
   325     1017  3454               	retlw	84	;'T'
   326     1018  3441               	retlw	65	;'A'
   327     1019  3452               	retlw	82	;'R'
   328     101A  3454               	retlw	84	;'T'
   329     101B  343D               	retlw	61	;'='
   330     101C  3422               	retlw	34	;'"'
   331     101D  3454               	retlw	84	;'T'
   332     101E  3443               	retlw	67	;'C'
   333     101F  3450               	retlw	80	;'P'
   334     1020  3422               	retlw	34	;'"'
   335     1021  342C               	retlw	44	;','
   336     1022  3422               	retlw	34	;'"'
   337     1023  3461               	retlw	97	;'a'
   338     1024  3470               	retlw	112	;'p'
   339     1025  3469               	retlw	105	;'i'
   340     1026  342E               	retlw	46	;'.'
   341     1027  3474               	retlw	116	;'t'
   342     1028  3468               	retlw	104	;'h'
   343     1029  3469               	retlw	105	;'i'
   344     102A  346E               	retlw	110	;'n'
   345     102B  3467               	retlw	103	;'g'
   346     102C  3473               	retlw	115	;'s'
   347     102D  3470               	retlw	112	;'p'
   348     102E  3465               	retlw	101	;'e'
   349     102F  3461               	retlw	97	;'a'
   350     1030  346B               	retlw	107	;'k'
   351     1031  342E               	retlw	46	;'.'
   352     1032  3463               	retlw	99	;'c'
   353     1033  346F               	retlw	111	;'o'
   354     1034  346D               	retlw	109	;'m'
   355     1035  3422               	retlw	34	;'"'
   356     1036  342C               	retlw	44	;','
   357     1037  3438               	retlw	56	;'8'
   358     1038  3430               	retlw	48	;'0'
   359     1039  340D               	retlw	13
   360     103A  340A               	retlw	10
   361     103B  3400               	retlw	0
   362     103C                     STR_2:
   363     103C  3441               	retlw	65	;'A'
   364     103D  3454               	retlw	84	;'T'
   365     103E  342B               	retlw	43	;'+'
   366     103F  3443               	retlw	67	;'C'
   367     1040  3457               	retlw	87	;'W'
   368     1041  344A               	retlw	74	;'J'
   369     1042  3441               	retlw	65	;'A'
   370     1043  3450               	retlw	80	;'P'
   371     1044  343D               	retlw	61	;'='
   372     1045  3422               	retlw	34	;'"'
   373     1046  3454               	retlw	84	;'T'
   374     1047  3475               	retlw	117	;'u'
   375     1048  3453               	retlw	83	;'S'
   376     1049  3453               	retlw	83	;'S'
   377     104A  3449               	retlw	73	;'I'
   378     104B  3444               	retlw	68	;'D'
   379     104C  3422               	retlw	34	;'"'
   380     104D  342C               	retlw	44	;','
   381     104E  3422               	retlw	34	;'"'
   382     104F  3454               	retlw	84	;'T'
   383     1050  3475               	retlw	117	;'u'
   384     1051  3450               	retlw	80	;'P'
   385     1052  3441               	retlw	65	;'A'
   386     1053  3453               	retlw	83	;'S'
   387     1054  3453               	retlw	83	;'S'
   388     1055  3422               	retlw	34	;'"'
   389     1056  340D               	retlw	13
   390     1057  340A               	retlw	10
   391     1058  3400               	retlw	0
   392     1059                     STR_5:
   393     1059  3447               	retlw	71	;'G'
   394     105A  3445               	retlw	69	;'E'
   395     105B  3454               	retlw	84	;'T'
   396     105C  3420               	retlw	32	;' '
   397     105D  342F               	retlw	47	;'/'
   398     105E  3475               	retlw	117	;'u'
   399     105F  3470               	retlw	112	;'p'
   400     1060  3464               	retlw	100	;'d'
   401     1061  3461               	retlw	97	;'a'
   402     1062  3474               	retlw	116	;'t'
   403     1063  3465               	retlw	101	;'e'
   404     1064  343F               	retlw	63	;'?'
   405     1065  3461               	retlw	97	;'a'
   406     1066  3470               	retlw	112	;'p'
   407     1067  3469               	retlw	105	;'i'
   408     1068  345F               	retlw	95	;'_'
   409     1069  346B               	retlw	107	;'k'
   410     106A  3465               	retlw	101	;'e'
   411     106B  3479               	retlw	121	;'y'
   412     106C  343D               	retlw	61	;'='
   413     106D  3400               	retlw	0
   414     106E                     STR_6:
   415     106E  3430               	retlw	48	;'0'
   416     106F  3456               	retlw	86	;'V'
   417     1070  344B               	retlw	75	;'K'
   418     1071  3447               	retlw	71	;'G'
   419     1072  3449               	retlw	73	;'I'
   420     1073  3444               	retlw	68	;'D'
   421     1074  3447               	retlw	71	;'G'
   422     1075  3451               	retlw	81	;'Q'
   423     1076  3442               	retlw	66	;'B'
   424     1077  3444               	retlw	68	;'D'
   425     1078  3459               	retlw	89	;'Y'
   426     1079  3453               	retlw	83	;'S'
   427     107A  344D               	retlw	77	;'M'
   428     107B  345A               	retlw	90	;'Z'
   429     107C  3445               	retlw	69	;'E'
   430     107D  3441               	retlw	65	;'A'
   431     107E  3449               	retlw	73	;'I'
   432     107F  3400               	retlw	0
   433     1080                     STR_1:
   434     1080  3441               	retlw	65	;'A'
   435     1081  3454               	retlw	84	;'T'
   436     1082  342B               	retlw	43	;'+'
   437     1083  3443               	retlw	67	;'C'
   438     1084  3457               	retlw	87	;'W'
   439     1085  344D               	retlw	77	;'M'
   440     1086  344F               	retlw	79	;'O'
   441     1087  3444               	retlw	68	;'D'
   442     1088  3445               	retlw	69	;'E'
   443     1089  343D               	retlw	61	;'='
   444     108A  3431               	retlw	49	;'1'
   445     108B  340D               	retlw	13
   446     108C  340A               	retlw	10
   447     108D  3400               	retlw	0
   448     108E                     STR_16:
   449     108E  3441               	retlw	65	;'A'
   450     108F  3454               	retlw	84	;'T'
   451     1090  342B               	retlw	43	;'+'
   452     1091  3443               	retlw	67	;'C'
   453     1092  3449               	retlw	73	;'I'
   454     1093  3450               	retlw	80	;'P'
   455     1094  3443               	retlw	67	;'C'
   456     1095  344C               	retlw	76	;'L'
   457     1096  344F               	retlw	79	;'O'
   458     1097  3453               	retlw	83	;'S'
   459     1098  3445               	retlw	69	;'E'
   460     1099  340D               	retlw	13
   461     109A  340A               	retlw	10
   462     109B  3400               	retlw	0
   463     109C                     STR_17:
   464     109C  3453               	retlw	83	;'S'
   465     109D  3469               	retlw	105	;'i'
   466     109E  346E               	retlw	110	;'n'
   467     109F  3420               	retlw	32	;' '
   468     10A0  3472               	retlw	114	;'r'
   469     10A1  3465               	retlw	101	;'e'
   470     10A2  3473               	retlw	115	;'s'
   471     10A3  3470               	retlw	112	;'p'
   472     10A4  3475               	retlw	117	;'u'
   473     10A5  3465               	retlw	101	;'e'
   474     10A6  3473               	retlw	115	;'s'
   475     10A7  3474               	retlw	116	;'t'
   476     10A8  3461               	retlw	97	;'a'
   477     10A9  3400               	retlw	0
   478     10AA                     STR_10:
   479     10AA  3441               	retlw	65	;'A'
   480     10AB  3454               	retlw	84	;'T'
   481     10AC  342B               	retlw	43	;'+'
   482     10AD  3443               	retlw	67	;'C'
   483     10AE  3449               	retlw	73	;'I'
   484     10AF  3450               	retlw	80	;'P'
   485     10B0  3453               	retlw	83	;'S'
   486     10B1  3445               	retlw	69	;'E'
   487     10B2  344E               	retlw	78	;'N'
   488     10B3  3444               	retlw	68	;'D'
   489     10B4  343D               	retlw	61	;'='
   490     10B5  3400               	retlw	0
   491     10B6                     STR_18:
   492     10B6  3444               	retlw	68	;'D'
   493     10B7  3469               	retlw	105	;'i'
   494     10B8  3473               	retlw	115	;'s'
   495     10B9  3474               	retlw	116	;'t'
   496     10BA  343A               	retlw	58	;':'
   497     10BB  3425               	retlw	37	;'%'
   498     10BC  342E               	retlw	46	;'.'
   499     10BD  3432               	retlw	50	;'2'
   500     10BE  3466               	retlw	102	;'f'
   501     10BF  3463               	retlw	99	;'c'
   502     10C0  346D               	retlw	109	;'m'
   503     10C1  3400               	retlw	0
   504     10C2                     STR_7:
   505     10C2  3426               	retlw	38	;'&'
   506     10C3  3466               	retlw	102	;'f'
   507     10C4  3469               	retlw	105	;'i'
   508     10C5  3465               	retlw	101	;'e'
   509     10C6  346C               	retlw	108	;'l'
   510     10C7  3464               	retlw	100	;'d'
   511     10C8  3431               	retlw	49	;'1'
   512     10C9  343D               	retlw	61	;'='
   513     10CA  3400               	retlw	0
   514     10CB                     STR_4:
   515     10CB  3425               	retlw	37	;'%'
   516     10CC  342E               	retlw	46	;'.'
   517     10CD  3432               	retlw	50	;'2'
   518     10CE  3466               	retlw	102	;'f'
   519     10CF  3400               	retlw	0
   520     10D0                     STR_19:
   521     10D0  3469               	retlw	105	;'i'
   522     10D1  346E               	retlw	110	;'n'
   523     10D2  3466               	retlw	102	;'f'
   524     10D3  3400               	retlw	0
   525     10D4                     STR_22:
   526     10D4  346E               	retlw	110	;'n'
   527     10D5  3461               	retlw	97	;'a'
   528     10D6  346E               	retlw	110	;'n'
   529     10D7  3400               	retlw	0
   530     10D8                     STR_9:
   531     10D8  3425               	retlw	37	;'%'
   532     10D9  3475               	retlw	117	;'u'
   533     10DA  3400               	retlw	0
   534     10D4                     STR_23          equ	STR_22
   535     10D4                     STR_24          equ	STR_22
   536     10D0                     STR_20          equ	STR_19
   537     10D0                     STR_21          equ	STR_19
   538     106E                     STR_13          equ	STR_6
   539     1059                     STR_12          equ	STR_5
   540     10C2                     STR_14          equ	STR_7
   541     1056                     STR_8           equ	STR_2+26
   542     1056                     STR_11          equ	STR_2+26
   543     1056                     STR_15          equ	STR_2+26
   544                           
   545                           	psect	cinit
   546     07E4                     start_initialization:	
   547                           ; #config settings
   548                           
   549     07E4                     __initialization:
   550                           
   551                           ; Clear objects allocated to BANK1
   552     07E4  1683               	bsf	3,5	;RP0=1, select bank1
   553     07E5  1303               	bcf	3,6	;RP1=0, select bank1
   554     07E6  01E8               	clrf	__pbssBANK1& (0+127)
   555     07E7  01E9               	clrf	(__pbssBANK1+1)& (0+127)
   556     07E8  01EA               	clrf	(__pbssBANK1+2)& (0+127)
   557     07E9  01EB               	clrf	(__pbssBANK1+3)& (0+127)
   558     07EA  01EC               	clrf	(__pbssBANK1+4)& (0+127)
   559                           
   560                           ; Clear objects allocated to BANK3
   561     07EB  1783               	bsf	3,7	;select IRP bank2
   562     07EC  30B2               	movlw	low __pbssBANK3
   563     07ED  0084               	movwf	4
   564     07EE  30BA               	movlw	low (__pbssBANK3+8)
   565     07EF  160A  158A  214B  120A  118A  	fcall	clear_ram0
   566                           
   567                           ; Clear objects allocated to BANK2
   568     07F4  3010               	movlw	low __pbssBANK2
   569     07F5  0084               	movwf	4
   570     07F6  3060               	movlw	low (__pbssBANK2+80)
   571     07F7  160A  158A  214B  120A  118A  	fcall	clear_ram0
   572     07FC                     end_of_initialization:	
   573                           ;End of C runtime variable initialization code
   574                           
   575     07FC                     __end_of__initialization:
   576     07FC  0183               	clrf	3
   577     07FD  160A  118A  2E99   	ljmp	_main	;jump to C main() function
   578                           
   579                           	psect	bssBANK1
   580     00E8                     __pbssBANK1:
   581     00E8                     _width:
   582     00E8                     	ds	2
   583     00EA                     _prec:
   584     00EA                     	ds	2
   585     00EC                     _flags:
   586     00EC                     	ds	1
   587                           
   588                           	psect	bssBANK3
   589     01B2                     __pbssBANK3:
   590     01B2                     floorf@F521:
   591     01B2                     	ds	4
   592     01B6                     ___fpclassifyf@F465:
   593     01B6                     	ds	4
   594                           
   595                           	psect	bssBANK2
   596     0110                     __pbssBANK2:
   597     0110                     _dbuf:
   598     0110                     	ds	80
   599                           
   600                           	psect	clrtext
   601     194B                     clear_ram0:	
   602                           ;	Called with FSR containing the base address, and
   603                           ;	W with the last address+1
   604                           
   605     194B  0064               	clrwdt	;clear the watchdog before getting into this loop
   606     194C                     clrloop0:
   607     194C  0180               	clrf	0	;clear RAM location pointed to by FSR
   608     194D  0A84               	incf	4,f	;increment pointer
   609     194E  0604               	xorwf	4,w	;XOR with final address
   610     194F  1903               	btfsc	3,2	;have we reached the end yet?
   611     1950  3400               	retlw	0	;all done for this memory range, return
   612     1951  0604               	xorwf	4,w	;XOR again to restore value
   613     1952  294C               	goto	clrloop0	;do the next byte
   614                           
   615                           	psect	cstackBANK3
   616     0190                     __pcstackBANK3:
   617     0190                     ESP_SendToThingSpeak@num:
   618                           
   619                           ; 10 bytes @ 0x0
   620     0190                     	ds	10
   621     019A                     ESP_SendToThingSpeak@len:
   622                           
   623                           ; 2 bytes @ 0xA
   624     019A                     	ds	2
   625     019C                     main@b:
   626                           
   627                           ; 16 bytes @ 0xC
   628     019C                     	ds	16
   629     01AC                     main@t:
   630                           
   631                           ; 2 bytes @ 0x1C
   632     01AC                     	ds	2
   633     01AE                     main@d:
   634                           
   635                           ; 4 bytes @ 0x1E
   636     01AE                     	ds	4
   637                           
   638                           	psect	cstackBANK1
   639     00A0                     __pcstackBANK1:
   640     00A0                     efgtoa@ne:
   641                           
   642                           ; 2 bytes @ 0x0
   643     00A0                     	ds	2
   644     00A2                     efgtoa@p:
   645                           
   646                           ; 2 bytes @ 0x2
   647     00A2                     	ds	2
   648     00A4                     efgtoa@t:
   649                           
   650                           ; 2 bytes @ 0x4
   651     00A4                     	ds	2
   652     00A6                     _efgtoa$705:
   653                           
   654                           ; 2 bytes @ 0x6
   655     00A6                     	ds	2
   656     00A8                     efgtoa@pp:
   657                           
   658                           ; 1 bytes @ 0x8
   659     00A8                     	ds	1
   660     00A9                     efgtoa@mode:
   661                           
   662                           ; 1 bytes @ 0x9
   663     00A9                     	ds	1
   664     00AA                     efgtoa@nmode:
   665                           
   666                           ; 1 bytes @ 0xA
   667     00AA                     	ds	1
   668     00AB                     efgtoa@d:
   669                           
   670                           ; 2 bytes @ 0xB
   671     00AB                     	ds	2
   672     00AD                     efgtoa@m:
   673                           
   674                           ; 2 bytes @ 0xD
   675     00AD                     	ds	2
   676     00AF                     efgtoa@e:
   677                           
   678                           ; 2 bytes @ 0xF
   679     00AF                     	ds	2
   680     00B1                     efgtoa@w:
   681                           
   682                           ; 2 bytes @ 0x11
   683     00B1                     	ds	2
   684     00B3                     efgtoa@ou:
   685                           
   686                           ; 4 bytes @ 0x13
   687     00B3                     	ds	4
   688     00B7                     efgtoa@i:
   689                           
   690                           ; 2 bytes @ 0x17
   691     00B7                     	ds	2
   692     00B9                     efgtoa@h:
   693                           
   694                           ; 4 bytes @ 0x19
   695     00B9                     	ds	4
   696     00BD                     efgtoa@l:
   697                           
   698                           ; 4 bytes @ 0x1D
   699     00BD                     	ds	4
   700     00C1                     efgtoa@sign:
   701                           
   702                           ; 1 bytes @ 0x21
   703     00C1                     	ds	1
   704     00C2                     efgtoa@n:
   705                           
   706                           ; 2 bytes @ 0x22
   707     00C2                     	ds	2
   708     00C4                     efgtoa@g:
   709                           
   710                           ; 4 bytes @ 0x24
   711     00C4                     	ds	4
   712     00C8                     efgtoa@u:
   713                           
   714                           ; 4 bytes @ 0x28
   715     00C8                     	ds	4
   716     00CC                     ??_sprintf:
   717                           
   718                           ; 1 bytes @ 0x2C
   719     00CC                     	ds	1
   720     00CD                     sprintf@ap:
   721                           
   722                           ; 1 bytes @ 0x2D
   723     00CD                     	ds	1
   724     00CE                     sprintf@f:
   725                           
   726                           ; 11 bytes @ 0x2E
   727     00CE                     	ds	11
   728     00D9                     ?_ESP_SendToThingSpeak:
   729     00D9                     ESP_SendToThingSpeak@distance:	
   730                           ; 1 bytes @ 0x39
   731                           
   732                           
   733                           ; 4 bytes @ 0x39
   734     00D9                     	ds	4
   735     00DD                     ??_ESP_SendToThingSpeak:
   736                           
   737                           ; 1 bytes @ 0x3D
   738     00DD                     	ds	8
   739     00E5                     ??_main:
   740                           
   741                           ; 1 bytes @ 0x45
   742     00E5                     	ds	3
   743                           
   744                           	psect	cstackCOMMON
   745     0070                     __pcstackCOMMON:
   746     0070                     ?_strcpy:
   747     0070                     ?_memcpy:	
   748                           ; 1 bytes @ 0x0
   749                           
   750     0070                     ?_putch:	
   751                           ; 1 bytes @ 0x0
   752                           
   753     0070                     ?_LCD_PulseEnable:	
   754                           ; 1 bytes @ 0x0
   755                           
   756     0070                     ?_LCD_Cmd:	
   757                           ; 1 bytes @ 0x0
   758                           
   759     0070                     ?_LCD_Char:	
   760                           ; 1 bytes @ 0x0
   761                           
   762     0070                     ?_LCD_Init:	
   763                           ; 1 bytes @ 0x0
   764                           
   765     0070                     ?_LCD_Clear:	
   766                           ; 1 bytes @ 0x0
   767                           
   768     0070                     ?_send_trigger:	
   769                           ; 1 bytes @ 0x0
   770                           
   771     0070                     ?_UART_Init:	
   772                           ; 1 bytes @ 0x0
   773                           
   774     0070                     ?_UART_WriteChar:	
   775                           ; 1 bytes @ 0x0
   776                           
   777     0070                     ?_main:	
   778                           ; 1 bytes @ 0x0
   779                           
   780     0070                     ?___fleq:	
   781                           ; 1 bytes @ 0x0
   782                           
   783     0070                     ?_strlen:	
   784                           ; 1 bit 
   785                           
   786     0070                     ?__Umul8_16:	
   787                           ; 2 bytes @ 0x0
   788                           
   789     0070                     ?_fputc:	
   790                           ; 2 bytes @ 0x0
   791                           
   792     0070                     ?___fpclassifyf:	
   793                           ; 2 bytes @ 0x0
   794                           
   795     0070                     ?_read_echo:	
   796                           ; 2 bytes @ 0x0
   797                           
   798     0070                     ?___wmul:	
   799                           ; 2 bytes @ 0x0
   800                           
   801     0070                     ?___lwdiv:	
   802                           ; 2 bytes @ 0x0
   803                           
   804     0070                     ?___lwmod:	
   805                           ; 2 bytes @ 0x0
   806                           
   807     0070                     ?_labs:	
   808                           ; 2 bytes @ 0x0
   809                           
   810     0070                     ?___flneg:	
   811                           ; 4 bytes @ 0x0
   812                           
   813     0070                     ?___fltol:	
   814                           ; 4 bytes @ 0x0
   815                           
   816     0070                     ?___fladd:	
   817                           ; 4 bytes @ 0x0
   818                           
   819     0070                     ?___xxtofl:	
   820                           ; 4 bytes @ 0x0
   821                           
   822     0070                     UART_WriteChar@c:	
   823                           ; 4 bytes @ 0x0
   824                           
   825     0070                     __Umul8_16@multiplicand:	
   826                           ; 1 bytes @ 0x0
   827                           
   828     0070                     memcpy@d1:	
   829                           ; 1 bytes @ 0x0
   830                           
   831     0070                     putch@c:	
   832                           ; 1 bytes @ 0x0
   833                           
   834     0070                     strcpy@dest:	
   835                           ; 1 bytes @ 0x0
   836                           
   837     0070                     ___wmul@multiplier:	
   838                           ; 1 bytes @ 0x0
   839                           
   840     0070                     ___lwdiv@divisor:	
   841                           ; 2 bytes @ 0x0
   842                           
   843     0070                     ___lwmod@divisor:	
   844                           ; 2 bytes @ 0x0
   845                           
   846     0070                     fputc@c:	
   847                           ; 2 bytes @ 0x0
   848                           
   849     0070                     strlen@s:	
   850                           ; 2 bytes @ 0x0
   851                           
   852     0070                     ___fleq@ff1:	
   853                           ; 2 bytes @ 0x0
   854                           
   855     0070                     ___flneg@f1:	
   856                           ; 4 bytes @ 0x0
   857                           
   858     0070                     ___fltol@f1:	
   859                           ; 4 bytes @ 0x0
   860                           
   861     0070                     ___fladd@b:	
   862                           ; 4 bytes @ 0x0
   863                           
   864     0070                     ___xxtofl@val:	
   865                           ; 4 bytes @ 0x0
   866                           
   867     0070                     ___fpclassifyf@x:	
   868                           ; 4 bytes @ 0x0
   869                           
   870     0070                     labs@a:	
   871                           ; 4 bytes @ 0x0
   872                           
   873     0070                     ??_putch:	
   874                           ; 4 bytes @ 0x0
   875                           
   876     0070                     ??_LCD_PulseEnable:	
   877                           ; 1 bytes @ 0x0
   878                           
   879     0070                     ??_LCD_Cmd:	
   880                           ; 1 bytes @ 0x0
   881                           
   882     0070                     ??_LCD_Char:	
   883                           ; 1 bytes @ 0x0
   884                           
   885     0070                     ??_send_trigger:	
   886                           ; 1 bytes @ 0x0
   887                           
   888     0070                     ??_UART_Init:	
   889                           ; 1 bytes @ 0x0
   890                           
   891     0070                     ??_UART_WriteChar:	
   892                           ; 1 bytes @ 0x0
   893                           
   894                           
   895                           ; 1 bytes @ 0x0
   896     0070                     	ds	1
   897     0071                     ?_UART_WriteString:
   898     0071                     memcpy@s1:	
   899                           ; 1 bytes @ 0x1
   900                           
   901     0071                     strcpy@src:	
   902                           ; 1 bytes @ 0x1
   903                           
   904     0071                     UART_WriteString@s:	
   905                           ; 1 bytes @ 0x1
   906                           
   907                           
   908                           ; 2 bytes @ 0x1
   909     0071                     	ds	1
   910     0072                     LCD_Cmd@cmd:
   911     0072                     LCD_Char@data:	
   912                           ; 1 bytes @ 0x2
   913                           
   914     0072                     strcpy@d:	
   915                           ; 1 bytes @ 0x2
   916                           
   917     0072                     ___wmul@multiplicand:	
   918                           ; 1 bytes @ 0x2
   919                           
   920     0072                     ___lwdiv@dividend:	
   921                           ; 2 bytes @ 0x2
   922                           
   923     0072                     ___lwmod@dividend:	
   924                           ; 2 bytes @ 0x2
   925                           
   926     0072                     memcpy@n:	
   927                           ; 2 bytes @ 0x2
   928                           
   929     0072                     fputc@fp:	
   930                           ; 2 bytes @ 0x2
   931                           
   932     0072                     strlen@a:	
   933                           ; 2 bytes @ 0x2
   934                           
   935     0072                     ??_strlen:	
   936                           ; 2 bytes @ 0x2
   937                           
   938     0072                     ??__Umul8_16:	
   939                           ; 1 bytes @ 0x2
   940                           
   941     0072                     ??_strcpy:	
   942                           ; 1 bytes @ 0x2
   943                           
   944     0072                     ??_read_echo:	
   945                           ; 1 bytes @ 0x2
   946                           
   947                           
   948                           ; 1 bytes @ 0x2
   949     0072                     	ds	1
   950     0073                     ?_LCD_String:
   951     0073                     ?_LCD_Set_Cursor:	
   952                           ; 1 bytes @ 0x3
   953                           
   954     0073                     LCD_Set_Cursor@col:	
   955                           ; 1 bytes @ 0x3
   956                           
   957     0073                     LCD_String@str:	
   958                           ; 1 bytes @ 0x3
   959                           
   960     0073                     ??_LCD_Init:	
   961                           ; 2 bytes @ 0x3
   962                           
   963     0073                     ??_LCD_Clear:	
   964                           ; 1 bytes @ 0x3
   965                           
   966     0073                     ??_UART_WriteString:	
   967                           ; 1 bytes @ 0x3
   968                           
   969                           
   970                           ; 1 bytes @ 0x3
   971     0073                     	ds	1
   972     0074                     LCD_Set_Cursor@row:
   973     0074                     ___lwmod@counter:	
   974                           ; 1 bytes @ 0x4
   975                           
   976     0074                     memcpy@tmp:	
   977                           ; 1 bytes @ 0x4
   978                           
   979     0074                     read_echo@timeout:	
   980                           ; 1 bytes @ 0x4
   981                           
   982     0074                     ___wmul@product:	
   983                           ; 2 bytes @ 0x4
   984                           
   985     0074                     ___lwdiv@quotient:	
   986                           ; 2 bytes @ 0x4
   987                           
   988     0074                     __Umul8_16@product:	
   989                           ; 2 bytes @ 0x4
   990                           
   991     0074                     ___fleq@ff2:	
   992                           ; 2 bytes @ 0x4
   993                           
   994     0074                     ___fladd@a:	
   995                           ; 4 bytes @ 0x4
   996                           
   997     0074                     ??_fputc:	
   998                           ; 4 bytes @ 0x4
   999                           
  1000     0074                     ??___fpclassifyf:	
  1001                           ; 1 bytes @ 0x4
  1002                           
  1003     0074                     ??_labs:	
  1004                           ; 1 bytes @ 0x4
  1005                           
  1006     0074                     ??_memcpy:	
  1007                           ; 1 bytes @ 0x4
  1008                           
  1009     0074                     ??_LCD_Set_Cursor:	
  1010                           ; 1 bytes @ 0x4
  1011                           
  1012     0074                     ??___wmul:	
  1013                           ; 1 bytes @ 0x4
  1014                           
  1015     0074                     ??___flneg:	
  1016                           ; 1 bytes @ 0x4
  1017                           
  1018     0074                     ??___fltol:	
  1019                           ; 1 bytes @ 0x4
  1020                           
  1021     0074                     ??___lwdiv:	
  1022                           ; 1 bytes @ 0x4
  1023                           
  1024     0074                     ??___lwmod:	
  1025                           ; 1 bytes @ 0x4
  1026                           
  1027     0074                     ??___xxtofl:	
  1028                           ; 1 bytes @ 0x4
  1029                           
  1030                           
  1031                           ; 1 bytes @ 0x4
  1032     0074                     	ds	1
  1033     0075                     memcpy@d:
  1034     0075                     _LCD_Set_Cursor$84:	
  1035                           ; 1 bytes @ 0x5
  1036                           
  1037     0075                     ??_LCD_String:	
  1038                           ; 2 bytes @ 0x5
  1039                           
  1040                           
  1041                           ; 1 bytes @ 0x5
  1042     0075                     	ds	1
  1043     0076                     ?_read_prec_or_width:
  1044     0076                     ___lwdiv@counter:	
  1045                           ; 2 bytes @ 0x6
  1046                           
  1047     0076                     read_prec_or_width@fmt:	
  1048                           ; 1 bytes @ 0x6
  1049                           
  1050     0076                     memcpy@s:	
  1051                           ; 1 bytes @ 0x6
  1052                           
  1053     0076                     __Umul8_16@word_mpld:	
  1054                           ; 1 bytes @ 0x6
  1055                           
  1056                           
  1057                           ; 2 bytes @ 0x6
  1058     0076                     	ds	1
  1059     0077                     read_prec_or_width@ap:
  1060                           
  1061                           ; 1 bytes @ 0x7
  1062     0077                     	ds	1
  1063     0078                     ___fltol@sign1:
  1064     0078                     ___fladd@signs:	
  1065                           ; 1 bytes @ 0x8
  1066                           
  1067     0078                     __Umul8_16@multiplier:	
  1068                           ; 1 bytes @ 0x8
  1069                           
  1070     0078                     ___xxtofl@sign:	
  1071                           ; 1 bytes @ 0x8
  1072                           
  1073     0078                     read_prec_or_width@c:	
  1074                           ; 1 bytes @ 0x8
  1075                           
  1076     0078                     ??___fleq:	
  1077                           ; 1 bytes @ 0x8
  1078                           
  1079     0078                     ??_read_prec_or_width:	
  1080                           ; 1 bytes @ 0x8
  1081                           
  1082                           
  1083                           ; 1 bytes @ 0x8
  1084     0078                     	ds	1
  1085     0079                     ___fltol@exp1:
  1086     0079                     ___fladd@aexp:	
  1087                           ; 1 bytes @ 0x9
  1088                           
  1089     0079                     ___xxtofl@exp:	
  1090                           ; 1 bytes @ 0x9
  1091                           
  1092     0079                     read_prec_or_width@n:	
  1093                           ; 1 bytes @ 0x9
  1094                           
  1095     0079                     ??___flmul:	
  1096                           ; 2 bytes @ 0x9
  1097                           
  1098                           
  1099                           ; 1 bytes @ 0x9
  1100     0079                     	ds	1
  1101     007A                     ___fladd@bexp:
  1102     007A                     ___xxtofl@arg:	
  1103                           ; 1 bytes @ 0xA
  1104                           
  1105                           
  1106                           ; 4 bytes @ 0xA
  1107     007A                     	ds	1
  1108     007B                     ___fladd@grs:
  1109                           
  1110                           ; 1 bytes @ 0xB
  1111     007B                     	ds	2
  1112     007D                     ??_pad:
  1113                           
  1114                           ; 1 bytes @ 0xD
  1115     007D                     	ds	1
  1116     007E                     ??_vfprintf:
  1117     007E                     ??___flsub:	
  1118                           ; 1 bytes @ 0xE
  1119                           
  1120     007E                     ??_utoa:	
  1121                           ; 1 bytes @ 0xE
  1122                           
  1123                           
  1124                           	psect	cstackBANK0
  1125     0020                     __pcstackBANK0:	
  1126                           ; 1 bytes @ 0xE
  1127                           
  1128     0020                     ?_fputs:
  1129     0020                     ?___fldiv:	
  1130                           ; 2 bytes @ 0x0
  1131                           
  1132     0020                     ?___flmul:	
  1133                           ; 4 bytes @ 0x0
  1134                           
  1135     0020                     fputs@s:	
  1136                           ; 4 bytes @ 0x0
  1137                           
  1138     0020                     ___fpclassifyf@e:	
  1139                           ; 1 bytes @ 0x0
  1140                           
  1141     0020                     ___fldiv@a:	
  1142                           ; 2 bytes @ 0x0
  1143                           
  1144     0020                     ___flmul@b:	
  1145                           ; 4 bytes @ 0x0
  1146                           
  1147     0020                     ??___fladd:	
  1148                           ; 4 bytes @ 0x0
  1149                           
  1150                           
  1151                           ; 1 bytes @ 0x0
  1152     0020                     	ds	1
  1153     0021                     fputs@fp:
  1154                           
  1155                           ; 2 bytes @ 0x1
  1156     0021                     	ds	1
  1157     0022                     ___fpclassifyf@u:
  1158                           
  1159                           ; 4 bytes @ 0x2
  1160     0022                     	ds	1
  1161     0023                     ??_fputs:
  1162                           
  1163                           ; 1 bytes @ 0x3
  1164     0023                     	ds	1
  1165     0024                     ___fldiv@b:
  1166     0024                     ___flmul@a:	
  1167                           ; 4 bytes @ 0x4
  1168                           
  1169                           
  1170                           ; 4 bytes @ 0x4
  1171     0024                     	ds	1
  1172     0025                     fputs@c:
  1173                           
  1174                           ; 1 bytes @ 0x5
  1175     0025                     	ds	1
  1176     0026                     fputs@i:
  1177                           
  1178                           ; 2 bytes @ 0x6
  1179     0026                     	ds	2
  1180     0028                     ?_pad:
  1181     0028                     ___flmul@sign:	
  1182                           ; 1 bytes @ 0x8
  1183                           
  1184     0028                     pad@fp:	
  1185                           ; 1 bytes @ 0x8
  1186                           
  1187     0028                     ??___fldiv:	
  1188                           ; 2 bytes @ 0x8
  1189                           
  1190                           
  1191                           ; 1 bytes @ 0x8
  1192     0028                     	ds	1
  1193     0029                     ___flmul@grs:
  1194                           
  1195                           ; 4 bytes @ 0x9
  1196     0029                     	ds	1
  1197     002A                     pad@buf:
  1198                           
  1199                           ; 1 bytes @ 0xA
  1200     002A                     	ds	1
  1201     002B                     pad@p:
  1202                           
  1203                           ; 2 bytes @ 0xB
  1204     002B                     	ds	2
  1205     002D                     ___flmul@aexp:
  1206     002D                     pad@i:	
  1207                           ; 1 bytes @ 0xD
  1208                           
  1209     002D                     ___fldiv@rem:	
  1210                           ; 2 bytes @ 0xD
  1211                           
  1212                           
  1213                           ; 4 bytes @ 0xD
  1214     002D                     	ds	1
  1215     002E                     ___flmul@bexp:
  1216                           
  1217                           ; 1 bytes @ 0xE
  1218     002E                     	ds	1
  1219     002F                     ?_utoa:
  1220     002F                     utoa@fp:	
  1221                           ; 1 bytes @ 0xF
  1222                           
  1223     002F                     ___flmul@prod:	
  1224                           ; 2 bytes @ 0xF
  1225                           
  1226                           
  1227                           ; 4 bytes @ 0xF
  1228     002F                     	ds	2
  1229     0031                     ___fldiv@sign:
  1230     0031                     utoa@d:	
  1231                           ; 1 bytes @ 0x11
  1232                           
  1233                           
  1234                           ; 2 bytes @ 0x11
  1235     0031                     	ds	1
  1236     0032                     ___fldiv@new_exp:
  1237                           
  1238                           ; 2 bytes @ 0x12
  1239     0032                     	ds	1
  1240     0033                     ___flmul@temp:
  1241     0033                     utoa@w:	
  1242                           ; 2 bytes @ 0x13
  1243                           
  1244                           
  1245                           ; 2 bytes @ 0x13
  1246     0033                     	ds	1
  1247     0034                     ___fldiv@grs:
  1248                           
  1249                           ; 4 bytes @ 0x14
  1250     0034                     	ds	1
  1251     0035                     ?___flge:
  1252     0035                     ?___flsub:	
  1253                           ; 1 bit 
  1254                           
  1255     0035                     utoa@p:	
  1256                           ; 4 bytes @ 0x15
  1257                           
  1258     0035                     ___flge@ff1:	
  1259                           ; 2 bytes @ 0x15
  1260                           
  1261     0035                     ___flsub@a:	
  1262                           ; 4 bytes @ 0x15
  1263                           
  1264                           
  1265                           ; 4 bytes @ 0x15
  1266     0035                     	ds	2
  1267     0037                     utoa@i:
  1268                           
  1269                           ; 2 bytes @ 0x17
  1270     0037                     	ds	1
  1271     0038                     ___fldiv@bexp:
  1272                           
  1273                           ; 1 bytes @ 0x18
  1274     0038                     	ds	1
  1275     0039                     ___fldiv@aexp:
  1276     0039                     ___flge@ff2:	
  1277                           ; 1 bytes @ 0x19
  1278                           
  1279     0039                     ___flsub@b:	
  1280                           ; 4 bytes @ 0x19
  1281                           
  1282                           
  1283                           ; 4 bytes @ 0x19
  1284     0039                     	ds	1
  1285     003A                     ?_floorf:
  1286     003A                     floorf@x:	
  1287                           ; 4 bytes @ 0x1A
  1288                           
  1289                           
  1290                           ; 4 bytes @ 0x1A
  1291     003A                     	ds	3
  1292     003D                     ??___flge:
  1293                           
  1294                           ; 1 bytes @ 0x1D
  1295     003D                     	ds	1
  1296     003E                     ??_floorf:
  1297                           
  1298                           ; 1 bytes @ 0x1E
  1299     003E                     	ds	6
  1300     0044                     floorf@m:
  1301                           
  1302                           ; 4 bytes @ 0x24
  1303     0044                     	ds	4
  1304     0048                     floorf@e:
  1305                           
  1306                           ; 2 bytes @ 0x28
  1307     0048                     	ds	2
  1308     004A                     floorf@u:
  1309                           
  1310                           ; 4 bytes @ 0x2A
  1311     004A                     	ds	4
  1312     004E                     ?_efgtoa:
  1313     004E                     efgtoa@fp:	
  1314                           ; 1 bytes @ 0x2E
  1315                           
  1316                           
  1317                           ; 2 bytes @ 0x2E
  1318     004E                     	ds	2
  1319     0050                     efgtoa@f:
  1320                           
  1321                           ; 4 bytes @ 0x30
  1322     0050                     	ds	4
  1323     0054                     efgtoa@c:
  1324                           
  1325                           ; 1 bytes @ 0x34
  1326     0054                     	ds	1
  1327     0055                     ??_efgtoa:
  1328                           
  1329                           ; 1 bytes @ 0x35
  1330     0055                     	ds	4
  1331     0059                     ?_vfpfcnvrt:
  1332     0059                     vfpfcnvrt@fp:	
  1333                           ; 1 bytes @ 0x39
  1334                           
  1335                           
  1336                           ; 2 bytes @ 0x39
  1337     0059                     	ds	2
  1338     005B                     vfpfcnvrt@fmt:
  1339                           
  1340                           ; 1 bytes @ 0x3B
  1341     005B                     	ds	1
  1342     005C                     vfpfcnvrt@ap:
  1343                           
  1344                           ; 1 bytes @ 0x3C
  1345     005C                     	ds	1
  1346     005D                     ??_vfpfcnvrt:
  1347                           
  1348                           ; 1 bytes @ 0x3D
  1349     005D                     	ds	2
  1350     005F                     vfpfcnvrt@convarg:
  1351                           
  1352                           ; 4 bytes @ 0x3F
  1353     005F                     	ds	4
  1354     0063                     vfpfcnvrt@c:
  1355                           
  1356                           ; 1 bytes @ 0x43
  1357     0063                     	ds	1
  1358     0064                     vfpfcnvrt@cp:
  1359                           
  1360                           ; 1 bytes @ 0x44
  1361     0064                     	ds	1
  1362     0065                     ?_vfprintf:
  1363     0065                     vfprintf@fp:	
  1364                           ; 2 bytes @ 0x45
  1365                           
  1366                           
  1367                           ; 2 bytes @ 0x45
  1368     0065                     	ds	2
  1369     0067                     vfprintf@fmt:
  1370                           
  1371                           ; 1 bytes @ 0x47
  1372     0067                     	ds	1
  1373     0068                     vfprintf@ap:
  1374                           
  1375                           ; 1 bytes @ 0x48
  1376     0068                     	ds	1
  1377     0069                     vfprintf@cfmt:
  1378                           
  1379                           ; 1 bytes @ 0x49
  1380     0069                     	ds	1
  1381     006A                     ?_sprintf:
  1382     006A                     sprintf@s:	
  1383                           ; 2 bytes @ 0x4A
  1384                           
  1385                           
  1386                           ; 1 bytes @ 0x4A
  1387     006A                     	ds	1
  1388     006B                     sprintf@fmt:
  1389                           
  1390                           ; 1 bytes @ 0x4B
  1391     006B                     	ds	5
  1392                           
  1393                           	psect	maintext
  1394     1699                     __pmaintext:	
  1395 ;;
  1396 ;;Main: autosize = 0, tempsize = 3, incstack = 0, save=0
  1397 ;;
  1398 ;; *************** function _main *****************
  1399 ;; Defined at:
  1400 ;;		line 143 in file "PROY3FINAL.c"
  1401 ;; Parameters:    Size  Location     Type
  1402 ;;		None
  1403 ;; Auto vars:     Size  Location     Type
  1404 ;;  b              16   12[BANK3 ] unsigned char [16]
  1405 ;;  d               4   30[BANK3 ] float 
  1406 ;;  t               2   28[BANK3 ] unsigned int 
  1407 ;; Return value:  Size  Location     Type
  1408 ;;                  1    wreg      void 
  1409 ;; Registers used:
  1410 ;;		wreg, fsr0l, fsr0h, status,2, status,0, btemp+1, pclath, cstack
  1411 ;; Tracked objects:
  1412 ;;		On entry : B00/0
  1413 ;;		On exit  : 0/0
  1414 ;;		Unchanged: 0/0
  1415 ;; Data sizes:     COMMON   BANK0   BANK1   BANK3   BANK2
  1416 ;;      Params:         0       0       0       0       0
  1417 ;;      Locals:         0       0       0      22       0
  1418 ;;      Temps:          0       0       3       0       0
  1419 ;;      Totals:         0       0       3      22       0
  1420 ;;Total ram usage:       25 bytes
  1421 ;; Hardware stack levels required when called: 9
  1422 ;; This function calls:
  1423 ;;		_ESP_SendToThingSpeak
  1424 ;;		_LCD_Clear
  1425 ;;		_LCD_Init
  1426 ;;		_LCD_Set_Cursor
  1427 ;;		_LCD_String
  1428 ;;		_UART_Init
  1429 ;;		___fldiv
  1430 ;;		___flge
  1431 ;;		___xxtofl
  1432 ;;		_read_echo
  1433 ;;		_send_trigger
  1434 ;;		_sprintf
  1435 ;; This function is called by:
  1436 ;;		Startup code after reset
  1437 ;; This function uses a non-reentrant model
  1438 ;;
  1439                           
  1440     1699                     _main:	
  1441                           ;psect for function _main
  1442                           
  1443     1699                     l3576:	
  1444                           ;incstack = 0
  1445 ;; hardware stack exceeded
  1446                           ; Regs used in _main: [wreg-fsr0h+status,2+status,0+btemp+1+pclath+cstack]
  1447                           
  1448                           
  1449                           ;PROY3FINAL.c: 144:     OSCCON=0x71; ADCON1=0x0F;
  1450     1699  3071               	movlw	113
  1451     169A  1683               	bsf	3,5	;RP0=1, select bank1
  1452     169B  1303               	bcf	3,6	;RP1=0, select bank1
  1453     169C  008F               	movwf	15	;volatile
  1454     169D  300F               	movlw	15
  1455     169E  009F               	movwf	31	;volatile
  1456                           
  1457                           ;PROY3FINAL.c: 145:     TRISA=0b11111000; TRISD=0x00; TRISC=0b100010;
  1458     169F  30F8               	movlw	248
  1459     16A0  0085               	movwf	5	;volatile
  1460     16A1                     l3578:
  1461     16A1  0188               	clrf	8	;volatile
  1462     16A2                     l3580:
  1463     16A2  3022               	movlw	34
  1464     16A3  0087               	movwf	7	;volatile
  1465                           
  1466                           ;PROY3FINAL.c: 146:     PORTA=0;
  1467     16A4  1283               	bcf	3,5	;RP0=0, select bank0
  1468     16A5  1303               	bcf	3,6	;RP1=0, select bank0
  1469     16A6  0185               	clrf	5	;volatile
  1470     16A7                     l3582:
  1471                           
  1472                           ;PROY3FINAL.c: 147:     LCD_Init(); UART_Init();
  1473     16A7  160A  158A  2379  160A  118A  	fcall	_LCD_Init
  1474     16AC                     l3584:
  1475     16AC  160A  158A  2184  160A  118A  	fcall	_UART_Init
  1476     16B1                     l3586:
  1477                           
  1478                           ;PROY3FINAL.c: 150:         send_trigger(); _delay((unsigned long)((100)*(8000000/400000
      +                          0.0)));
  1479     16B1  160A  158A  2168  160A  118A  	fcall	_send_trigger
  1480     16B6                     l3588:
  1481     16B6  3041               	movlw	65
  1482     16B7  1683               	bsf	3,5	;RP0=1, select bank1
  1483     16B8  1303               	bcf	3,6	;RP1=0, select bank1
  1484     16B9  00E5               	movwf	??_main^(0+128)
  1485     16BA                     u6097:
  1486     16BA  0BE5               	decfsz	??_main^(0+128),f
  1487     16BB  2EBA               	goto	u6097
  1488     16BC  2EBD               	nop2
  1489     16BD                     l3590:
  1490                           
  1491                           ;PROY3FINAL.c: 151:         unsigned int t = read_echo();
  1492     16BD  160A  158A  23B1  160A  118A  	fcall	_read_echo
  1493     16C2  0871               	movf	?_read_echo+1,w
  1494     16C3  1683               	bsf	3,5	;RP0=1, select bank3
  1495     16C4  1703               	bsf	3,6	;RP1=1, select bank3
  1496     16C5  00AD               	movwf	(main@t+1)^(0+384)
  1497     16C6  0870               	movf	?_read_echo,w
  1498     16C7  00AC               	movwf	main@t^(0+384)
  1499     16C8                     l3592:
  1500                           
  1501                           ;PROY3FINAL.c: 152:         float d = t/58.0;
  1502     16C8  3042               	movlw	66
  1503     16C9  1283               	bcf	3,5	;RP0=0, select bank0
  1504     16CA  1303               	bcf	3,6	;RP1=0, select bank0
  1505     16CB  00A3               	movwf	___fldiv@a+3
  1506     16CC  3068               	movlw	104
  1507     16CD  00A2               	movwf	___fldiv@a+2
  1508     16CE  3000               	movlw	0
  1509     16CF  00A1               	movwf	___fldiv@a+1
  1510     16D0  3000               	movlw	0
  1511     16D1  00A0               	movwf	___fldiv@a
  1512     16D2  1683               	bsf	3,5	;RP0=1, select bank3
  1513     16D3  1703               	bsf	3,6	;RP1=1, select bank3
  1514     16D4  082C               	movf	main@t^(0+384),w
  1515     16D5  00F0               	movwf	___xxtofl@val
  1516     16D6  082D               	movf	(main@t+1)^(0+384),w
  1517     16D7  00F1               	movwf	___xxtofl@val+1
  1518     16D8  01F2               	clrf	___xxtofl@val+2
  1519     16D9  01F3               	clrf	___xxtofl@val+3
  1520     16DA  3000               	movlw	0
  1521     16DB  160A  118A  2144  160A  118A  	fcall	___xxtofl
  1522     16E0  0873               	movf	?___xxtofl+3,w
  1523     16E1  1283               	bcf	3,5	;RP0=0, select bank0
  1524     16E2  1303               	bcf	3,6	;RP1=0, select bank0
  1525     16E3  00A7               	movwf	___fldiv@b+3
  1526     16E4  0872               	movf	?___xxtofl+2,w
  1527     16E5  00A6               	movwf	___fldiv@b+2
  1528     16E6  0871               	movf	?___xxtofl+1,w
  1529     16E7  00A5               	movwf	___fldiv@b+1
  1530     16E8  0870               	movf	?___xxtofl,w
  1531     16E9  00A4               	movwf	___fldiv@b
  1532     16EA  120A  158A  2098  160A  118A  	fcall	___fldiv
  1533     16EF  1283               	bcf	3,5	;RP0=0, select bank0
  1534     16F0  1303               	bcf	3,6	;RP1=0, select bank0
  1535     16F1  0823               	movf	?___fldiv+3,w
  1536     16F2  1683               	bsf	3,5	;RP0=1, select bank3
  1537     16F3  1703               	bsf	3,6	;RP1=1, select bank3
  1538     16F4  00B1               	movwf	(main@d+3)^(0+384)
  1539     16F5  1283               	bcf	3,5	;RP0=0, select bank0
  1540     16F6  1303               	bcf	3,6	;RP1=0, select bank0
  1541     16F7  0822               	movf	?___fldiv+2,w
  1542     16F8  1683               	bsf	3,5	;RP0=1, select bank3
  1543     16F9  1703               	bsf	3,6	;RP1=1, select bank3
  1544     16FA  00B0               	movwf	(main@d+2)^(0+384)
  1545     16FB  1283               	bcf	3,5	;RP0=0, select bank0
  1546     16FC  1303               	bcf	3,6	;RP1=0, select bank0
  1547     16FD  0821               	movf	?___fldiv+1,w
  1548     16FE  1683               	bsf	3,5	;RP0=1, select bank3
  1549     16FF  1703               	bsf	3,6	;RP1=1, select bank3
  1550     1700  00AF               	movwf	(main@d+1)^(0+384)
  1551     1701  1283               	bcf	3,5	;RP0=0, select bank0
  1552     1702  1303               	bcf	3,6	;RP1=0, select bank0
  1553     1703  0820               	movf	?___fldiv,w
  1554     1704  1683               	bsf	3,5	;RP0=1, select bank3
  1555     1705  1703               	bsf	3,6	;RP1=1, select bank3
  1556     1706  00AE               	movwf	main@d^(0+384)
  1557     1707                     l3594:
  1558                           
  1559                           ;PROY3FINAL.c: 153:         LCD_Clear(); _delay((unsigned long)((50)*(8000000/4000.0)));
  1560     1707  160A  158A  2174  160A  118A  	fcall	_LCD_Clear
  1561     170C                     l3596:
  1562     170C  3082               	movlw	130
  1563     170D  1683               	bsf	3,5	;RP0=1, select bank1
  1564     170E  1303               	bcf	3,6	;RP1=0, select bank1
  1565     170F  00E6               	movwf	(??_main^(0+128)+1)
  1566     1710  30DD               	movlw	221
  1567     1711  00E5               	movwf	??_main^(0+128)
  1568     1712                     u6107:
  1569     1712  0BE5               	decfsz	??_main^(0+128),f
  1570     1713  2F12               	goto	u6107
  1571     1714  0BE6               	decfsz	(??_main^(0+128)+1),f
  1572     1715  2F12               	goto	u6107
  1573     1716                     l3598:
  1574                           
  1575                           ;PROY3FINAL.c: 154:         LCD_Set_Cursor(1,1);
  1576     1716  01F3               	clrf	LCD_Set_Cursor@col
  1577     1717  0AF3               	incf	LCD_Set_Cursor@col,f
  1578     1718  3001               	movlw	1
  1579     1719  160A  158A  2194  160A  118A  	fcall	_LCD_Set_Cursor
  1580     171E                     l3600:
  1581                           
  1582                           ;PROY3FINAL.c: 155:         if(!t) LCD_String("Sin respuesta");
  1583     171E  1683               	bsf	3,5	;RP0=1, select bank3
  1584     171F  1703               	bsf	3,6	;RP1=1, select bank3
  1585     1720  082C               	movf	main@t^(0+384),w
  1586     1721  042D               	iorwf	(main@t+1)^(0+384),w
  1587     1722  1D03               	btfss	3,2
  1588     1723  2F25               	goto	u6061
  1589     1724  2F26               	goto	u6060
  1590     1725                     u6061:
  1591     1725  2F30               	goto	l3604
  1592     1726                     u6060:
  1593     1726                     l3602:
  1594     1726  308D               	movlw	(low ((STR_17-__stringbase)| (0+32768)))& (0+255)
  1595     1727  00F3               	movwf	LCD_String@str
  1596     1728  3080               	movlw	128
  1597     1729  00F4               	movwf	LCD_String@str+1
  1598     172A  160A  158A  229C  160A  118A  	fcall	_LCD_String
  1599     172F  2F5C               	goto	l3606
  1600     1730                     l3604:
  1601     1730  309C               	movlw	(low (main@b| (0+256)))& (0+255)
  1602     1731  1283               	bcf	3,5	;RP0=0, select bank0
  1603     1732  1303               	bcf	3,6	;RP1=0, select bank0
  1604     1733  00EA               	movwf	sprintf@s
  1605     1734  30A7               	movlw	(low ((STR_18-__stringbase)| (0+32768)))& (0+255)
  1606     1735  00EB               	movwf	sprintf@fmt
  1607     1736  1683               	bsf	3,5	;RP0=1, select bank3
  1608     1737  1703               	bsf	3,6	;RP1=1, select bank3
  1609     1738  0831               	movf	(main@d+3)^(0+384),w
  1610     1739  1283               	bcf	3,5	;RP0=0, select bank0
  1611     173A  1303               	bcf	3,6	;RP1=0, select bank0
  1612     173B  00EF               	movwf	?_sprintf+5
  1613     173C  1683               	bsf	3,5	;RP0=1, select bank3
  1614     173D  1703               	bsf	3,6	;RP1=1, select bank3
  1615     173E  0830               	movf	(main@d+2)^(0+384),w
  1616     173F  1283               	bcf	3,5	;RP0=0, select bank0
  1617     1740  1303               	bcf	3,6	;RP1=0, select bank0
  1618     1741  00EE               	movwf	?_sprintf+4
  1619     1742  1683               	bsf	3,5	;RP0=1, select bank3
  1620     1743  1703               	bsf	3,6	;RP1=1, select bank3
  1621     1744  082F               	movf	(main@d+1)^(0+384),w
  1622     1745  1283               	bcf	3,5	;RP0=0, select bank0
  1623     1746  1303               	bcf	3,6	;RP1=0, select bank0
  1624     1747  00ED               	movwf	?_sprintf+3
  1625     1748  1683               	bsf	3,5	;RP0=1, select bank3
  1626     1749  1703               	bsf	3,6	;RP1=1, select bank3
  1627     174A  082E               	movf	main@d^(0+384),w
  1628     174B  1283               	bcf	3,5	;RP0=0, select bank0
  1629     174C  1303               	bcf	3,6	;RP1=0, select bank0
  1630     174D  00EC               	movwf	?_sprintf+2
  1631     174E  160A  158A  2314  160A  118A  	fcall	_sprintf
  1632     1753  309C               	movlw	(low (main@b| (0+256)))& (0+255)
  1633     1754  00F3               	movwf	LCD_String@str
  1634     1755  3001               	movlw	1
  1635     1756  00F4               	movwf	LCD_String@str+1
  1636     1757  160A  158A  229C  160A  118A  	fcall	_LCD_String
  1637     175C                     l3606:
  1638                           
  1639                           ;PROY3FINAL.c: 158:         RA0=RA1=RA2=0; _delay((unsigned long)((10)*(8000000/4000000.
      +                          0)));
  1640     175C  1283               	bcf	3,5	;RP0=0, select bank0
  1641     175D  1303               	bcf	3,6	;RP1=0, select bank0
  1642     175E  1105               	bcf	5,2	;volatile
  1643     175F  1085               	bcf	5,1	;volatile
  1644     1760  1005               	bcf	5,0	;volatile
  1645     1761                     l3608:
  1646     1761  3005               	movlw	5
  1647     1762  1683               	bsf	3,5	;RP0=1, select bank1
  1648     1763  1303               	bcf	3,6	;RP1=0, select bank1
  1649     1764  00E5               	movwf	??_main^(0+128)
  1650     1765                     u6117:
  1651     1765  0BE5               	decfsz	??_main^(0+128),f
  1652     1766  2F65               	goto	u6117
  1653     1767  2F68               	nop2
  1654     1768                     l3610:
  1655                           
  1656                           ;PROY3FINAL.c: 159:         if(d<=10) RA0=1;
  1657     1768  3041               	movlw	65
  1658     1769  1283               	bcf	3,5	;RP0=0, select bank0
  1659     176A  1303               	bcf	3,6	;RP1=0, select bank0
  1660     176B  00B8               	movwf	___flge@ff1+3
  1661     176C  3020               	movlw	32
  1662     176D  00B7               	movwf	___flge@ff1+2
  1663     176E  3000               	movlw	0
  1664     176F  00B6               	movwf	___flge@ff1+1
  1665     1770  3000               	movlw	0
  1666     1771  00B5               	movwf	___flge@ff1
  1667     1772  1683               	bsf	3,5	;RP0=1, select bank3
  1668     1773  1703               	bsf	3,6	;RP1=1, select bank3
  1669     1774  0831               	movf	(main@d+3)^(0+384),w
  1670     1775  1283               	bcf	3,5	;RP0=0, select bank0
  1671     1776  1303               	bcf	3,6	;RP1=0, select bank0
  1672     1777  00BC               	movwf	___flge@ff2+3
  1673     1778  1683               	bsf	3,5	;RP0=1, select bank3
  1674     1779  1703               	bsf	3,6	;RP1=1, select bank3
  1675     177A  0830               	movf	(main@d+2)^(0+384),w
  1676     177B  1283               	bcf	3,5	;RP0=0, select bank0
  1677     177C  1303               	bcf	3,6	;RP1=0, select bank0
  1678     177D  00BB               	movwf	___flge@ff2+2
  1679     177E  1683               	bsf	3,5	;RP0=1, select bank3
  1680     177F  1703               	bsf	3,6	;RP1=1, select bank3
  1681     1780  082F               	movf	(main@d+1)^(0+384),w
  1682     1781  1283               	bcf	3,5	;RP0=0, select bank0
  1683     1782  1303               	bcf	3,6	;RP1=0, select bank0
  1684     1783  00BA               	movwf	___flge@ff2+1
  1685     1784  1683               	bsf	3,5	;RP0=1, select bank3
  1686     1785  1703               	bsf	3,6	;RP1=1, select bank3
  1687     1786  082E               	movf	main@d^(0+384),w
  1688     1787  1283               	bcf	3,5	;RP0=0, select bank0
  1689     1788  1303               	bcf	3,6	;RP1=0, select bank0
  1690     1789  00B9               	movwf	___flge@ff2
  1691     178A  160A  158A  26B8  160A  118A  	fcall	___flge
  1692     178F  1C03               	btfss	3,0
  1693     1790  2F92               	goto	u6071
  1694     1791  2F93               	goto	u6070
  1695     1792                     u6071:
  1696     1792  2F97               	goto	l3614
  1697     1793                     u6070:
  1698     1793                     l3612:
  1699     1793  1283               	bcf	3,5	;RP0=0, select bank0
  1700     1794  1303               	bcf	3,6	;RP1=0, select bank0
  1701     1795  1405               	bsf	5,0	;volatile
  1702     1796  2FC9               	goto	l3618
  1703     1797                     l3614:
  1704     1797  3041               	movlw	65
  1705     1798  1283               	bcf	3,5	;RP0=0, select bank0
  1706     1799  1303               	bcf	3,6	;RP1=0, select bank0
  1707     179A  00B8               	movwf	___flge@ff1+3
  1708     179B  30F0               	movlw	240
  1709     179C  00B7               	movwf	___flge@ff1+2
  1710     179D  3000               	movlw	0
  1711     179E  00B6               	movwf	___flge@ff1+1
  1712     179F  3000               	movlw	0
  1713     17A0  00B5               	movwf	___flge@ff1
  1714     17A1  1683               	bsf	3,5	;RP0=1, select bank3
  1715     17A2  1703               	bsf	3,6	;RP1=1, select bank3
  1716     17A3  0831               	movf	(main@d+3)^(0+384),w
  1717     17A4  1283               	bcf	3,5	;RP0=0, select bank0
  1718     17A5  1303               	bcf	3,6	;RP1=0, select bank0
  1719     17A6  00BC               	movwf	___flge@ff2+3
  1720     17A7  1683               	bsf	3,5	;RP0=1, select bank3
  1721     17A8  1703               	bsf	3,6	;RP1=1, select bank3
  1722     17A9  0830               	movf	(main@d+2)^(0+384),w
  1723     17AA  1283               	bcf	3,5	;RP0=0, select bank0
  1724     17AB  1303               	bcf	3,6	;RP1=0, select bank0
  1725     17AC  00BB               	movwf	___flge@ff2+2
  1726     17AD  1683               	bsf	3,5	;RP0=1, select bank3
  1727     17AE  1703               	bsf	3,6	;RP1=1, select bank3
  1728     17AF  082F               	movf	(main@d+1)^(0+384),w
  1729     17B0  1283               	bcf	3,5	;RP0=0, select bank0
  1730     17B1  1303               	bcf	3,6	;RP1=0, select bank0
  1731     17B2  00BA               	movwf	___flge@ff2+1
  1732     17B3  1683               	bsf	3,5	;RP0=1, select bank3
  1733     17B4  1703               	bsf	3,6	;RP1=1, select bank3
  1734     17B5  082E               	movf	main@d^(0+384),w
  1735     17B6  1283               	bcf	3,5	;RP0=0, select bank0
  1736     17B7  1303               	bcf	3,6	;RP1=0, select bank0
  1737     17B8  00B9               	movwf	___flge@ff2
  1738     17B9  160A  158A  26B8  160A  118A  	fcall	___flge
  1739     17BE  1C03               	btfss	3,0
  1740     17BF  2FC1               	goto	u6081
  1741     17C0  2FC2               	goto	u6080
  1742     17C1                     u6081:
  1743     17C1  2FC6               	goto	l151
  1744     17C2                     u6080:
  1745     17C2                     l3616:
  1746     17C2  1283               	bcf	3,5	;RP0=0, select bank0
  1747     17C3  1303               	bcf	3,6	;RP1=0, select bank0
  1748     17C4  1485               	bsf	5,1	;volatile
  1749     17C5  2FC9               	goto	l3618
  1750     17C6                     l151:	
  1751                           ;PROY3FINAL.c: 161:         else RA2=1;
  1752                           
  1753     17C6  1283               	bcf	3,5	;RP0=0, select bank0
  1754     17C7  1303               	bcf	3,6	;RP1=0, select bank0
  1755     17C8  1505               	bsf	5,2	;volatile
  1756     17C9                     l3618:
  1757                           
  1758                           ;PROY3FINAL.c: 162:         _delay((unsigned long)((10)*(8000000/4000000.0)));
  1759     17C9  3005               	movlw	5
  1760     17CA  1683               	bsf	3,5	;RP0=1, select bank1
  1761     17CB  1303               	bcf	3,6	;RP1=0, select bank1
  1762     17CC  00E5               	movwf	??_main^(0+128)
  1763     17CD                     u6127:
  1764     17CD  0BE5               	decfsz	??_main^(0+128),f
  1765     17CE  2FCD               	goto	u6127
  1766     17CF  2FD0               	nop2
  1767     17D0                     l3620:
  1768                           
  1769                           ;PROY3FINAL.c: 164:         ESP_SendToThingSpeak(d);
  1770     17D0  1683               	bsf	3,5	;RP0=1, select bank3
  1771     17D1  1703               	bsf	3,6	;RP1=1, select bank3
  1772     17D2  0831               	movf	(main@d+3)^(0+384),w
  1773     17D3  1683               	bsf	3,5	;RP0=1, select bank1
  1774     17D4  1303               	bcf	3,6	;RP1=0, select bank1
  1775     17D5  00DC               	movwf	(ESP_SendToThingSpeak@distance+3)^(0+128)
  1776     17D6  1683               	bsf	3,5	;RP0=1, select bank3
  1777     17D7  1703               	bsf	3,6	;RP1=1, select bank3
  1778     17D8  0830               	movf	(main@d+2)^(0+384),w
  1779     17D9  1683               	bsf	3,5	;RP0=1, select bank1
  1780     17DA  1303               	bcf	3,6	;RP1=0, select bank1
  1781     17DB  00DB               	movwf	(ESP_SendToThingSpeak@distance+2)^(0+128)
  1782     17DC  1683               	bsf	3,5	;RP0=1, select bank3
  1783     17DD  1703               	bsf	3,6	;RP1=1, select bank3
  1784     17DE  082F               	movf	(main@d+1)^(0+384),w
  1785     17DF  1683               	bsf	3,5	;RP0=1, select bank1
  1786     17E0  1303               	bcf	3,6	;RP1=0, select bank1
  1787     17E1  00DA               	movwf	(ESP_SendToThingSpeak@distance+1)^(0+128)
  1788     17E2  1683               	bsf	3,5	;RP0=1, select bank3
  1789     17E3  1703               	bsf	3,6	;RP1=1, select bank3
  1790     17E4  082E               	movf	main@d^(0+384),w
  1791     17E5  1683               	bsf	3,5	;RP0=1, select bank1
  1792     17E6  1303               	bcf	3,6	;RP1=0, select bank1
  1793     17E7  00D9               	movwf	ESP_SendToThingSpeak@distance^(0+128)
  1794     17E8  160A  118A  253C  160A  118A  	fcall	_ESP_SendToThingSpeak
  1795     17ED                     l3622:
  1796                           
  1797                           ;PROY3FINAL.c: 165:         _delay((unsigned long)((15000)*(8000000/4000.0)));
  1798     17ED  3099               	movlw	153
  1799     17EE  1683               	bsf	3,5	;RP0=1, select bank1
  1800     17EF  1303               	bcf	3,6	;RP1=0, select bank1
  1801     17F0  00E7               	movwf	(??_main^(0+128)+2)
  1802     17F1  3031               	movlw	49
  1803     17F2  00E6               	movwf	(??_main^(0+128)+1)
  1804     17F3  30A1               	movlw	161
  1805     17F4  00E5               	movwf	??_main^(0+128)
  1806     17F5                     u6137:
  1807     17F5  0BE5               	decfsz	??_main^(0+128),f
  1808     17F6  2FF5               	goto	u6137
  1809     17F7  0BE6               	decfsz	(??_main^(0+128)+1),f
  1810     17F8  2FF5               	goto	u6137
  1811     17F9  0BE7               	decfsz	(??_main^(0+128)+2),f
  1812     17FA  2FF5               	goto	u6137
  1813     17FB  2FFC               	nop2
  1814     17FC  2EB1               	goto	l3586
  1815     17FD  120A  118A  2800   	ljmp	start
  1816     1800                     __end_of_main:
  1817                           
  1818                           	psect	text1
  1819     1968                     __ptext1:	
  1820 ;; *************** function _send_trigger *****************
  1821 ;; Defined at:
  1822 ;;		line 97 in file "PROY3FINAL.c"
  1823 ;; Parameters:    Size  Location     Type
  1824 ;;		None
  1825 ;; Auto vars:     Size  Location     Type
  1826 ;;		None
  1827 ;; Return value:  Size  Location     Type
  1828 ;;                  1    wreg      void 
  1829 ;; Registers used:
  1830 ;;		wreg
  1831 ;; Tracked objects:
  1832 ;;		On entry : 0/0
  1833 ;;		On exit  : 0/0
  1834 ;;		Unchanged: 0/0
  1835 ;; Data sizes:     COMMON   BANK0   BANK1   BANK3   BANK2
  1836 ;;      Params:         0       0       0       0       0
  1837 ;;      Locals:         0       0       0       0       0
  1838 ;;      Temps:          1       0       0       0       0
  1839 ;;      Totals:         1       0       0       0       0
  1840 ;;Total ram usage:        1 bytes
  1841 ;; Hardware stack levels used: 1
  1842 ;; This function calls:
  1843 ;;		Nothing
  1844 ;; This function is called by:
  1845 ;;		_main
  1846 ;; This function uses a non-reentrant model
  1847 ;;
  1848                           
  1849     1968                     _send_trigger:	
  1850                           ;psect for function _send_trigger
  1851                           
  1852     1968                     l3478:	
  1853                           ;incstack = 0
  1854                           ; Regs used in _send_trigger: [wreg]
  1855                           
  1856     1968  1283               	bcf	3,5	;RP0=0, select bank0
  1857     1969  1303               	bcf	3,6	;RP1=0, select bank0
  1858     196A  1407               	bsf	7,0	;volatile
  1859     196B                     l3480:
  1860     196B  3006               	movlw	6
  1861     196C  00F0               	movwf	??_send_trigger
  1862     196D                     u6147:
  1863     196D  0BF0               	decfsz	??_send_trigger,f
  1864     196E  296D               	goto	u6147
  1865     196F  0000               	nop
  1866     1970                     l3482:
  1867     1970  1283               	bcf	3,5	;RP0=0, select bank0
  1868     1971  1303               	bcf	3,6	;RP1=0, select bank0
  1869     1972  1007               	bcf	7,0	;volatile
  1870     1973                     l99:
  1871     1973  0008               	return
  1872     1974                     __end_of_send_trigger:
  1873                           
  1874                           	psect	text2
  1875     1BB1                     __ptext2:	
  1876 ;; *************** function _read_echo *****************
  1877 ;; Defined at:
  1878 ;;		line 98 in file "PROY3FINAL.c"
  1879 ;; Parameters:    Size  Location     Type
  1880 ;;		None
  1881 ;; Auto vars:     Size  Location     Type
  1882 ;;  timeout         2    4[COMMON] unsigned int 
  1883 ;; Return value:  Size  Location     Type
  1884 ;;                  2    0[COMMON] unsigned int 
  1885 ;; Registers used:
  1886 ;;		wreg, status,2
  1887 ;; Tracked objects:
  1888 ;;		On entry : 0/0
  1889 ;;		On exit  : 0/0
  1890 ;;		Unchanged: 0/0
  1891 ;; Data sizes:     COMMON   BANK0   BANK1   BANK3   BANK2
  1892 ;;      Params:         2       0       0       0       0
  1893 ;;      Locals:         2       0       0       0       0
  1894 ;;      Temps:          2       0       0       0       0
  1895 ;;      Totals:         6       0       0       0       0
  1896 ;;Total ram usage:        6 bytes
  1897 ;; Hardware stack levels used: 1
  1898 ;; This function calls:
  1899 ;;		Nothing
  1900 ;; This function is called by:
  1901 ;;		_main
  1902 ;; This function uses a non-reentrant model
  1903 ;;
  1904                           
  1905     1BB1                     _read_echo:	
  1906                           ;psect for function _read_echo
  1907                           
  1908     1BB1                     l3484:	
  1909                           ;incstack = 0
  1910                           ; Regs used in _read_echo: [wreg+status,2]
  1911                           
  1912                           
  1913                           ;PROY3FINAL.c: 99:     unsigned int timeout=0;
  1914     1BB1  01F4               	clrf	read_echo@timeout
  1915     1BB2  01F5               	clrf	read_echo@timeout+1
  1916     1BB3                     l102:	
  1917                           ;PROY3FINAL.c: 100:     while (!RC1 && timeout++<30000);
  1918                           
  1919     1BB3  1283               	bcf	3,5	;RP0=0, select bank0
  1920     1BB4  1303               	bcf	3,6	;RP1=0, select bank0
  1921     1BB5  1887               	btfsc	7,1	;volatile
  1922     1BB6  2BB8               	goto	u5871
  1923     1BB7  2BB9               	goto	u5870
  1924     1BB8                     u5871:
  1925     1BB8  2BC9               	goto	l3488
  1926     1BB9                     u5870:
  1927     1BB9                     l3486:
  1928     1BB9  0875               	movf	read_echo@timeout+1,w
  1929     1BBA  00F3               	movwf	??_read_echo+1
  1930     1BBB  0874               	movf	read_echo@timeout,w
  1931     1BBC  00F2               	movwf	??_read_echo
  1932     1BBD  0AF4               	incf	read_echo@timeout,f
  1933     1BBE  1903               	skipnz
  1934     1BBF  0AF5               	incf	read_echo@timeout+1,f
  1935     1BC0  3075               	movlw	117
  1936     1BC1  0273               	subwf	??_read_echo+1,w
  1937     1BC2  3030               	movlw	48
  1938     1BC3  1903               	skipnz
  1939     1BC4  0272               	subwf	??_read_echo,w
  1940     1BC5  1C03               	skipc
  1941     1BC6  2BC8               	goto	u5881
  1942     1BC7  2BC9               	goto	u5880
  1943     1BC8                     u5881:
  1944     1BC8  2BB3               	goto	l102
  1945     1BC9                     u5880:
  1946     1BC9                     l3488:
  1947                           
  1948                           ;PROY3FINAL.c: 101:     if(timeout>=30000) return 0;
  1949     1BC9  3075               	movlw	117
  1950     1BCA  0275               	subwf	read_echo@timeout+1,w
  1951     1BCB  3030               	movlw	48
  1952     1BCC  1903               	skipnz
  1953     1BCD  0274               	subwf	read_echo@timeout,w
  1954     1BCE  1C03               	skipc
  1955     1BCF  2BD1               	goto	u5891
  1956     1BD0  2BD2               	goto	u5890
  1957     1BD1                     u5891:
  1958     1BD1  2BD5               	goto	l3494
  1959     1BD2                     u5890:
  1960     1BD2                     l3490:
  1961     1BD2  01F0               	clrf	?_read_echo
  1962     1BD3  01F1               	clrf	?_read_echo+1
  1963     1BD4  2BEC               	goto	l108
  1964     1BD5                     l3494:
  1965                           
  1966                           ;PROY3FINAL.c: 102:     TMR1=0; T1CON=0x10; TMR1ON=1;
  1967     1BD5  018E               	clrf	14	;volatile
  1968     1BD6  018F               	clrf	15	;volatile
  1969     1BD7                     l3496:
  1970     1BD7  3010               	movlw	16
  1971     1BD8  0090               	movwf	16	;volatile
  1972     1BD9                     l3498:
  1973     1BD9  1410               	bsf	16,0	;volatile
  1974     1BDA                     l109:	
  1975                           ;PROY3FINAL.c: 103:     while(RC1 && TMR1<30000);
  1976                           
  1977     1BDA  1C87               	btfss	7,1	;volatile
  1978     1BDB  2BDD               	goto	u5901
  1979     1BDC  2BDE               	goto	u5900
  1980     1BDD                     u5901:
  1981     1BDD  2BE7               	goto	l113
  1982     1BDE                     u5900:
  1983     1BDE                     l3500:
  1984     1BDE  3075               	movlw	117
  1985     1BDF  020F               	subwf	15,w	;volatile
  1986     1BE0  3030               	movlw	48
  1987     1BE1  1903               	skipnz
  1988     1BE2  020E               	subwf	14,w	;volatile
  1989     1BE3  1C03               	skipc
  1990     1BE4  2BE6               	goto	u5911
  1991     1BE5  2BE7               	goto	u5910
  1992     1BE6                     u5911:
  1993     1BE6  2BDA               	goto	l109
  1994     1BE7                     u5910:
  1995     1BE7                     l113:
  1996                           
  1997                           ;PROY3FINAL.c: 104:     TMR1ON=0; return TMR1;
  1998     1BE7  1010               	bcf	16,0	;volatile
  1999     1BE8                     l3502:
  2000     1BE8  080F               	movf	15,w	;volatile
  2001     1BE9  00F1               	movwf	?_read_echo+1
  2002     1BEA  080E               	movf	14,w	;volatile
  2003     1BEB  00F0               	movwf	?_read_echo
  2004     1BEC                     l108:
  2005     1BEC  0008               	return
  2006     1BED                     __end_of_read_echo:
  2007                           
  2008                           	psect	text3
  2009     1144                     __ptext3:	
  2010 ;; *************** function ___xxtofl *****************
  2011 ;; Defined at:
  2012 ;;		line 10 in file "C:\Program Files\Microchip\xc8\v3.00\pic\sources\c99\common\xxtofl.c"
  2013 ;; Parameters:    Size  Location     Type
  2014 ;;  sign            1    wreg     unsigned char 
  2015 ;;  val             4    0[COMMON] long 
  2016 ;; Auto vars:     Size  Location     Type
  2017 ;;  sign            1    8[COMMON] unsigned char 
  2018 ;;  arg             4   10[COMMON] unsigned long 
  2019 ;;  exp             1    9[COMMON] unsigned char 
  2020 ;; Return value:  Size  Location     Type
  2021 ;;                  4    0[COMMON] unsigned char 
  2022 ;; Registers used:
  2023 ;;		wreg, status,2, status,0
  2024 ;; Tracked objects:
  2025 ;;		On entry : 0/0
  2026 ;;		On exit  : 0/0
  2027 ;;		Unchanged: 0/0
  2028 ;; Data sizes:     COMMON   BANK0   BANK1   BANK3   BANK2
  2029 ;;      Params:         4       0       0       0       0
  2030 ;;      Locals:         6       0       0       0       0
  2031 ;;      Temps:          4       0       0       0       0
  2032 ;;      Totals:        14       0       0       0       0
  2033 ;;Total ram usage:       14 bytes
  2034 ;; Hardware stack levels used: 1
  2035 ;; This function calls:
  2036 ;;		Nothing
  2037 ;; This function is called by:
  2038 ;;		_main
  2039 ;; This function uses a non-reentrant model
  2040 ;;
  2041                           
  2042     1144                     ___xxtofl:	
  2043                           ;psect for function ___xxtofl
  2044                           
  2045                           
  2046                           ;incstack = 0
  2047                           ; Regs used in ___xxtofl: [wreg+status,2+status,0]
  2048                           ;___xxtofl@sign stored from wreg
  2049     1144  00F8               	movwf	___xxtofl@sign
  2050     1145                     l3534:
  2051     1145  0878               	movf	___xxtofl@sign,w
  2052     1146  1903               	btfsc	3,2
  2053     1147  2949               	goto	u5921
  2054     1148  294A               	goto	u5920
  2055     1149                     u5921:
  2056     1149  295E               	goto	l3540
  2057     114A                     u5920:
  2058     114A                     l3536:
  2059     114A  1FF3               	btfss	___xxtofl@val+3,7
  2060     114B  294D               	goto	u5931
  2061     114C  294E               	goto	u5930
  2062     114D                     u5931:
  2063     114D  295E               	goto	l3540
  2064     114E                     u5930:
  2065     114E                     l3538:
  2066     114E  0970               	comf	___xxtofl@val,w
  2067     114F  00FA               	movwf	___xxtofl@arg
  2068     1150  0971               	comf	___xxtofl@val+1,w
  2069     1151  00FB               	movwf	___xxtofl@arg+1
  2070     1152  0972               	comf	___xxtofl@val+2,w
  2071     1153  00FC               	movwf	___xxtofl@arg+2
  2072     1154  0973               	comf	___xxtofl@val+3,w
  2073     1155  00FD               	movwf	___xxtofl@arg+3
  2074     1156  0AFA               	incf	___xxtofl@arg,f
  2075     1157  1903               	skipnz
  2076     1158  0AFB               	incf	___xxtofl@arg+1,f
  2077     1159  1903               	skipnz
  2078     115A  0AFC               	incf	___xxtofl@arg+2,f
  2079     115B  1903               	skipnz
  2080     115C  0AFD               	incf	___xxtofl@arg+3,f
  2081     115D  2966               	goto	l682
  2082     115E                     l3540:
  2083     115E  0873               	movf	___xxtofl@val+3,w
  2084     115F  00FD               	movwf	___xxtofl@arg+3
  2085     1160  0872               	movf	___xxtofl@val+2,w
  2086     1161  00FC               	movwf	___xxtofl@arg+2
  2087     1162  0871               	movf	___xxtofl@val+1,w
  2088     1163  00FB               	movwf	___xxtofl@arg+1
  2089     1164  0870               	movf	___xxtofl@val,w
  2090     1165  00FA               	movwf	___xxtofl@arg
  2091     1166                     l682:
  2092     1166  0873               	movf	___xxtofl@val+3,w
  2093     1167  0472               	iorwf	___xxtofl@val+2,w
  2094     1168  0471               	iorwf	___xxtofl@val+1,w
  2095     1169  0470               	iorwf	___xxtofl@val,w
  2096     116A  1D03               	skipz
  2097     116B  296D               	goto	u5941
  2098     116C  296E               	goto	u5940
  2099     116D                     u5941:
  2100     116D  2977               	goto	l683
  2101     116E                     u5940:
  2102     116E                     l3542:
  2103     116E  3000               	movlw	0
  2104     116F  00F3               	movwf	?___xxtofl+3
  2105     1170  3000               	movlw	0
  2106     1171  00F2               	movwf	?___xxtofl+2
  2107     1172  3000               	movlw	0
  2108     1173  00F1               	movwf	?___xxtofl+1
  2109     1174  3000               	movlw	0
  2110     1175  00F0               	movwf	?___xxtofl
  2111     1176  29F7               	goto	l684
  2112     1177                     l683:
  2113     1177  3096               	movlw	150
  2114     1178  00F9               	movwf	___xxtofl@exp
  2115     1179  2985               	goto	l3548
  2116     117A                     l3546:
  2117     117A  3001               	movlw	1
  2118     117B  07F9               	addwf	___xxtofl@exp,f
  2119     117C  3001               	movlw	1
  2120     117D                     u5955:
  2121     117D  1003               	clrc
  2122     117E  0CFD               	rrf	___xxtofl@arg+3,f
  2123     117F  0CFC               	rrf	___xxtofl@arg+2,f
  2124     1180  0CFB               	rrf	___xxtofl@arg+1,f
  2125     1181  0CFA               	rrf	___xxtofl@arg,f
  2126     1182  3EFF               	addlw	-1
  2127     1183  1D03               	skipz
  2128     1184  297D               	goto	u5955
  2129     1185                     l3548:
  2130     1185  30FE               	movlw	254
  2131     1186  057D               	andwf	___xxtofl@arg+3,w
  2132     1187  1D03               	btfss	3,2
  2133     1188  298A               	goto	u5961
  2134     1189  298B               	goto	u5960
  2135     118A                     u5961:
  2136     118A  297A               	goto	l3546
  2137     118B                     u5960:
  2138     118B  29A5               	goto	l688
  2139     118C                     l3550:
  2140     118C  3001               	movlw	1
  2141     118D  07F9               	addwf	___xxtofl@exp,f
  2142     118E                     l3552:
  2143     118E  3001               	movlw	1
  2144     118F  07FA               	addwf	___xxtofl@arg,f
  2145     1190  3000               	movlw	0
  2146     1191  1803               	skipnc
  2147     1192  3001               	movlw	1
  2148     1193  07FB               	addwf	___xxtofl@arg+1,f
  2149     1194  3000               	movlw	0
  2150     1195  1803               	skipnc
  2151     1196  3001               	movlw	1
  2152     1197  07FC               	addwf	___xxtofl@arg+2,f
  2153     1198  3000               	movlw	0
  2154     1199  1803               	skipnc
  2155     119A  3001               	movlw	1
  2156     119B  07FD               	addwf	___xxtofl@arg+3,f
  2157     119C                     l3554:
  2158     119C  3001               	movlw	1
  2159     119D                     u5975:
  2160     119D  1003               	clrc
  2161     119E  0CFD               	rrf	___xxtofl@arg+3,f
  2162     119F  0CFC               	rrf	___xxtofl@arg+2,f
  2163     11A0  0CFB               	rrf	___xxtofl@arg+1,f
  2164     11A1  0CFA               	rrf	___xxtofl@arg,f
  2165     11A2  3EFF               	addlw	-1
  2166     11A3  1D03               	skipz
  2167     11A4  299D               	goto	u5975
  2168     11A5                     l688:
  2169     11A5  30FF               	movlw	255
  2170     11A6  057D               	andwf	___xxtofl@arg+3,w
  2171     11A7  1D03               	btfss	3,2
  2172     11A8  29AA               	goto	u5981
  2173     11A9  29AB               	goto	u5980
  2174     11AA                     u5981:
  2175     11AA  298C               	goto	l3550
  2176     11AB                     u5980:
  2177     11AB  29B7               	goto	l3558
  2178     11AC                     l3556:
  2179     11AC  3001               	movlw	1
  2180     11AD  02F9               	subwf	___xxtofl@exp,f
  2181     11AE  3001               	movlw	1
  2182     11AF  00F4               	movwf	??___xxtofl
  2183     11B0                     u5995:
  2184     11B0  1003               	clrc
  2185     11B1  0DFA               	rlf	___xxtofl@arg,f
  2186     11B2  0DFB               	rlf	___xxtofl@arg+1,f
  2187     11B3  0DFC               	rlf	___xxtofl@arg+2,f
  2188     11B4  0DFD               	rlf	___xxtofl@arg+3,f
  2189     11B5  0BF4               	decfsz	??___xxtofl,f
  2190     11B6  29B0               	goto	u5995
  2191     11B7                     l3558:
  2192     11B7  1BFC               	btfsc	___xxtofl@arg+2,7
  2193     11B8  29BA               	goto	u6001
  2194     11B9  29BB               	goto	u6000
  2195     11BA                     u6001:
  2196     11BA  29C1               	goto	l695
  2197     11BB                     u6000:
  2198     11BB                     l3560:
  2199     11BB  3002               	movlw	2
  2200     11BC  0279               	subwf	___xxtofl@exp,w
  2201     11BD  1803               	skipnc
  2202     11BE  29C0               	goto	u6011
  2203     11BF  29C1               	goto	u6010
  2204     11C0                     u6011:
  2205     11C0  29AC               	goto	l3556
  2206     11C1                     u6010:
  2207     11C1                     l695:
  2208     11C1  1879               	btfsc	___xxtofl@exp,0
  2209     11C2  29C4               	goto	u6021
  2210     11C3  29C5               	goto	u6020
  2211     11C4                     u6021:
  2212     11C4  29CD               	goto	l696
  2213     11C5                     u6020:
  2214     11C5                     l3562:
  2215     11C5  30FF               	movlw	255
  2216     11C6  05FA               	andwf	___xxtofl@arg,f
  2217     11C7  30FF               	movlw	255
  2218     11C8  05FB               	andwf	___xxtofl@arg+1,f
  2219     11C9  307F               	movlw	127
  2220     11CA  05FC               	andwf	___xxtofl@arg+2,f
  2221     11CB  30FF               	movlw	255
  2222     11CC  05FD               	andwf	___xxtofl@arg+3,f
  2223     11CD                     l696:
  2224     11CD  1003               	clrc
  2225     11CE  0CF9               	rrf	___xxtofl@exp,f
  2226     11CF                     l3564:
  2227     11CF  0879               	movf	___xxtofl@exp,w
  2228     11D0  00F4               	movwf	??___xxtofl
  2229     11D1  01F5               	clrf	??___xxtofl+1
  2230     11D2  01F6               	clrf	??___xxtofl+2
  2231     11D3  01F7               	clrf	??___xxtofl+3
  2232     11D4  3018               	movlw	24
  2233     11D5                     u6035:
  2234     11D5  1003               	clrc
  2235     11D6  0DF4               	rlf	??___xxtofl,f
  2236     11D7  0DF5               	rlf	??___xxtofl+1,f
  2237     11D8  0DF6               	rlf	??___xxtofl+2,f
  2238     11D9  0DF7               	rlf	??___xxtofl+3,f
  2239     11DA                     u6030:
  2240     11DA  3EFF               	addlw	-1
  2241     11DB  1D03               	skipz
  2242     11DC  29D5               	goto	u6035
  2243     11DD  0874               	movf	??___xxtofl,w
  2244     11DE  04FA               	iorwf	___xxtofl@arg,f
  2245     11DF  0875               	movf	??___xxtofl+1,w
  2246     11E0  04FB               	iorwf	___xxtofl@arg+1,f
  2247     11E1  0876               	movf	??___xxtofl+2,w
  2248     11E2  04FC               	iorwf	___xxtofl@arg+2,f
  2249     11E3  0877               	movf	??___xxtofl+3,w
  2250     11E4  04FD               	iorwf	___xxtofl@arg+3,f
  2251     11E5                     l3566:
  2252     11E5  0878               	movf	___xxtofl@sign,w
  2253     11E6  1903               	btfsc	3,2
  2254     11E7  29E9               	goto	u6041
  2255     11E8  29EA               	goto	u6040
  2256     11E9                     u6041:
  2257     11E9  29EF               	goto	l3572
  2258     11EA                     u6040:
  2259     11EA                     l3568:
  2260     11EA  1FF3               	btfss	___xxtofl@val+3,7
  2261     11EB  29ED               	goto	u6051
  2262     11EC  29EE               	goto	u6050
  2263     11ED                     u6051:
  2264     11ED  29EF               	goto	l3572
  2265     11EE                     u6050:
  2266     11EE                     l3570:
  2267     11EE  17FD               	bsf	___xxtofl@arg+3,7
  2268     11EF                     l3572:
  2269     11EF  087D               	movf	___xxtofl@arg+3,w
  2270     11F0  00F3               	movwf	?___xxtofl+3
  2271     11F1  087C               	movf	___xxtofl@arg+2,w
  2272     11F2  00F2               	movwf	?___xxtofl+2
  2273     11F3  087B               	movf	___xxtofl@arg+1,w
  2274     11F4  00F1               	movwf	?___xxtofl+1
  2275     11F5  087A               	movf	___xxtofl@arg,w
  2276     11F6  00F0               	movwf	?___xxtofl
  2277     11F7                     l684:
  2278     11F7  0008               	return
  2279     11F8                     __end_of___xxtofl:
  2280                           
  2281                           	psect	text4
  2282     1984                     __ptext4:	
  2283 ;; *************** function _UART_Init *****************
  2284 ;; Defined at:
  2285 ;;		line 108 in file "PROY3FINAL.c"
  2286 ;; Parameters:    Size  Location     Type
  2287 ;;		None
  2288 ;; Auto vars:     Size  Location     Type
  2289 ;;		None
  2290 ;; Return value:  Size  Location     Type
  2291 ;;                  1    wreg      void 
  2292 ;; Registers used:
  2293 ;;		None
  2294 ;; Tracked objects:
  2295 ;;		On entry : 0/0
  2296 ;;		On exit  : 0/0
  2297 ;;		Unchanged: 0/0
  2298 ;; Data sizes:     COMMON   BANK0   BANK1   BANK3   BANK2
  2299 ;;      Params:         0       0       0       0       0
  2300 ;;      Locals:         0       0       0       0       0
  2301 ;;      Temps:          0       0       0       0       0
  2302 ;;      Totals:         0       0       0       0       0
  2303 ;;Total ram usage:        0 bytes
  2304 ;; Hardware stack levels used: 1
  2305 ;; This function calls:
  2306 ;;		Nothing
  2307 ;; This function is called by:
  2308 ;;		_main
  2309 ;; This function uses a non-reentrant model
  2310 ;;
  2311                           
  2312     1984                     _UART_Init:	
  2313                           ;psect for function _UART_Init
  2314                           
  2315     1984                     l3506:	
  2316                           ;incstack = 0
  2317                           ; Regs used in _UART_Init: []
  2318                           
  2319                           
  2320                           ;PROY3FINAL.c: 109:     BRGH=0; SPBRG=25;
  2321     1984  1683               	bsf	3,5	;RP0=1, select bank1
  2322     1985  1303               	bcf	3,6	;RP1=0, select bank1
  2323     1986  1118               	bcf	24,2	;volatile
  2324     1987  3019               	movlw	25
  2325     1988  0099               	movwf	25	;volatile
  2326                           
  2327                           ;PROY3FINAL.c: 110:     SYNC=0; SPEN=1; TXEN=1; CREN=1;
  2328     1989  1218               	bcf	24,4	;volatile
  2329     198A  1283               	bcf	3,5	;RP0=0, select bank0
  2330     198B  1303               	bcf	3,6	;RP1=0, select bank0
  2331     198C  1798               	bsf	24,7	;volatile
  2332     198D  1683               	bsf	3,5	;RP0=1, select bank1
  2333     198E  1303               	bcf	3,6	;RP1=0, select bank1
  2334     198F  1698               	bsf	24,5	;volatile
  2335     1990  1283               	bcf	3,5	;RP0=0, select bank0
  2336     1991  1303               	bcf	3,6	;RP1=0, select bank0
  2337     1992  1618               	bsf	24,4	;volatile
  2338     1993                     l116:
  2339     1993  0008               	return
  2340     1994                     __end_of_UART_Init:
  2341                           
  2342                           	psect	text5
  2343     1A9C                     __ptext5:	
  2344 ;; *************** function _LCD_String *****************
  2345 ;; Defined at:
  2346 ;;		line 92 in file "PROY3FINAL.c"
  2347 ;; Parameters:    Size  Location     Type
  2348 ;;  str             2    3[COMMON] PTR const unsigned char 
  2349 ;;		 -> main@b(16), STR_17(14), 
  2350 ;; Auto vars:     Size  Location     Type
  2351 ;;		None
  2352 ;; Return value:  Size  Location     Type
  2353 ;;                  1    wreg      void 
  2354 ;; Registers used:
  2355 ;;		wreg, fsr0l, fsr0h, status,2, status,0, btemp+1, pclath, cstack
  2356 ;; Tracked objects:
  2357 ;;		On entry : 0/0
  2358 ;;		On exit  : 0/0
  2359 ;;		Unchanged: 0/0
  2360 ;; Data sizes:     COMMON   BANK0   BANK1   BANK3   BANK2
  2361 ;;      Params:         2       0       0       0       0
  2362 ;;      Locals:         0       0       0       0       0
  2363 ;;      Temps:          0       0       0       0       0
  2364 ;;      Totals:         2       0       0       0       0
  2365 ;;Total ram usage:        2 bytes
  2366 ;; Hardware stack levels used: 1
  2367 ;; Hardware stack levels required when called: 2
  2368 ;; This function calls:
  2369 ;;		_LCD_Char
  2370 ;; This function is called by:
  2371 ;;		_main
  2372 ;; This function uses a non-reentrant model
  2373 ;;
  2374                           
  2375     1A9C                     _LCD_String:	
  2376                           ;psect for function _LCD_String
  2377                           
  2378     1A9C                     l3458:	
  2379                           ;incstack = 0
  2380                           ; Regs used in _LCD_String: [wreg-fsr0h+status,2+status,0+btemp+1+pclath+cstack]
  2381                           
  2382     1A9C  2AB1               	goto	l3464
  2383     1A9D                     l3460:
  2384     1A9D  0874               	movf	LCD_String@str+1,w
  2385     1A9E  00FF               	movwf	btemp+1
  2386     1A9F  0873               	movf	LCD_String@str,w
  2387     1AA0  0084               	movwf	4
  2388     1AA1  160A  118A  2000  160A  158A  	fcall	stringtab
  2389     1AA6  160A  158A  2618  160A  158A  	fcall	_LCD_Char
  2390     1AAB                     l3462:
  2391     1AAB  3001               	movlw	1
  2392     1AAC  07F3               	addwf	LCD_String@str,f
  2393     1AAD  1803               	skipnc
  2394     1AAE  0AF4               	incf	LCD_String@str+1,f
  2395     1AAF  3000               	movlw	0
  2396     1AB0  07F4               	addwf	LCD_String@str+1,f
  2397     1AB1                     l3464:
  2398     1AB1  0874               	movf	LCD_String@str+1,w
  2399     1AB2  1283               	bcf	3,5	;RP0=0, select bank0
  2400     1AB3  1303               	bcf	3,6	;RP1=0, select bank0
  2401     1AB4  00FF               	movwf	btemp+1
  2402     1AB5  0873               	movf	LCD_String@str,w
  2403     1AB6  0084               	movwf	4
  2404     1AB7  160A  118A  2000  160A  158A  	fcall	stringtab
  2405     1ABC  3A00               	xorlw	0
  2406     1ABD  1D03               	skipz
  2407     1ABE  2AC0               	goto	u5851
  2408     1ABF  2AC1               	goto	u5850
  2409     1AC0                     u5851:
  2410     1AC0  2A9D               	goto	l3460
  2411     1AC1                     u5850:
  2412     1AC1                     l86:
  2413     1AC1  0008               	return
  2414     1AC2                     __end_of_LCD_String:
  2415                           
  2416                           	psect	text6
  2417     1E18                     __ptext6:	
  2418 ;; *************** function _LCD_Char *****************
  2419 ;; Defined at:
  2420 ;;		line 77 in file "PROY3FINAL.c"
  2421 ;; Parameters:    Size  Location     Type
  2422 ;;  data            1    wreg     unsigned char 
  2423 ;; Auto vars:     Size  Location     Type
  2424 ;;  data            1    2[COMMON] unsigned char 
  2425 ;; Return value:  Size  Location     Type
  2426 ;;                  1    wreg      void 
  2427 ;; Registers used:
  2428 ;;		wreg, status,2, status,0, pclath, cstack
  2429 ;; Tracked objects:
  2430 ;;		On entry : 0/0
  2431 ;;		On exit  : 0/0
  2432 ;;		Unchanged: 0/0
  2433 ;; Data sizes:     COMMON   BANK0   BANK1   BANK3   BANK2
  2434 ;;      Params:         0       0       0       0       0
  2435 ;;      Locals:         1       0       0       0       0
  2436 ;;      Temps:          2       0       0       0       0
  2437 ;;      Totals:         3       0       0       0       0
  2438 ;;Total ram usage:        3 bytes
  2439 ;; Hardware stack levels used: 1
  2440 ;; Hardware stack levels required when called: 1
  2441 ;; This function calls:
  2442 ;;		_LCD_PulseEnable
  2443 ;; This function is called by:
  2444 ;;		_LCD_String
  2445 ;; This function uses a non-reentrant model
  2446 ;;
  2447                           
  2448     1E18                     _LCD_Char:	
  2449                           ;psect for function _LCD_Char
  2450                           
  2451                           
  2452                           ;incstack = 0
  2453                           ; Regs used in _LCD_Char: [wreg+status,2+status,0+pclath+cstack]
  2454                           ;LCD_Char@data stored from wreg
  2455     1E18  00F2               	movwf	LCD_Char@data
  2456     1E19                     l3392:
  2457                           
  2458                           ;PROY3FINAL.c: 78:     RD0 = 1;
  2459     1E19  1283               	bcf	3,5	;RP0=0, select bank0
  2460     1E1A  1303               	bcf	3,6	;RP1=0, select bank0
  2461     1E1B  1408               	bsf	8,0	;volatile
  2462     1E1C                     l3394:
  2463                           
  2464                           ;PROY3FINAL.c: 79:     RD2 = (data >> 4) & 1; RD3 = (data >> 5) & 1; RD4 = (data >> 6) &
      +                           1; RD5 = (data >> 7) & 1;
  2465     1E1C  0872               	movf	LCD_Char@data,w
  2466     1E1D  00F0               	movwf	??_LCD_Char
  2467     1E1E  3004               	movlw	4
  2468     1E1F                     u5605:
  2469     1E1F  1003               	clrc
  2470     1E20  0CF0               	rrf	??_LCD_Char,f
  2471     1E21  3EFF               	addlw	-1
  2472     1E22  1D03               	skipz
  2473     1E23  2E1F               	goto	u5605
  2474     1E24  1870               	btfsc	??_LCD_Char,0
  2475     1E25  2E27               	goto	u5611
  2476     1E26  2E2B               	goto	u5610
  2477     1E27                     u5611:
  2478     1E27  1283               	bcf	3,5	;RP0=0, select bank0
  2479     1E28  1303               	bcf	3,6	;RP1=0, select bank0
  2480     1E29  1508               	bsf	8,2	;volatile
  2481     1E2A  2E2E               	goto	u5624
  2482     1E2B                     u5610:
  2483     1E2B  1283               	bcf	3,5	;RP0=0, select bank0
  2484     1E2C  1303               	bcf	3,6	;RP1=0, select bank0
  2485     1E2D  1108               	bcf	8,2	;volatile
  2486     1E2E                     u5624:
  2487     1E2E  0872               	movf	LCD_Char@data,w
  2488     1E2F  00F0               	movwf	??_LCD_Char
  2489     1E30  3005               	movlw	5
  2490     1E31                     u5635:
  2491     1E31  1003               	clrc
  2492     1E32  0CF0               	rrf	??_LCD_Char,f
  2493     1E33  3EFF               	addlw	-1
  2494     1E34  1D03               	skipz
  2495     1E35  2E31               	goto	u5635
  2496     1E36  1870               	btfsc	??_LCD_Char,0
  2497     1E37  2E39               	goto	u5641
  2498     1E38  2E3D               	goto	u5640
  2499     1E39                     u5641:
  2500     1E39  1283               	bcf	3,5	;RP0=0, select bank0
  2501     1E3A  1303               	bcf	3,6	;RP1=0, select bank0
  2502     1E3B  1588               	bsf	8,3	;volatile
  2503     1E3C  2E40               	goto	u5654
  2504     1E3D                     u5640:
  2505     1E3D  1283               	bcf	3,5	;RP0=0, select bank0
  2506     1E3E  1303               	bcf	3,6	;RP1=0, select bank0
  2507     1E3F  1188               	bcf	8,3	;volatile
  2508     1E40                     u5654:
  2509     1E40  0872               	movf	LCD_Char@data,w
  2510     1E41  00F0               	movwf	??_LCD_Char
  2511     1E42  3006               	movlw	6
  2512     1E43                     u5665:
  2513     1E43  1003               	clrc
  2514     1E44  0CF0               	rrf	??_LCD_Char,f
  2515     1E45  3EFF               	addlw	-1
  2516     1E46  1D03               	skipz
  2517     1E47  2E43               	goto	u5665
  2518     1E48  1870               	btfsc	??_LCD_Char,0
  2519     1E49  2E4B               	goto	u5671
  2520     1E4A  2E4F               	goto	u5670
  2521     1E4B                     u5671:
  2522     1E4B  1283               	bcf	3,5	;RP0=0, select bank0
  2523     1E4C  1303               	bcf	3,6	;RP1=0, select bank0
  2524     1E4D  1608               	bsf	8,4	;volatile
  2525     1E4E  2E52               	goto	u5684
  2526     1E4F                     u5670:
  2527     1E4F  1283               	bcf	3,5	;RP0=0, select bank0
  2528     1E50  1303               	bcf	3,6	;RP1=0, select bank0
  2529     1E51  1208               	bcf	8,4	;volatile
  2530     1E52                     u5684:
  2531     1E52  0872               	movf	LCD_Char@data,w
  2532     1E53  00F0               	movwf	??_LCD_Char
  2533     1E54  3007               	movlw	7
  2534     1E55                     u5695:
  2535     1E55  1003               	clrc
  2536     1E56  0CF0               	rrf	??_LCD_Char,f
  2537     1E57  3EFF               	addlw	-1
  2538     1E58  1D03               	skipz
  2539     1E59  2E55               	goto	u5695
  2540     1E5A  1870               	btfsc	??_LCD_Char,0
  2541     1E5B  2E5D               	goto	u5701
  2542     1E5C  2E61               	goto	u5700
  2543     1E5D                     u5701:
  2544     1E5D  1283               	bcf	3,5	;RP0=0, select bank0
  2545     1E5E  1303               	bcf	3,6	;RP1=0, select bank0
  2546     1E5F  1688               	bsf	8,5	;volatile
  2547     1E60  2E64               	goto	u5714
  2548     1E61                     u5700:
  2549     1E61  1283               	bcf	3,5	;RP0=0, select bank0
  2550     1E62  1303               	bcf	3,6	;RP1=0, select bank0
  2551     1E63  1288               	bcf	8,5	;volatile
  2552     1E64                     u5714:
  2553     1E64                     l3396:
  2554                           
  2555                           ;PROY3FINAL.c: 80:     LCD_PulseEnable();
  2556     1E64  160A  158A  2143  160A  158A  	fcall	_LCD_PulseEnable
  2557     1E69                     l3398:
  2558                           
  2559                           ;PROY3FINAL.c: 81:     RD2 = data & 1; RD3 = (data >> 1) & 1; RD4 = (data >> 2) & 1; RD5
      +                           = (data >> 3) & 1;
  2560     1E69  1872               	btfsc	LCD_Char@data,0
  2561     1E6A  2E6C               	goto	u5721
  2562     1E6B  2E70               	goto	u5720
  2563     1E6C                     u5721:
  2564     1E6C  1283               	bcf	3,5	;RP0=0, select bank0
  2565     1E6D  1303               	bcf	3,6	;RP1=0, select bank0
  2566     1E6E  1508               	bsf	8,2	;volatile
  2567     1E6F  2E73               	goto	u5734
  2568     1E70                     u5720:
  2569     1E70  1283               	bcf	3,5	;RP0=0, select bank0
  2570     1E71  1303               	bcf	3,6	;RP1=0, select bank0
  2571     1E72  1108               	bcf	8,2	;volatile
  2572     1E73                     u5734:
  2573     1E73                     l3400:
  2574     1E73  0872               	movf	LCD_Char@data,w
  2575     1E74  00F0               	movwf	??_LCD_Char
  2576     1E75  3001               	movlw	1
  2577     1E76                     u5745:
  2578     1E76  1003               	clrc
  2579     1E77  0CF0               	rrf	??_LCD_Char,f
  2580     1E78  3EFF               	addlw	-1
  2581     1E79  1D03               	skipz
  2582     1E7A  2E76               	goto	u5745
  2583     1E7B  1870               	btfsc	??_LCD_Char,0
  2584     1E7C  2E7E               	goto	u5751
  2585     1E7D  2E82               	goto	u5750
  2586     1E7E                     u5751:
  2587     1E7E  1283               	bcf	3,5	;RP0=0, select bank0
  2588     1E7F  1303               	bcf	3,6	;RP1=0, select bank0
  2589     1E80  1588               	bsf	8,3	;volatile
  2590     1E81  2E85               	goto	u5764
  2591     1E82                     u5750:
  2592     1E82  1283               	bcf	3,5	;RP0=0, select bank0
  2593     1E83  1303               	bcf	3,6	;RP1=0, select bank0
  2594     1E84  1188               	bcf	8,3	;volatile
  2595     1E85                     u5764:
  2596     1E85                     l3402:
  2597     1E85  0872               	movf	LCD_Char@data,w
  2598     1E86  00F0               	movwf	??_LCD_Char
  2599     1E87  3002               	movlw	2
  2600     1E88                     u5775:
  2601     1E88  1003               	clrc
  2602     1E89  0CF0               	rrf	??_LCD_Char,f
  2603     1E8A  3EFF               	addlw	-1
  2604     1E8B  1D03               	skipz
  2605     1E8C  2E88               	goto	u5775
  2606     1E8D  1870               	btfsc	??_LCD_Char,0
  2607     1E8E  2E90               	goto	u5781
  2608     1E8F  2E94               	goto	u5780
  2609     1E90                     u5781:
  2610     1E90  1283               	bcf	3,5	;RP0=0, select bank0
  2611     1E91  1303               	bcf	3,6	;RP1=0, select bank0
  2612     1E92  1608               	bsf	8,4	;volatile
  2613     1E93  2E97               	goto	u5794
  2614     1E94                     u5780:
  2615     1E94  1283               	bcf	3,5	;RP0=0, select bank0
  2616     1E95  1303               	bcf	3,6	;RP1=0, select bank0
  2617     1E96  1208               	bcf	8,4	;volatile
  2618     1E97                     u5794:
  2619     1E97                     l3404:
  2620     1E97  0872               	movf	LCD_Char@data,w
  2621     1E98  00F0               	movwf	??_LCD_Char
  2622     1E99  3003               	movlw	3
  2623     1E9A                     u5805:
  2624     1E9A  1003               	clrc
  2625     1E9B  0CF0               	rrf	??_LCD_Char,f
  2626     1E9C  3EFF               	addlw	-1
  2627     1E9D  1D03               	skipz
  2628     1E9E  2E9A               	goto	u5805
  2629     1E9F  1870               	btfsc	??_LCD_Char,0
  2630     1EA0  2EA2               	goto	u5811
  2631     1EA1  2EA6               	goto	u5810
  2632     1EA2                     u5811:
  2633     1EA2  1283               	bcf	3,5	;RP0=0, select bank0
  2634     1EA3  1303               	bcf	3,6	;RP1=0, select bank0
  2635     1EA4  1688               	bsf	8,5	;volatile
  2636     1EA5  2EA9               	goto	u5824
  2637     1EA6                     u5810:
  2638     1EA6  1283               	bcf	3,5	;RP0=0, select bank0
  2639     1EA7  1303               	bcf	3,6	;RP1=0, select bank0
  2640     1EA8  1288               	bcf	8,5	;volatile
  2641     1EA9                     u5824:
  2642                           
  2643                           ;PROY3FINAL.c: 82:     LCD_PulseEnable(); _delay((unsigned long)((2)*(8000000/4000.0)));
  2644     1EA9  160A  158A  2143  160A  158A  	fcall	_LCD_PulseEnable
  2645     1EAE                     l3406:
  2646     1EAE  3006               	movlw	6
  2647     1EAF  00F1               	movwf	??_LCD_Char+1
  2648     1EB0  3030               	movlw	48
  2649     1EB1  00F0               	movwf	??_LCD_Char
  2650     1EB2                     u6157:
  2651     1EB2  0BF0               	decfsz	??_LCD_Char,f
  2652     1EB3  2EB2               	goto	u6157
  2653     1EB4  0BF1               	decfsz	??_LCD_Char+1,f
  2654     1EB5  2EB2               	goto	u6157
  2655     1EB6  0000               	nop
  2656     1EB7                     l77:
  2657     1EB7  0008               	return
  2658     1EB8                     __end_of_LCD_Char:
  2659                           
  2660                           	psect	text7
  2661     1994                     __ptext7:	
  2662 ;; *************** function _LCD_Set_Cursor *****************
  2663 ;; Defined at:
  2664 ;;		line 93 in file "PROY3FINAL.c"
  2665 ;; Parameters:    Size  Location     Type
  2666 ;;  row             1    wreg     unsigned char 
  2667 ;;  col             1    3[COMMON] unsigned char 
  2668 ;; Auto vars:     Size  Location     Type
  2669 ;;  row             1    4[COMMON] unsigned char 
  2670 ;; Return value:  Size  Location     Type
  2671 ;;                  1    wreg      void 
  2672 ;; Registers used:
  2673 ;;		wreg, status,2, status,0, pclath, cstack
  2674 ;; Tracked objects:
  2675 ;;		On entry : 0/0
  2676 ;;		On exit  : 0/0
  2677 ;;		Unchanged: 0/0
  2678 ;; Data sizes:     COMMON   BANK0   BANK1   BANK3   BANK2
  2679 ;;      Params:         1       0       0       0       0
  2680 ;;      Locals:         3       0       0       0       0
  2681 ;;      Temps:          0       0       0       0       0
  2682 ;;      Totals:         4       0       0       0       0
  2683 ;;Total ram usage:        4 bytes
  2684 ;; Hardware stack levels used: 1
  2685 ;; Hardware stack levels required when called: 2
  2686 ;; This function calls:
  2687 ;;		_LCD_Cmd
  2688 ;; This function is called by:
  2689 ;;		_main
  2690 ;; This function uses a non-reentrant model
  2691 ;;
  2692                           
  2693     1994                     _LCD_Set_Cursor:	
  2694                           ;psect for function _LCD_Set_Cursor
  2695                           
  2696                           
  2697                           ;incstack = 0
  2698                           ; Regs used in _LCD_Set_Cursor: [wreg+status,2+status,0+pclath+cstack]
  2699                           ;LCD_Set_Cursor@row stored from wreg
  2700     1994  00F4               	movwf	LCD_Set_Cursor@row
  2701     1995                     l3466:
  2702     1995  0374               	decf	LCD_Set_Cursor@row,w
  2703     1996  1903               	btfsc	3,2
  2704     1997  2999               	goto	u5861
  2705     1998  299A               	goto	u5860
  2706     1999                     u5861:
  2707     1999  299F               	goto	l3470
  2708     199A                     u5860:
  2709     199A                     l3468:
  2710     199A  30C0               	movlw	192
  2711     199B  00F5               	movwf	_LCD_Set_Cursor$84
  2712     199C  3000               	movlw	0
  2713     199D  00F6               	movwf	_LCD_Set_Cursor$84+1
  2714     199E  29A3               	goto	l3472
  2715     199F                     l3470:
  2716     199F  3080               	movlw	128
  2717     19A0  00F5               	movwf	_LCD_Set_Cursor$84
  2718     19A1  3000               	movlw	0
  2719     19A2  00F6               	movwf	_LCD_Set_Cursor$84+1
  2720     19A3                     l3472:
  2721     19A3  0875               	movf	_LCD_Set_Cursor$84,w
  2722     19A4  0773               	addwf	LCD_Set_Cursor@col,w
  2723     19A5  3EFF               	addlw	255
  2724     19A6  160A  158A  275C  160A  158A  	fcall	_LCD_Cmd
  2725     19AB                     l93:
  2726     19AB  0008               	return
  2727     19AC                     __end_of_LCD_Set_Cursor:
  2728                           
  2729                           	psect	text8
  2730     1B79                     __ptext8:	
  2731 ;; *************** function _LCD_Init *****************
  2732 ;; Defined at:
  2733 ;;		line 85 in file "PROY3FINAL.c"
  2734 ;; Parameters:    Size  Location     Type
  2735 ;;		None
  2736 ;; Auto vars:     Size  Location     Type
  2737 ;;		None
  2738 ;; Return value:  Size  Location     Type
  2739 ;;                  1    wreg      void 
  2740 ;; Registers used:
  2741 ;;		wreg, status,2, status,0, pclath, cstack
  2742 ;; Tracked objects:
  2743 ;;		On entry : 0/0
  2744 ;;		On exit  : 0/0
  2745 ;;		Unchanged: 0/0
  2746 ;; Data sizes:     COMMON   BANK0   BANK1   BANK3   BANK2
  2747 ;;      Params:         0       0       0       0       0
  2748 ;;      Locals:         0       0       0       0       0
  2749 ;;      Temps:          2       0       0       0       0
  2750 ;;      Totals:         2       0       0       0       0
  2751 ;;Total ram usage:        2 bytes
  2752 ;; Hardware stack levels used: 1
  2753 ;; Hardware stack levels required when called: 2
  2754 ;; This function calls:
  2755 ;;		_LCD_Cmd
  2756 ;; This function is called by:
  2757 ;;		_main
  2758 ;; This function uses a non-reentrant model
  2759 ;;
  2760                           
  2761     1B79                     _LCD_Init:	
  2762                           ;psect for function _LCD_Init
  2763                           
  2764     1B79                     l3440:	
  2765                           ;incstack = 0
  2766                           ; Regs used in _LCD_Init: [wreg+status,2+status,0+pclath+cstack]
  2767                           
  2768                           
  2769                           ;PROY3FINAL.c: 86:     TRISD = 0x00; RD0 = RD1 = 0;
  2770     1B79  1683               	bsf	3,5	;RP0=1, select bank1
  2771     1B7A  1303               	bcf	3,6	;RP1=0, select bank1
  2772     1B7B  0188               	clrf	8	;volatile
  2773     1B7C                     l3442:
  2774     1B7C  1283               	bcf	3,5	;RP0=0, select bank0
  2775     1B7D  1303               	bcf	3,6	;RP1=0, select bank0
  2776     1B7E  1088               	bcf	8,1	;volatile
  2777     1B7F  1008               	bcf	8,0	;volatile
  2778     1B80                     l3444:
  2779                           
  2780                           ;PROY3FINAL.c: 87:     _delay((unsigned long)((20)*(8000000/4000.0)));
  2781     1B80  3034               	movlw	52
  2782     1B81  00F4               	movwf	??_LCD_Init+1
  2783     1B82  30F1               	movlw	241
  2784     1B83  00F3               	movwf	??_LCD_Init
  2785     1B84                     u6167:
  2786     1B84  0BF3               	decfsz	??_LCD_Init,f
  2787     1B85  2B84               	goto	u6167
  2788     1B86  0BF4               	decfsz	??_LCD_Init+1,f
  2789     1B87  2B84               	goto	u6167
  2790     1B88  2B89               	nop2
  2791     1B89                     l3446:
  2792                           
  2793                           ;PROY3FINAL.c: 88:     LCD_Cmd(0x02); LCD_Cmd(0x28); LCD_Cmd(0x0C); LCD_Cmd(0x06); LCD_C
      +                          md(0x01);
  2794     1B89  3002               	movlw	2
  2795     1B8A  160A  158A  275C  160A  158A  	fcall	_LCD_Cmd
  2796     1B8F                     l3448:
  2797     1B8F  3028               	movlw	40
  2798     1B90  160A  158A  275C  160A  158A  	fcall	_LCD_Cmd
  2799     1B95                     l3450:
  2800     1B95  300C               	movlw	12
  2801     1B96  160A  158A  275C  160A  158A  	fcall	_LCD_Cmd
  2802     1B9B                     l3452:
  2803     1B9B  3006               	movlw	6
  2804     1B9C  160A  158A  275C  160A  158A  	fcall	_LCD_Cmd
  2805     1BA1                     l3454:
  2806     1BA1  3001               	movlw	1
  2807     1BA2  160A  158A  275C  160A  158A  	fcall	_LCD_Cmd
  2808     1BA7                     l3456:
  2809                           
  2810                           ;PROY3FINAL.c: 89:     _delay((unsigned long)((2)*(8000000/4000.0)));
  2811     1BA7  3006               	movlw	6
  2812     1BA8  00F4               	movwf	??_LCD_Init+1
  2813     1BA9  3030               	movlw	48
  2814     1BAA  00F3               	movwf	??_LCD_Init
  2815     1BAB                     u6177:
  2816     1BAB  0BF3               	decfsz	??_LCD_Init,f
  2817     1BAC  2BAB               	goto	u6177
  2818     1BAD  0BF4               	decfsz	??_LCD_Init+1,f
  2819     1BAE  2BAB               	goto	u6177
  2820     1BAF  0000               	nop
  2821     1BB0                     l80:
  2822     1BB0  0008               	return
  2823     1BB1                     __end_of_LCD_Init:
  2824                           
  2825                           	psect	text9
  2826     1974                     __ptext9:	
  2827 ;; *************** function _LCD_Clear *****************
  2828 ;; Defined at:
  2829 ;;		line 94 in file "PROY3FINAL.c"
  2830 ;; Parameters:    Size  Location     Type
  2831 ;;		None
  2832 ;; Auto vars:     Size  Location     Type
  2833 ;;		None
  2834 ;; Return value:  Size  Location     Type
  2835 ;;                  1    wreg      void 
  2836 ;; Registers used:
  2837 ;;		wreg, status,2, status,0, pclath, cstack
  2838 ;; Tracked objects:
  2839 ;;		On entry : 0/0
  2840 ;;		On exit  : 0/0
  2841 ;;		Unchanged: 0/0
  2842 ;; Data sizes:     COMMON   BANK0   BANK1   BANK3   BANK2
  2843 ;;      Params:         0       0       0       0       0
  2844 ;;      Locals:         0       0       0       0       0
  2845 ;;      Temps:          2       0       0       0       0
  2846 ;;      Totals:         2       0       0       0       0
  2847 ;;Total ram usage:        2 bytes
  2848 ;; Hardware stack levels used: 1
  2849 ;; Hardware stack levels required when called: 2
  2850 ;; This function calls:
  2851 ;;		_LCD_Cmd
  2852 ;; This function is called by:
  2853 ;;		_main
  2854 ;; This function uses a non-reentrant model
  2855 ;;
  2856                           
  2857     1974                     _LCD_Clear:	
  2858                           ;psect for function _LCD_Clear
  2859                           
  2860     1974                     l3474:	
  2861                           ;incstack = 0
  2862                           ; Regs used in _LCD_Clear: [wreg+status,2+status,0+pclath+cstack]
  2863                           
  2864     1974  3001               	movlw	1
  2865     1975  160A  158A  275C  160A  158A  	fcall	_LCD_Cmd
  2866     197A                     l3476:
  2867     197A  3006               	movlw	6
  2868     197B  00F4               	movwf	??_LCD_Clear+1
  2869     197C  3030               	movlw	48
  2870     197D  00F3               	movwf	??_LCD_Clear
  2871     197E                     u6187:
  2872     197E  0BF3               	decfsz	??_LCD_Clear,f
  2873     197F  297E               	goto	u6187
  2874     1980  0BF4               	decfsz	??_LCD_Clear+1,f
  2875     1981  297E               	goto	u6187
  2876     1982  0000               	nop
  2877     1983                     l96:
  2878     1983  0008               	return
  2879     1984                     __end_of_LCD_Clear:
  2880                           
  2881                           	psect	text10
  2882     1F5C                     __ptext10:	
  2883 ;; *************** function _LCD_Cmd *****************
  2884 ;; Defined at:
  2885 ;;		line 69 in file "PROY3FINAL.c"
  2886 ;; Parameters:    Size  Location     Type
  2887 ;;  cmd             1    wreg     unsigned char 
  2888 ;; Auto vars:     Size  Location     Type
  2889 ;;  cmd             1    2[COMMON] unsigned char 
  2890 ;; Return value:  Size  Location     Type
  2891 ;;                  1    wreg      void 
  2892 ;; Registers used:
  2893 ;;		wreg, status,2, status,0, pclath, cstack
  2894 ;; Tracked objects:
  2895 ;;		On entry : 0/0
  2896 ;;		On exit  : 0/0
  2897 ;;		Unchanged: 0/0
  2898 ;; Data sizes:     COMMON   BANK0   BANK1   BANK3   BANK2
  2899 ;;      Params:         0       0       0       0       0
  2900 ;;      Locals:         1       0       0       0       0
  2901 ;;      Temps:          2       0       0       0       0
  2902 ;;      Totals:         3       0       0       0       0
  2903 ;;Total ram usage:        3 bytes
  2904 ;; Hardware stack levels used: 1
  2905 ;; Hardware stack levels required when called: 1
  2906 ;; This function calls:
  2907 ;;		_LCD_PulseEnable
  2908 ;; This function is called by:
  2909 ;;		_LCD_Init
  2910 ;;		_LCD_Set_Cursor
  2911 ;;		_LCD_Clear
  2912 ;; This function uses a non-reentrant model
  2913 ;;
  2914                           
  2915     1F5C                     _LCD_Cmd:	
  2916                           ;psect for function _LCD_Cmd
  2917                           
  2918                           
  2919                           ;incstack = 0
  2920                           ; Regs used in _LCD_Cmd: [wreg+status,2+status,0+pclath+cstack]
  2921                           ;LCD_Cmd@cmd stored from wreg
  2922     1F5C  00F2               	movwf	LCD_Cmd@cmd
  2923     1F5D                     l3374:
  2924                           
  2925                           ;PROY3FINAL.c: 70:     RD0 = 0;
  2926     1F5D  1283               	bcf	3,5	;RP0=0, select bank0
  2927     1F5E  1303               	bcf	3,6	;RP1=0, select bank0
  2928     1F5F  1008               	bcf	8,0	;volatile
  2929     1F60                     l3376:
  2930                           
  2931                           ;PROY3FINAL.c: 71:     RD2 = (cmd >> 4) & 1; RD3 = (cmd >> 5) & 1; RD4 = (cmd >> 6) & 1;
      +                           RD5 = (cmd >> 7) & 1;
  2932     1F60  0872               	movf	LCD_Cmd@cmd,w
  2933     1F61  00F0               	movwf	??_LCD_Cmd
  2934     1F62  3004               	movlw	4
  2935     1F63                     u5375:
  2936     1F63  1003               	clrc
  2937     1F64  0CF0               	rrf	??_LCD_Cmd,f
  2938     1F65  3EFF               	addlw	-1
  2939     1F66  1D03               	skipz
  2940     1F67  2F63               	goto	u5375
  2941     1F68  1870               	btfsc	??_LCD_Cmd,0
  2942     1F69  2F6B               	goto	u5381
  2943     1F6A  2F6F               	goto	u5380
  2944     1F6B                     u5381:
  2945     1F6B  1283               	bcf	3,5	;RP0=0, select bank0
  2946     1F6C  1303               	bcf	3,6	;RP1=0, select bank0
  2947     1F6D  1508               	bsf	8,2	;volatile
  2948     1F6E  2F72               	goto	u5394
  2949     1F6F                     u5380:
  2950     1F6F  1283               	bcf	3,5	;RP0=0, select bank0
  2951     1F70  1303               	bcf	3,6	;RP1=0, select bank0
  2952     1F71  1108               	bcf	8,2	;volatile
  2953     1F72                     u5394:
  2954     1F72  0872               	movf	LCD_Cmd@cmd,w
  2955     1F73  00F0               	movwf	??_LCD_Cmd
  2956     1F74  3005               	movlw	5
  2957     1F75                     u5405:
  2958     1F75  1003               	clrc
  2959     1F76  0CF0               	rrf	??_LCD_Cmd,f
  2960     1F77  3EFF               	addlw	-1
  2961     1F78  1D03               	skipz
  2962     1F79  2F75               	goto	u5405
  2963     1F7A  1870               	btfsc	??_LCD_Cmd,0
  2964     1F7B  2F7D               	goto	u5411
  2965     1F7C  2F81               	goto	u5410
  2966     1F7D                     u5411:
  2967     1F7D  1283               	bcf	3,5	;RP0=0, select bank0
  2968     1F7E  1303               	bcf	3,6	;RP1=0, select bank0
  2969     1F7F  1588               	bsf	8,3	;volatile
  2970     1F80  2F84               	goto	u5424
  2971     1F81                     u5410:
  2972     1F81  1283               	bcf	3,5	;RP0=0, select bank0
  2973     1F82  1303               	bcf	3,6	;RP1=0, select bank0
  2974     1F83  1188               	bcf	8,3	;volatile
  2975     1F84                     u5424:
  2976     1F84  0872               	movf	LCD_Cmd@cmd,w
  2977     1F85  00F0               	movwf	??_LCD_Cmd
  2978     1F86  3006               	movlw	6
  2979     1F87                     u5435:
  2980     1F87  1003               	clrc
  2981     1F88  0CF0               	rrf	??_LCD_Cmd,f
  2982     1F89  3EFF               	addlw	-1
  2983     1F8A  1D03               	skipz
  2984     1F8B  2F87               	goto	u5435
  2985     1F8C  1870               	btfsc	??_LCD_Cmd,0
  2986     1F8D  2F8F               	goto	u5441
  2987     1F8E  2F93               	goto	u5440
  2988     1F8F                     u5441:
  2989     1F8F  1283               	bcf	3,5	;RP0=0, select bank0
  2990     1F90  1303               	bcf	3,6	;RP1=0, select bank0
  2991     1F91  1608               	bsf	8,4	;volatile
  2992     1F92  2F96               	goto	u5454
  2993     1F93                     u5440:
  2994     1F93  1283               	bcf	3,5	;RP0=0, select bank0
  2995     1F94  1303               	bcf	3,6	;RP1=0, select bank0
  2996     1F95  1208               	bcf	8,4	;volatile
  2997     1F96                     u5454:
  2998     1F96  0872               	movf	LCD_Cmd@cmd,w
  2999     1F97  00F0               	movwf	??_LCD_Cmd
  3000     1F98  3007               	movlw	7
  3001     1F99                     u5465:
  3002     1F99  1003               	clrc
  3003     1F9A  0CF0               	rrf	??_LCD_Cmd,f
  3004     1F9B  3EFF               	addlw	-1
  3005     1F9C  1D03               	skipz
  3006     1F9D  2F99               	goto	u5465
  3007     1F9E  1870               	btfsc	??_LCD_Cmd,0
  3008     1F9F  2FA1               	goto	u5471
  3009     1FA0  2FA5               	goto	u5470
  3010     1FA1                     u5471:
  3011     1FA1  1283               	bcf	3,5	;RP0=0, select bank0
  3012     1FA2  1303               	bcf	3,6	;RP1=0, select bank0
  3013     1FA3  1688               	bsf	8,5	;volatile
  3014     1FA4  2FA8               	goto	u5484
  3015     1FA5                     u5470:
  3016     1FA5  1283               	bcf	3,5	;RP0=0, select bank0
  3017     1FA6  1303               	bcf	3,6	;RP1=0, select bank0
  3018     1FA7  1288               	bcf	8,5	;volatile
  3019     1FA8                     u5484:
  3020     1FA8                     l3378:
  3021                           
  3022                           ;PROY3FINAL.c: 72:     LCD_PulseEnable(); _delay((unsigned long)((200)*(8000000/4000000.
      +                          0)));
  3023     1FA8  160A  158A  2143  160A  158A  	fcall	_LCD_PulseEnable
  3024     1FAD                     l3380:
  3025     1FAD  3085               	movlw	133
  3026     1FAE  00F0               	movwf	??_LCD_Cmd
  3027     1FAF                     u6197:
  3028     1FAF  0BF0               	decfsz	??_LCD_Cmd,f
  3029     1FB0  2FAF               	goto	u6197
  3030     1FB1                     l3382:
  3031                           
  3032                           ;PROY3FINAL.c: 73:     RD2 = cmd & 1; RD3 = (cmd >> 1) & 1; RD4 = (cmd >> 2) & 1; RD5 = 
      +                          (cmd >> 3) & 1;
  3033     1FB1  1872               	btfsc	LCD_Cmd@cmd,0
  3034     1FB2  2FB4               	goto	u5491
  3035     1FB3  2FB8               	goto	u5490
  3036     1FB4                     u5491:
  3037     1FB4  1283               	bcf	3,5	;RP0=0, select bank0
  3038     1FB5  1303               	bcf	3,6	;RP1=0, select bank0
  3039     1FB6  1508               	bsf	8,2	;volatile
  3040     1FB7  2FBB               	goto	u5504
  3041     1FB8                     u5490:
  3042     1FB8  1283               	bcf	3,5	;RP0=0, select bank0
  3043     1FB9  1303               	bcf	3,6	;RP1=0, select bank0
  3044     1FBA  1108               	bcf	8,2	;volatile
  3045     1FBB                     u5504:
  3046     1FBB                     l3384:
  3047     1FBB  0872               	movf	LCD_Cmd@cmd,w
  3048     1FBC  00F0               	movwf	??_LCD_Cmd
  3049     1FBD  3001               	movlw	1
  3050     1FBE                     u5515:
  3051     1FBE  1003               	clrc
  3052     1FBF  0CF0               	rrf	??_LCD_Cmd,f
  3053     1FC0  3EFF               	addlw	-1
  3054     1FC1  1D03               	skipz
  3055     1FC2  2FBE               	goto	u5515
  3056     1FC3  1870               	btfsc	??_LCD_Cmd,0
  3057     1FC4  2FC6               	goto	u5521
  3058     1FC5  2FCA               	goto	u5520
  3059     1FC6                     u5521:
  3060     1FC6  1283               	bcf	3,5	;RP0=0, select bank0
  3061     1FC7  1303               	bcf	3,6	;RP1=0, select bank0
  3062     1FC8  1588               	bsf	8,3	;volatile
  3063     1FC9  2FCD               	goto	u5534
  3064     1FCA                     u5520:
  3065     1FCA  1283               	bcf	3,5	;RP0=0, select bank0
  3066     1FCB  1303               	bcf	3,6	;RP1=0, select bank0
  3067     1FCC  1188               	bcf	8,3	;volatile
  3068     1FCD                     u5534:
  3069     1FCD                     l3386:
  3070     1FCD  0872               	movf	LCD_Cmd@cmd,w
  3071     1FCE  00F0               	movwf	??_LCD_Cmd
  3072     1FCF  3002               	movlw	2
  3073     1FD0                     u5545:
  3074     1FD0  1003               	clrc
  3075     1FD1  0CF0               	rrf	??_LCD_Cmd,f
  3076     1FD2  3EFF               	addlw	-1
  3077     1FD3  1D03               	skipz
  3078     1FD4  2FD0               	goto	u5545
  3079     1FD5  1870               	btfsc	??_LCD_Cmd,0
  3080     1FD6  2FD8               	goto	u5551
  3081     1FD7  2FDC               	goto	u5550
  3082     1FD8                     u5551:
  3083     1FD8  1283               	bcf	3,5	;RP0=0, select bank0
  3084     1FD9  1303               	bcf	3,6	;RP1=0, select bank0
  3085     1FDA  1608               	bsf	8,4	;volatile
  3086     1FDB  2FDF               	goto	u5564
  3087     1FDC                     u5550:
  3088     1FDC  1283               	bcf	3,5	;RP0=0, select bank0
  3089     1FDD  1303               	bcf	3,6	;RP1=0, select bank0
  3090     1FDE  1208               	bcf	8,4	;volatile
  3091     1FDF                     u5564:
  3092     1FDF                     l3388:
  3093     1FDF  0872               	movf	LCD_Cmd@cmd,w
  3094     1FE0  00F0               	movwf	??_LCD_Cmd
  3095     1FE1  3003               	movlw	3
  3096     1FE2                     u5575:
  3097     1FE2  1003               	clrc
  3098     1FE3  0CF0               	rrf	??_LCD_Cmd,f
  3099     1FE4  3EFF               	addlw	-1
  3100     1FE5  1D03               	skipz
  3101     1FE6  2FE2               	goto	u5575
  3102     1FE7  1870               	btfsc	??_LCD_Cmd,0
  3103     1FE8  2FEA               	goto	u5581
  3104     1FE9  2FEE               	goto	u5580
  3105     1FEA                     u5581:
  3106     1FEA  1283               	bcf	3,5	;RP0=0, select bank0
  3107     1FEB  1303               	bcf	3,6	;RP1=0, select bank0
  3108     1FEC  1688               	bsf	8,5	;volatile
  3109     1FED  2FF1               	goto	u5594
  3110     1FEE                     u5580:
  3111     1FEE  1283               	bcf	3,5	;RP0=0, select bank0
  3112     1FEF  1303               	bcf	3,6	;RP1=0, select bank0
  3113     1FF0  1288               	bcf	8,5	;volatile
  3114     1FF1                     u5594:
  3115     1FF1                     l3390:
  3116                           
  3117                           ;PROY3FINAL.c: 74:     LCD_PulseEnable(); _delay((unsigned long)((2)*(8000000/4000.0)));
  3118     1FF1  160A  158A  2143  160A  158A  	fcall	_LCD_PulseEnable
  3119     1FF6  3006               	movlw	6
  3120     1FF7  00F1               	movwf	??_LCD_Cmd+1
  3121     1FF8  3030               	movlw	48
  3122     1FF9  00F0               	movwf	??_LCD_Cmd
  3123     1FFA                     u6207:
  3124     1FFA  0BF0               	decfsz	??_LCD_Cmd,f
  3125     1FFB  2FFA               	goto	u6207
  3126     1FFC  0BF1               	decfsz	??_LCD_Cmd+1,f
  3127     1FFD  2FFA               	goto	u6207
  3128     1FFE  0000               	nop
  3129     1FFF                     l74:
  3130     1FFF  0008               	return
  3131     2000                     __end_of_LCD_Cmd:
  3132                           
  3133                           	psect	text11
  3134     1943                     __ptext11:	
  3135 ;; *************** function _LCD_PulseEnable *****************
  3136 ;; Defined at:
  3137 ;;		line 65 in file "PROY3FINAL.c"
  3138 ;; Parameters:    Size  Location     Type
  3139 ;;		None
  3140 ;; Auto vars:     Size  Location     Type
  3141 ;;		None
  3142 ;; Return value:  Size  Location     Type
  3143 ;;                  1    wreg      void 
  3144 ;; Registers used:
  3145 ;;		None
  3146 ;; Tracked objects:
  3147 ;;		On entry : 0/0
  3148 ;;		On exit  : 0/0
  3149 ;;		Unchanged: 0/0
  3150 ;; Data sizes:     COMMON   BANK0   BANK1   BANK3   BANK2
  3151 ;;      Params:         0       0       0       0       0
  3152 ;;      Locals:         0       0       0       0       0
  3153 ;;      Temps:          0       0       0       0       0
  3154 ;;      Totals:         0       0       0       0       0
  3155 ;;Total ram usage:        0 bytes
  3156 ;; Hardware stack levels used: 1
  3157 ;; This function calls:
  3158 ;;		Nothing
  3159 ;; This function is called by:
  3160 ;;		_LCD_Cmd
  3161 ;;		_LCD_Char
  3162 ;; This function uses a non-reentrant model
  3163 ;;
  3164                           
  3165     1943                     _LCD_PulseEnable:	
  3166                           ;psect for function _LCD_PulseEnable
  3167                           
  3168     1943                     l3358:	
  3169                           ;incstack = 0
  3170                           ; Regs used in _LCD_PulseEnable: []
  3171                           
  3172                           
  3173                           ;PROY3FINAL.c: 66:     RD1 = 1; _delay((unsigned long)((1)*(8000000/4000000.0))); RD1 = 
      +                          0;
  3174     1943  1283               	bcf	3,5	;RP0=0, select bank0
  3175     1944  1303               	bcf	3,6	;RP1=0, select bank0
  3176     1945  1488               	bsf	8,1	;volatile
  3177     1946  2947               	nop2	;2 cycle nop
  3178     1947  1283               	bcf	3,5	;RP0=0, select bank0
  3179     1948  1303               	bcf	3,6	;RP1=0, select bank0
  3180     1949  1088               	bcf	8,1	;volatile
  3181     194A                     l71:
  3182     194A  0008               	return
  3183     194B                     __end_of_LCD_PulseEnable:
  3184                           
  3185                           	psect	text12
  3186     153C                     __ptext12:	
  3187 ;; *************** function _ESP_SendToThingSpeak *****************
  3188 ;; Defined at:
  3189 ;;		line 118 in file "PROY3FINAL.c"
  3190 ;; Parameters:    Size  Location     Type
  3191 ;;  distance        4   57[BANK1 ] float 
  3192 ;; Auto vars:     Size  Location     Type
  3193 ;;  num            10    0[BANK3 ] unsigned char [10]
  3194 ;;  len             2   10[BANK3 ] unsigned int 
  3195 ;; Return value:  Size  Location     Type
  3196 ;;                  1    wreg      void 
  3197 ;; Registers used:
  3198 ;;		wreg, fsr0l, fsr0h, status,2, status,0, btemp+1, pclath, cstack
  3199 ;; Tracked objects:
  3200 ;;		On entry : 0/0
  3201 ;;		On exit  : 0/0
  3202 ;;		Unchanged: 0/0
  3203 ;; Data sizes:     COMMON   BANK0   BANK1   BANK3   BANK2
  3204 ;;      Params:         0       0       4       0       0
  3205 ;;      Locals:         0       0       0      12       0
  3206 ;;      Temps:          0       0       8       0       0
  3207 ;;      Totals:         0       0      12      12       0
  3208 ;;Total ram usage:       24 bytes
  3209 ;; Hardware stack levels used: 1
  3210 ;; Hardware stack levels required when called: 8
  3211 ;; This function calls:
  3212 ;;		_UART_WriteString
  3213 ;;		_sprintf
  3214 ;;		_strlen
  3215 ;; This function is called by:
  3216 ;;		_main
  3217 ;; This function uses a non-reentrant model
  3218 ;;
  3219                           
  3220     153C                     _ESP_SendToThingSpeak:	
  3221                           ;psect for function _ESP_SendToThingSpeak
  3222                           
  3223     153C                     l3508:	
  3224                           ;incstack = 0
  3225 ;; hardware stack exceeded
  3226                           ; Regs used in _ESP_SendToThingSpeak: [wreg-fsr0h+status,2+status,0+btemp+1+pclath+cstac
      +                          k]
  3227                           
  3228                           
  3229                           ;PROY3FINAL.c: 119:     char num[10]; unsigned int len;;PROY3FINAL.c: 120:     UART_Writ
      +                          eString("AT+CWMODE=1\r\n"); _delay((unsigned long)((500)*(8000000/4000.0)));
  3230     153C  3071               	movlw	(low ((STR_1-__stringbase)| (0+32768)))& (0+255)
  3231     153D  00F1               	movwf	UART_WriteString@s
  3232     153E  3080               	movlw	128
  3233     153F  00F2               	movwf	UART_WriteString@s+1
  3234     1540  160A  158A  2276  160A  118A  	fcall	_UART_WriteString
  3235     1545                     l3510:
  3236     1545  3006               	movlw	6
  3237     1546  1683               	bsf	3,5	;RP0=1, select bank1
  3238     1547  1303               	bcf	3,6	;RP1=0, select bank1
  3239     1548  00DF               	movwf	(??_ESP_SendToThingSpeak^(0+128)+2)
  3240     1549  3013               	movlw	19
  3241     154A  00DE               	movwf	(??_ESP_SendToThingSpeak^(0+128)+1)
  3242     154B  30AD               	movlw	173
  3243     154C  00DD               	movwf	??_ESP_SendToThingSpeak^(0+128)
  3244     154D                     u6217:
  3245     154D  0BDD               	decfsz	??_ESP_SendToThingSpeak^(0+128),f
  3246     154E  2D4D               	goto	u6217
  3247     154F  0BDE               	decfsz	(??_ESP_SendToThingSpeak^(0+128)+1),f
  3248     1550  2D4D               	goto	u6217
  3249     1551  0BDF               	decfsz	(??_ESP_SendToThingSpeak^(0+128)+2),f
  3250     1552  2D4D               	goto	u6217
  3251     1553                     l3512:
  3252                           
  3253                           ;PROY3FINAL.c: 121:     UART_WriteString("AT+CWJAP=\"TuSSID\",\"TuPASS\"\r\n"); _delay((
      +                          unsigned long)((5000)*(8000000/4000.0)));
  3254     1553  302D               	movlw	(low ((STR_2-__stringbase)| (0+32768)))& (0+255)
  3255     1554  00F1               	movwf	UART_WriteString@s
  3256     1555  3080               	movlw	128
  3257     1556  00F2               	movwf	UART_WriteString@s+1
  3258     1557  160A  158A  2276  160A  118A  	fcall	_UART_WriteString
  3259     155C  3033               	movlw	51
  3260     155D  1683               	bsf	3,5	;RP0=1, select bank1
  3261     155E  1303               	bcf	3,6	;RP1=0, select bank1
  3262     155F  00DF               	movwf	(??_ESP_SendToThingSpeak^(0+128)+2)
  3263     1560  30BB               	movlw	187
  3264     1561  00DE               	movwf	(??_ESP_SendToThingSpeak^(0+128)+1)
  3265     1562  30DF               	movlw	223
  3266     1563  00DD               	movwf	??_ESP_SendToThingSpeak^(0+128)
  3267     1564                     u6227:
  3268     1564  0BDD               	decfsz	??_ESP_SendToThingSpeak^(0+128),f
  3269     1565  2D64               	goto	u6227
  3270     1566  0BDE               	decfsz	(??_ESP_SendToThingSpeak^(0+128)+1),f
  3271     1567  2D64               	goto	u6227
  3272     1568  0BDF               	decfsz	(??_ESP_SendToThingSpeak^(0+128)+2),f
  3273     1569  2D64               	goto	u6227
  3274     156A                     l3514:
  3275                           
  3276                           ;PROY3FINAL.c: 122:     UART_WriteString("AT+CIPSTART=\"TCP\",\"api.thingspeak.com\",80\
      +                          r\n"); _delay((unsigned long)((2000)*(8000000/4000.0)));
  3277     156A  3001               	movlw	(low ((STR_3-__stringbase)| (0+32768)))& (0+255)
  3278     156B  00F1               	movwf	UART_WriteString@s
  3279     156C  3080               	movlw	128
  3280     156D  00F2               	movwf	UART_WriteString@s+1
  3281     156E  160A  158A  2276  160A  118A  	fcall	_UART_WriteString
  3282     1573                     l3516:
  3283     1573  3015               	movlw	21
  3284     1574  1683               	bsf	3,5	;RP0=1, select bank1
  3285     1575  1303               	bcf	3,6	;RP1=0, select bank1
  3286     1576  00DF               	movwf	(??_ESP_SendToThingSpeak^(0+128)+2)
  3287     1577  304B               	movlw	75
  3288     1578  00DE               	movwf	(??_ESP_SendToThingSpeak^(0+128)+1)
  3289     1579  30BD               	movlw	189
  3290     157A  00DD               	movwf	??_ESP_SendToThingSpeak^(0+128)
  3291     157B                     u6237:
  3292     157B  0BDD               	decfsz	??_ESP_SendToThingSpeak^(0+128),f
  3293     157C  2D7B               	goto	u6237
  3294     157D  0BDE               	decfsz	(??_ESP_SendToThingSpeak^(0+128)+1),f
  3295     157E  2D7B               	goto	u6237
  3296     157F  0BDF               	decfsz	(??_ESP_SendToThingSpeak^(0+128)+2),f
  3297     1580  2D7B               	goto	u6237
  3298     1581  2D82               	nop2
  3299                           
  3300                           ;PROY3FINAL.c: 125:     sprintf(num, "%.2f", distance);
  3301     1582  3090               	movlw	(low (ESP_SendToThingSpeak@num| (0+256)))& (0+255)
  3302     1583  1283               	bcf	3,5	;RP0=0, select bank0
  3303     1584  1303               	bcf	3,6	;RP1=0, select bank0
  3304     1585  00EA               	movwf	sprintf@s
  3305     1586  30BC               	movlw	(low ((STR_4-__stringbase)| (0+32768)))& (0+255)
  3306     1587  00EB               	movwf	sprintf@fmt
  3307     1588  1683               	bsf	3,5	;RP0=1, select bank1
  3308     1589  1303               	bcf	3,6	;RP1=0, select bank1
  3309     158A  085C               	movf	(ESP_SendToThingSpeak@distance+3)^(0+128),w
  3310     158B  1283               	bcf	3,5	;RP0=0, select bank0
  3311     158C  1303               	bcf	3,6	;RP1=0, select bank0
  3312     158D  00EF               	movwf	?_sprintf+5
  3313     158E  1683               	bsf	3,5	;RP0=1, select bank1
  3314     158F  1303               	bcf	3,6	;RP1=0, select bank1
  3315     1590  085B               	movf	(ESP_SendToThingSpeak@distance+2)^(0+128),w
  3316     1591  1283               	bcf	3,5	;RP0=0, select bank0
  3317     1592  1303               	bcf	3,6	;RP1=0, select bank0
  3318     1593  00EE               	movwf	?_sprintf+4
  3319     1594  1683               	bsf	3,5	;RP0=1, select bank1
  3320     1595  1303               	bcf	3,6	;RP1=0, select bank1
  3321     1596  085A               	movf	(ESP_SendToThingSpeak@distance+1)^(0+128),w
  3322     1597  1283               	bcf	3,5	;RP0=0, select bank0
  3323     1598  1303               	bcf	3,6	;RP1=0, select bank0
  3324     1599  00ED               	movwf	?_sprintf+3
  3325     159A  1683               	bsf	3,5	;RP0=1, select bank1
  3326     159B  1303               	bcf	3,6	;RP1=0, select bank1
  3327     159C  0859               	movf	ESP_SendToThingSpeak@distance^(0+128),w
  3328     159D  1283               	bcf	3,5	;RP0=0, select bank0
  3329     159E  1303               	bcf	3,6	;RP1=0, select bank0
  3330     159F  00EC               	movwf	?_sprintf+2
  3331     15A0  160A  158A  2314  160A  118A  	fcall	_sprintf
  3332                           
  3333                           ;PROY3FINAL.c: 128:     len = strlen("GET /update?api_key=") + strlen("0VKGIDGQBDYSMZEAI
      +                          ")
  3334     15A5  304A               	movlw	(low ((STR_5-__stringbase)| (0+32768)))& (0+255)
  3335     15A6  00F0               	movwf	strlen@s
  3336     15A7  3080               	movlw	128
  3337     15A8  00F1               	movwf	strlen@s+1
  3338     15A9  160A  158A  222D  160A  118A  	fcall	_strlen
  3339     15AE  0870               	movf	?_strlen,w
  3340     15AF  1683               	bsf	3,5	;RP0=1, select bank1
  3341     15B0  1303               	bcf	3,6	;RP1=0, select bank1
  3342     15B1  00DD               	movwf	??_ESP_SendToThingSpeak^(0+128)
  3343     15B2  0871               	movf	?_strlen+1,w
  3344     15B3  00DE               	movwf	(??_ESP_SendToThingSpeak^(0+128)+1)
  3345     15B4  305F               	movlw	(low ((STR_6-__stringbase)| (0+32768)))& (0+255)
  3346     15B5  00F0               	movwf	strlen@s
  3347     15B6  3080               	movlw	128
  3348     15B7  00F1               	movwf	strlen@s+1
  3349     15B8  160A  158A  222D  160A  118A  	fcall	_strlen
  3350     15BD  0870               	movf	?_strlen,w
  3351     15BE  1683               	bsf	3,5	;RP0=1, select bank1
  3352     15BF  1303               	bcf	3,6	;RP1=0, select bank1
  3353     15C0  075D               	addwf	??_ESP_SendToThingSpeak^(0+128),w
  3354     15C1  00DF               	movwf	(??_ESP_SendToThingSpeak+2)^(0+128)
  3355     15C2  0871               	movf	?_strlen+1,w
  3356     15C3  1803               	skipnc
  3357     15C4  0A71               	incf	?_strlen+1,w
  3358     15C5  075E               	addwf	(??_ESP_SendToThingSpeak+1)^(0+128),w
  3359     15C6  00E0               	movwf	(??_ESP_SendToThingSpeak+3)^(0+128)
  3360     15C7  30B3               	movlw	(low ((STR_7-__stringbase)| (0+32768)))& (0+255)
  3361     15C8  00F0               	movwf	strlen@s
  3362     15C9  3080               	movlw	128
  3363     15CA  00F1               	movwf	strlen@s+1
  3364     15CB  160A  158A  222D  160A  118A  	fcall	_strlen
  3365     15D0  0870               	movf	?_strlen,w
  3366     15D1  1683               	bsf	3,5	;RP0=1, select bank1
  3367     15D2  1303               	bcf	3,6	;RP1=0, select bank1
  3368     15D3  075F               	addwf	(??_ESP_SendToThingSpeak+2)^(0+128),w
  3369     15D4  00E1               	movwf	(??_ESP_SendToThingSpeak+4)^(0+128)
  3370     15D5  0871               	movf	?_strlen+1,w
  3371     15D6  1803               	skipnc
  3372     15D7  0A71               	incf	?_strlen+1,w
  3373     15D8  0760               	addwf	(??_ESP_SendToThingSpeak+3)^(0+128),w
  3374     15D9  00E2               	movwf	(??_ESP_SendToThingSpeak+5)^(0+128)
  3375     15DA  3090               	movlw	(low (ESP_SendToThingSpeak@num| (0+256)))& (0+255)
  3376     15DB  00F0               	movwf	strlen@s
  3377     15DC  3001               	movlw	1
  3378     15DD  00F1               	movwf	strlen@s+1
  3379     15DE  160A  158A  222D  160A  118A  	fcall	_strlen
  3380     15E3  0870               	movf	?_strlen,w
  3381     15E4  1683               	bsf	3,5	;RP0=1, select bank1
  3382     15E5  1303               	bcf	3,6	;RP1=0, select bank1
  3383     15E6  0761               	addwf	(??_ESP_SendToThingSpeak+4)^(0+128),w
  3384     15E7  00E3               	movwf	(??_ESP_SendToThingSpeak+6)^(0+128)
  3385     15E8  0871               	movf	?_strlen+1,w
  3386     15E9  1803               	skipnc
  3387     15EA  0A71               	incf	?_strlen+1,w
  3388     15EB  0762               	addwf	(??_ESP_SendToThingSpeak+5)^(0+128),w
  3389     15EC  00E4               	movwf	(??_ESP_SendToThingSpeak+7)^(0+128)
  3390     15ED  3047               	movlw	(low (((STR_2+26)-__stringbase)| (0+32768)))& (0+255)
  3391     15EE  00F0               	movwf	strlen@s
  3392     15EF  3080               	movlw	128
  3393     15F0  00F1               	movwf	strlen@s+1
  3394     15F1  160A  158A  222D  160A  118A  	fcall	_strlen
  3395     15F6  0870               	movf	?_strlen,w
  3396     15F7  1683               	bsf	3,5	;RP0=1, select bank1
  3397     15F8  1303               	bcf	3,6	;RP1=0, select bank1
  3398     15F9  0763               	addwf	(??_ESP_SendToThingSpeak+6)^(0+128),w
  3399     15FA  1683               	bsf	3,5	;RP0=1, select bank3
  3400     15FB  1703               	bsf	3,6	;RP1=1, select bank3
  3401     15FC  009A               	movwf	ESP_SendToThingSpeak@len^(0+384)
  3402     15FD  0871               	movf	?_strlen+1,w
  3403     15FE  1803               	skipnc
  3404     15FF  0A71               	incf	?_strlen+1,w
  3405     1600  1683               	bsf	3,5	;RP0=1, select bank1
  3406     1601  1303               	bcf	3,6	;RP1=0, select bank1
  3407     1602  0764               	addwf	(??_ESP_SendToThingSpeak+7)^(0+128),w
  3408     1603  1683               	bsf	3,5	;RP0=1, select bank3
  3409     1604  1703               	bsf	3,6	;RP1=1, select bank3
  3410     1605  009B               	movwf	(ESP_SendToThingSpeak@len+1)^(0+384)
  3411                           
  3412                           ;PROY3FINAL.c: 130:     sprintf(num, "%u", len);
  3413     1606  3090               	movlw	(low (ESP_SendToThingSpeak@num| (0+256)))& (0+255)
  3414     1607  1283               	bcf	3,5	;RP0=0, select bank0
  3415     1608  1303               	bcf	3,6	;RP1=0, select bank0
  3416     1609  00EA               	movwf	sprintf@s
  3417     160A  30C9               	movlw	(low ((STR_9-__stringbase)| (0+32768)))& (0+255)
  3418     160B  00EB               	movwf	sprintf@fmt
  3419     160C  1683               	bsf	3,5	;RP0=1, select bank3
  3420     160D  1703               	bsf	3,6	;RP1=1, select bank3
  3421     160E  081B               	movf	(ESP_SendToThingSpeak@len+1)^(0+384),w
  3422     160F  1283               	bcf	3,5	;RP0=0, select bank0
  3423     1610  1303               	bcf	3,6	;RP1=0, select bank0
  3424     1611  00ED               	movwf	?_sprintf+3
  3425     1612  1683               	bsf	3,5	;RP0=1, select bank3
  3426     1613  1703               	bsf	3,6	;RP1=1, select bank3
  3427     1614  081A               	movf	ESP_SendToThingSpeak@len^(0+384),w
  3428     1615  1283               	bcf	3,5	;RP0=0, select bank0
  3429     1616  1303               	bcf	3,6	;RP1=0, select bank0
  3430     1617  00EC               	movwf	?_sprintf+2
  3431     1618  160A  158A  2314  160A  118A  	fcall	_sprintf
  3432                           
  3433                           ;PROY3FINAL.c: 131:     UART_WriteString("AT+CIPSEND="); UART_WriteString(num); UART_Wri
      +                          teString("\r\n"); _delay((unsigned long)((500)*(8000000/4000.0)));
  3434     161D  309B               	movlw	(low ((STR_10-__stringbase)| (0+32768)))& (0+255)
  3435     161E  00F1               	movwf	UART_WriteString@s
  3436     161F  3080               	movlw	128
  3437     1620  00F2               	movwf	UART_WriteString@s+1
  3438     1621  160A  158A  2276  160A  118A  	fcall	_UART_WriteString
  3439     1626  3090               	movlw	(low (ESP_SendToThingSpeak@num| (0+256)))& (0+255)
  3440     1627  00F1               	movwf	UART_WriteString@s
  3441     1628  3001               	movlw	1
  3442     1629  00F2               	movwf	UART_WriteString@s+1
  3443     162A  160A  158A  2276  160A  118A  	fcall	_UART_WriteString
  3444     162F  3047               	movlw	(low (((STR_2+26)-__stringbase)| (0+32768)))& (0+255)
  3445     1630  00F1               	movwf	UART_WriteString@s
  3446     1631  3080               	movlw	128
  3447     1632  00F2               	movwf	UART_WriteString@s+1
  3448     1633  160A  158A  2276  160A  118A  	fcall	_UART_WriteString
  3449     1638                     l3518:
  3450     1638  3006               	movlw	6
  3451     1639  1683               	bsf	3,5	;RP0=1, select bank1
  3452     163A  1303               	bcf	3,6	;RP1=0, select bank1
  3453     163B  00DF               	movwf	(??_ESP_SendToThingSpeak^(0+128)+2)
  3454     163C  3013               	movlw	19
  3455     163D  00DE               	movwf	(??_ESP_SendToThingSpeak^(0+128)+1)
  3456     163E  30AD               	movlw	173
  3457     163F  00DD               	movwf	??_ESP_SendToThingSpeak^(0+128)
  3458     1640                     u6247:
  3459     1640  0BDD               	decfsz	??_ESP_SendToThingSpeak^(0+128),f
  3460     1641  2E40               	goto	u6247
  3461     1642  0BDE               	decfsz	(??_ESP_SendToThingSpeak^(0+128)+1),f
  3462     1643  2E40               	goto	u6247
  3463     1644  0BDF               	decfsz	(??_ESP_SendToThingSpeak^(0+128)+2),f
  3464     1645  2E40               	goto	u6247
  3465     1646                     l3520:
  3466                           
  3467                           ;PROY3FINAL.c: 134:     UART_WriteString("GET /update?api_key=");
  3468     1646  304A               	movlw	(low ((STR_5-__stringbase)| (0+32768)))& (0+255)
  3469     1647  00F1               	movwf	UART_WriteString@s
  3470     1648  3080               	movlw	128
  3471     1649  00F2               	movwf	UART_WriteString@s+1
  3472     164A  160A  158A  2276  160A  118A  	fcall	_UART_WriteString
  3473     164F                     l3522:
  3474                           
  3475                           ;PROY3FINAL.c: 135:     UART_WriteString("0VKGIDGQBDYSMZEAI");
  3476     164F  305F               	movlw	(low ((STR_6-__stringbase)| (0+32768)))& (0+255)
  3477     1650  00F1               	movwf	UART_WriteString@s
  3478     1651  3080               	movlw	128
  3479     1652  00F2               	movwf	UART_WriteString@s+1
  3480     1653  160A  158A  2276  160A  118A  	fcall	_UART_WriteString
  3481     1658                     l3524:
  3482                           
  3483                           ;PROY3FINAL.c: 136:     UART_WriteString("&field1="); UART_WriteString(num); UART_WriteS
      +                          tring("\r\n");
  3484     1658  30B3               	movlw	(low ((STR_7-__stringbase)| (0+32768)))& (0+255)
  3485     1659  00F1               	movwf	UART_WriteString@s
  3486     165A  3080               	movlw	128
  3487     165B  00F2               	movwf	UART_WriteString@s+1
  3488     165C  160A  158A  2276  160A  118A  	fcall	_UART_WriteString
  3489     1661                     l3526:
  3490     1661  3090               	movlw	(low (ESP_SendToThingSpeak@num| (0+256)))& (0+255)
  3491     1662  00F1               	movwf	UART_WriteString@s
  3492     1663  3001               	movlw	1
  3493     1664  00F2               	movwf	UART_WriteString@s+1
  3494     1665  160A  158A  2276  160A  118A  	fcall	_UART_WriteString
  3495     166A                     l3528:
  3496     166A  3047               	movlw	(low (((STR_2+26)-__stringbase)| (0+32768)))& (0+255)
  3497     166B  00F1               	movwf	UART_WriteString@s
  3498     166C  3080               	movlw	128
  3499     166D  00F2               	movwf	UART_WriteString@s+1
  3500     166E  160A  158A  2276  160A  118A  	fcall	_UART_WriteString
  3501                           
  3502                           ;PROY3FINAL.c: 137:     _delay((unsigned long)((1500)*(8000000/4000.0)));
  3503     1673  3010               	movlw	16
  3504     1674  1683               	bsf	3,5	;RP0=1, select bank1
  3505     1675  1303               	bcf	3,6	;RP1=0, select bank1
  3506     1676  00DF               	movwf	(??_ESP_SendToThingSpeak^(0+128)+2)
  3507     1677  3039               	movlw	57
  3508     1678  00DE               	movwf	(??_ESP_SendToThingSpeak^(0+128)+1)
  3509     1679  300D               	movlw	13
  3510     167A  00DD               	movwf	??_ESP_SendToThingSpeak^(0+128)
  3511     167B                     u6257:
  3512     167B  0BDD               	decfsz	??_ESP_SendToThingSpeak^(0+128),f
  3513     167C  2E7B               	goto	u6257
  3514     167D  0BDE               	decfsz	(??_ESP_SendToThingSpeak^(0+128)+1),f
  3515     167E  2E7B               	goto	u6257
  3516     167F  0BDF               	decfsz	(??_ESP_SendToThingSpeak^(0+128)+2),f
  3517     1680  2E7B               	goto	u6257
  3518     1681                     l3530:
  3519                           
  3520                           ;PROY3FINAL.c: 139:     UART_WriteString("AT+CIPCLOSE\r\n"); _delay((unsigned long)((500
      +                          )*(8000000/4000.0)));
  3521     1681  307F               	movlw	(low ((STR_16-__stringbase)| (0+32768)))& (0+255)
  3522     1682  00F1               	movwf	UART_WriteString@s
  3523     1683  3080               	movlw	128
  3524     1684  00F2               	movwf	UART_WriteString@s+1
  3525     1685  160A  158A  2276  160A  118A  	fcall	_UART_WriteString
  3526     168A                     l3532:
  3527     168A  3006               	movlw	6
  3528     168B  1683               	bsf	3,5	;RP0=1, select bank1
  3529     168C  1303               	bcf	3,6	;RP1=0, select bank1
  3530     168D  00DF               	movwf	(??_ESP_SendToThingSpeak^(0+128)+2)
  3531     168E  3013               	movlw	19
  3532     168F  00DE               	movwf	(??_ESP_SendToThingSpeak^(0+128)+1)
  3533     1690  30AD               	movlw	173
  3534     1691  00DD               	movwf	??_ESP_SendToThingSpeak^(0+128)
  3535     1692                     u6267:
  3536     1692  0BDD               	decfsz	??_ESP_SendToThingSpeak^(0+128),f
  3537     1693  2E92               	goto	u6267
  3538     1694  0BDE               	decfsz	(??_ESP_SendToThingSpeak^(0+128)+1),f
  3539     1695  2E92               	goto	u6267
  3540     1696  0BDF               	decfsz	(??_ESP_SendToThingSpeak^(0+128)+2),f
  3541     1697  2E92               	goto	u6267
  3542     1698                     l141:
  3543     1698  0008               	return
  3544     1699                     __end_of_ESP_SendToThingSpeak:
  3545                           
  3546                           	psect	text13
  3547     1A2D                     __ptext13:	
  3548 ;; *************** function _strlen *****************
  3549 ;; Defined at:
  3550 ;;		line 5 in file "C:\Program Files\Microchip\xc8\v3.00\pic\sources\c99\common\strlen.c"
  3551 ;; Parameters:    Size  Location     Type
  3552 ;;  s               2    0[COMMON] PTR const unsigned char 
  3553 ;;		 -> STR_8(3), STR_7(9), STR_6(18), STR_5(21), 
  3554 ;;		 -> ESP_SendToThingSpeak@num(10), 
  3555 ;; Auto vars:     Size  Location     Type
  3556 ;;  a               2    2[COMMON] PTR const unsigned char 
  3557 ;;		 -> STR_8(3), STR_7(9), STR_6(18), STR_5(21), 
  3558 ;;		 -> ESP_SendToThingSpeak@num(10), 
  3559 ;; Return value:  Size  Location     Type
  3560 ;;                  2    0[COMMON] unsigned int 
  3561 ;; Registers used:
  3562 ;;		wreg, fsr0l, fsr0h, status,2, status,0, btemp+1, pclath
  3563 ;; Tracked objects:
  3564 ;;		On entry : 0/0
  3565 ;;		On exit  : 0/0
  3566 ;;		Unchanged: 0/0
  3567 ;; Data sizes:     COMMON   BANK0   BANK1   BANK3   BANK2
  3568 ;;      Params:         2       0       0       0       0
  3569 ;;      Locals:         2       0       0       0       0
  3570 ;;      Temps:          0       0       0       0       0
  3571 ;;      Totals:         4       0       0       0       0
  3572 ;;Total ram usage:        4 bytes
  3573 ;; Hardware stack levels used: 2
  3574 ;; This function calls:
  3575 ;;		Nothing
  3576 ;; This function is called by:
  3577 ;;		_ESP_SendToThingSpeak
  3578 ;; This function uses a non-reentrant model
  3579 ;;
  3580                           
  3581     1A2D                     _strlen:	
  3582                           ;psect for function _strlen
  3583                           
  3584     1A2D                     l3430:	
  3585                           ;incstack = 0
  3586                           ; Regs used in _strlen: [wreg-fsr0h+status,2+status,0+btemp+1+pclath]
  3587                           
  3588     1A2D  0870               	movf	strlen@s,w
  3589     1A2E  00F2               	movwf	strlen@a
  3590     1A2F  0871               	movf	strlen@s+1,w
  3591     1A30  00F3               	movwf	strlen@a+1
  3592     1A31  2A38               	goto	l3434
  3593     1A32                     l3432:
  3594     1A32  3001               	movlw	1
  3595     1A33  07F0               	addwf	strlen@s,f
  3596     1A34  1803               	skipnc
  3597     1A35  0AF1               	incf	strlen@s+1,f
  3598     1A36  3000               	movlw	0
  3599     1A37  07F1               	addwf	strlen@s+1,f
  3600     1A38                     l3434:
  3601     1A38  0871               	movf	strlen@s+1,w
  3602     1A39  1283               	bcf	3,5	;RP0=0, select bank0
  3603     1A3A  1303               	bcf	3,6	;RP1=0, select bank0
  3604     1A3B  00FF               	movwf	btemp+1
  3605     1A3C  0870               	movf	strlen@s,w
  3606     1A3D  0084               	movwf	4
  3607     1A3E  160A  118A  2000  160A  158A  	fcall	stringtab
  3608     1A43  3A00               	xorlw	0
  3609     1A44  1D03               	skipz
  3610     1A45  2A47               	goto	u5841
  3611     1A46  2A48               	goto	u5840
  3612     1A47                     u5841:
  3613     1A47  2A32               	goto	l3432
  3614     1A48                     u5840:
  3615     1A48                     l3436:
  3616     1A48  0872               	movf	strlen@a,w
  3617     1A49  0270               	subwf	strlen@s,w
  3618     1A4A  00F0               	movwf	?_strlen
  3619     1A4B  0873               	movf	strlen@a+1,w
  3620     1A4C  1C03               	skipc
  3621     1A4D  0A73               	incf	strlen@a+1,w
  3622     1A4E  0271               	subwf	strlen@s+1,w
  3623     1A4F  00F1               	movwf	?_strlen+1
  3624     1A50                     l912:
  3625     1A50  0008               	return
  3626     1A51                     __end_of_strlen:
  3627                           
  3628                           	psect	text14
  3629     1B14                     __ptext14:	
  3630 ;; *************** function _sprintf *****************
  3631 ;; Defined at:
  3632 ;;		line 9 in file "C:\Program Files\Microchip\xc8\v3.00\pic\sources\c99\common\nf_sprintf.c"
  3633 ;; Parameters:    Size  Location     Type
  3634 ;;  s               1   74[BANK0 ] PTR unsigned char 
  3635 ;;		 -> main@b(16), ESP_SendToThingSpeak@num(10), 
  3636 ;;  fmt             1   75[BANK0 ] PTR const unsigned char 
  3637 ;;		 -> STR_18(12), STR_9(3), STR_4(5), 
  3638 ;; Auto vars:     Size  Location     Type
  3639 ;;  f              11   46[BANK1 ] struct _IO_FILE
  3640 ;;  ret             2    0        int 
  3641 ;;  ap              1   45[BANK1 ] PTR void [1]
  3642 ;;		 -> ?_sprintf(2), 
  3643 ;; Return value:  Size  Location     Type
  3644 ;;                  2   74[BANK0 ] int 
  3645 ;; Registers used:
  3646 ;;		wreg, fsr0l, fsr0h, status,2, status,0, btemp+1, pclath, cstack
  3647 ;; Tracked objects:
  3648 ;;		On entry : 0/0
  3649 ;;		On exit  : 0/0
  3650 ;;		Unchanged: 0/0
  3651 ;; Data sizes:     COMMON   BANK0   BANK1   BANK3   BANK2
  3652 ;;      Params:         0       6       0       0       0
  3653 ;;      Locals:         0       0      12       0       0
  3654 ;;      Temps:          0       0       1       0       0
  3655 ;;      Totals:         0       6      13       0       0
  3656 ;;Total ram usage:       19 bytes
  3657 ;; Hardware stack levels used: 1
  3658 ;; Hardware stack levels required when called: 7
  3659 ;; This function calls:
  3660 ;;		_vfprintf
  3661 ;; This function is called by:
  3662 ;;		_ESP_SendToThingSpeak
  3663 ;;		_main
  3664 ;; This function uses a non-reentrant model
  3665 ;;
  3666                           
  3667     1B14                     _sprintf:	
  3668                           ;psect for function _sprintf
  3669                           
  3670     1B14                     l3416:	
  3671                           ;incstack = 0
  3672                           ; Regs used in _sprintf: [wreg-fsr0h+status,2+status,0+btemp+1+pclath+cstack]
  3673                           
  3674     1B14  306C               	movlw	(low ((?_sprintf| 0+2)))& (0+255)
  3675     1B15  1683               	bsf	3,5	;RP0=1, select bank1
  3676     1B16  1303               	bcf	3,6	;RP1=0, select bank1
  3677     1B17  00CD               	movwf	sprintf@ap^(0+128)
  3678     1B18                     l3418:
  3679     1B18  1283               	bcf	3,5	;RP0=0, select bank0
  3680     1B19  1303               	bcf	3,6	;RP1=0, select bank0
  3681     1B1A  086A               	movf	sprintf@s,w
  3682     1B1B  1683               	bsf	3,5	;RP0=1, select bank1
  3683     1B1C  1303               	bcf	3,6	;RP1=0, select bank1
  3684     1B1D  00CE               	movwf	sprintf@f^(0+128)
  3685     1B1E  3001               	movlw	1
  3686     1B1F  00CF               	movwf	(sprintf@f+1)^(0+128)
  3687     1B20                     l3420:
  3688     1B20  01D0               	clrf	(sprintf@f^(0+128)+2)
  3689     1B21  01D1               	clrf	((sprintf@f+1)^(0+128)+2)
  3690     1B22                     l3422:
  3691     1B22  01D7               	clrf	(sprintf@f^(0+128)+9)
  3692     1B23  01D8               	clrf	((sprintf@f+1)^(0+128)+9)
  3693     1B24                     l3424:
  3694     1B24  30CE               	movlw	low sprintf@f
  3695     1B25  1283               	bcf	3,5	;RP0=0, select bank0
  3696     1B26  1303               	bcf	3,6	;RP1=0, select bank0
  3697     1B27  00E5               	movwf	vfprintf@fp
  3698     1B28  3000               	movlw	high sprintf@f
  3699     1B29  00E6               	movwf	vfprintf@fp+1
  3700     1B2A  086B               	movf	sprintf@fmt,w
  3701     1B2B  00E7               	movwf	vfprintf@fmt
  3702     1B2C  30CD               	movlw	(low (sprintf@ap| 0))& (0+255)
  3703     1B2D  00E8               	movwf	vfprintf@ap
  3704     1B2E  160A  158A  21E6  160A  158A  	fcall	_vfprintf
  3705     1B33                     l3426:
  3706     1B33  1683               	bsf	3,5	;RP0=1, select bank1
  3707     1B34  1303               	bcf	3,6	;RP1=0, select bank1
  3708     1B35  0850               	movf	(sprintf@f^(0+128)+2),w
  3709     1B36  1283               	bcf	3,5	;RP0=0, select bank0
  3710     1B37  1303               	bcf	3,6	;RP1=0, select bank0
  3711     1B38  076A               	addwf	sprintf@s,w
  3712     1B39  1683               	bsf	3,5	;RP0=1, select bank1
  3713     1B3A  1303               	bcf	3,6	;RP1=0, select bank1
  3714     1B3B  00CC               	movwf	??_sprintf^(0+128)
  3715     1B3C  084C               	movf	??_sprintf^(0+128),w
  3716     1B3D  0084               	movwf	4
  3717     1B3E  1783               	bsf	3,7	;select IRP bank2
  3718     1B3F  0180               	clrf	0
  3719     1B40                     l704:
  3720     1B40  0008               	return
  3721     1B41                     __end_of_sprintf:
  3722                           
  3723                           	psect	text15
  3724     19E6                     __ptext15:	
  3725 ;; *************** function _vfprintf *****************
  3726 ;; Defined at:
  3727 ;;		line 1817 in file "C:\Program Files\Microchip\xc8\v3.00\pic\sources\c99\common\doprnt.c"
  3728 ;; Parameters:    Size  Location     Type
  3729 ;;  fp              2   69[BANK0 ] PTR struct _IO_FILE
  3730 ;;		 -> sprintf@f(11), 
  3731 ;;  fmt             1   71[BANK0 ] PTR const unsigned char 
  3732 ;;		 -> STR_18(12), STR_9(3), STR_4(5), 
  3733 ;;  ap              1   72[BANK0 ] PTR PTR void 
  3734 ;;		 -> sprintf@ap(1), 
  3735 ;; Auto vars:     Size  Location     Type
  3736 ;;  cfmt            1   73[BANK0 ] PTR unsigned char 
  3737 ;;		 -> STR_18(12), STR_9(3), STR_4(5), 
  3738 ;; Return value:  Size  Location     Type
  3739 ;;                  2   69[BANK0 ] int 
  3740 ;; Registers used:
  3741 ;;		wreg, fsr0l, fsr0h, status,2, status,0, btemp+1, pclath, cstack
  3742 ;; Tracked objects:
  3743 ;;		On entry : 0/0
  3744 ;;		On exit  : 0/0
  3745 ;;		Unchanged: 0/0
  3746 ;; Data sizes:     COMMON   BANK0   BANK1   BANK3   BANK2
  3747 ;;      Params:         0       4       0       0       0
  3748 ;;      Locals:         0       1       0       0       0
  3749 ;;      Temps:          0       0       0       0       0
  3750 ;;      Totals:         0       5       0       0       0
  3751 ;;Total ram usage:        5 bytes
  3752 ;; Hardware stack levels used: 1
  3753 ;; Hardware stack levels required when called: 6
  3754 ;; This function calls:
  3755 ;;		_vfpfcnvrt
  3756 ;; This function is called by:
  3757 ;;		_sprintf
  3758 ;; This function uses a non-reentrant model
  3759 ;;
  3760                           
  3761     19E6                     _vfprintf:	
  3762                           ;psect for function _vfprintf
  3763                           
  3764     19E6                     l3364:	
  3765                           ;incstack = 0
  3766 ;; using string table level
  3767                           ; Regs used in _vfprintf: [wreg-fsr0h+status,2+status,0+btemp+1+pclath+cstack]
  3768                           
  3769                           
  3770                           ;C:\Program Files\Microchip\xc8\v3.00\pic\sources\c99\common\doprnt.c: 1817: int vfprint
      +                          f(FILE *fp, const char *fmt, va_list ap);C:\Program Files\Microchip\xc8\v3.00\pic\source
      +                          s\c99\common\doprnt.c: 1818: {;C:\Program Files\Microchip\xc8\v3.00\pic\sources\c99\comm
      +                          on\doprnt.c: 1820:     char *cfmt;;C:\Program Files\Microchip\xc8\v3.00\pic\sources\c99\
      +                          common\doprnt.c: 1822:     cfmt = (char *)fmt;
  3771     19E6  1283               	bcf	3,5	;RP0=0, select bank0
  3772     19E7  1303               	bcf	3,6	;RP1=0, select bank0
  3773     19E8  0867               	movf	vfprintf@fmt,w
  3774     19E9  00E9               	movwf	vfprintf@cfmt
  3775                           
  3776                           ;C:\Program Files\Microchip\xc8\v3.00\pic\sources\c99\common\doprnt.c: 1826:     while (
      +                          *cfmt) {
  3777     19EA  29F8               	goto	l3368
  3778     19EB                     l3366:
  3779                           
  3780                           ;C:\Program Files\Microchip\xc8\v3.00\pic\sources\c99\common\doprnt.c: 1830:    vfpfcnvr
      +                          t(fp, &cfmt, ap);
  3781     19EB  0865               	movf	vfprintf@fp,w
  3782     19EC  00D9               	movwf	vfpfcnvrt@fp
  3783     19ED  0866               	movf	vfprintf@fp+1,w
  3784     19EE  00DA               	movwf	vfpfcnvrt@fp+1
  3785     19EF  3069               	movlw	(low (vfprintf@cfmt| 0))& (0+255)
  3786     19F0  00DB               	movwf	vfpfcnvrt@fmt
  3787     19F1  0868               	movf	vfprintf@ap,w
  3788     19F2  00DC               	movwf	vfpfcnvrt@ap
  3789     19F3  160A  118A  2412  160A  158A  	fcall	_vfpfcnvrt
  3790     19F8                     l3368:
  3791                           
  3792                           ;C:\Program Files\Microchip\xc8\v3.00\pic\sources\c99\common\doprnt.c: 1826:     while (
      +                          *cfmt) {
  3793     19F8  1283               	bcf	3,5	;RP0=0, select bank0
  3794     19F9  1303               	bcf	3,6	;RP1=0, select bank0
  3795     19FA  0869               	movf	vfprintf@cfmt,w
  3796     19FB  0084               	movwf	4
  3797     19FC  160A  118A  200A  160A  158A  	fcall	stringdir
  3798     1A01  3A00               	xorlw	0
  3799     1A02  1D03               	skipz
  3800     1A03  2A05               	goto	u5361
  3801     1A04  2A06               	goto	u5360
  3802     1A05                     u5361:
  3803     1A05  29EB               	goto	l3366
  3804     1A06                     u5360:
  3805     1A06                     l3370:
  3806                           
  3807                           ;C:\Program Files\Microchip\xc8\v3.00\pic\sources\c99\common\doprnt.c: 1835:  return 0;
  3808     1A06  01E5               	clrf	?_vfprintf
  3809     1A07  01E6               	clrf	?_vfprintf+1
  3810     1A08                     l840:
  3811     1A08  0008               	return
  3812     1A09                     __end_of_vfprintf:
  3813                           
  3814                           	psect	text16
  3815     1412                     __ptext16:	
  3816 ;; *************** function _vfpfcnvrt *****************
  3817 ;; Defined at:
  3818 ;;		line 1177 in file "C:\Program Files\Microchip\xc8\v3.00\pic\sources\c99\common\doprnt.c"
  3819 ;; Parameters:    Size  Location     Type
  3820 ;;  fp              2   57[BANK0 ] PTR struct _IO_FILE
  3821 ;;		 -> sprintf@f(11), 
  3822 ;;  fmt             1   59[BANK0 ] PTR PTR unsigned char 
  3823 ;;		 -> vfprintf@cfmt(1), 
  3824 ;;  ap              1   60[BANK0 ] PTR PTR void 
  3825 ;;		 -> sprintf@ap(1), 
  3826 ;; Auto vars:     Size  Location     Type
  3827 ;;  convarg         4   63[BANK0 ] struct .
  3828 ;;  cp              1   68[BANK0 ] PTR unsigned char 
  3829 ;;		 -> STR_18(12), STR_9(3), STR_4(5), 
  3830 ;;  c               1   67[BANK0 ] unsigned char 
  3831 ;;  done            1    0        _Bool 
  3832 ;; Return value:  Size  Location     Type
  3833 ;;                  1    wreg      void 
  3834 ;; Registers used:
  3835 ;;		wreg, fsr0l, fsr0h, status,2, status,0, btemp+1, pclath, cstack
  3836 ;; Tracked objects:
  3837 ;;		On entry : 0/0
  3838 ;;		On exit  : 0/0
  3839 ;;		Unchanged: 0/0
  3840 ;; Data sizes:     COMMON   BANK0   BANK1   BANK3   BANK2
  3841 ;;      Params:         0       4       0       0       0
  3842 ;;      Locals:         0       6       0       0       0
  3843 ;;      Temps:          0       2       0       0       0
  3844 ;;      Totals:         0      12       0       0       0
  3845 ;;Total ram usage:       12 bytes
  3846 ;; Hardware stack levels used: 1
  3847 ;; Hardware stack levels required when called: 5
  3848 ;; This function calls:
  3849 ;;		_efgtoa
  3850 ;;		_fputc
  3851 ;;		_read_prec_or_width
  3852 ;;		_utoa
  3853 ;; This function is called by:
  3854 ;;		_vfprintf
  3855 ;; This function uses a non-reentrant model
  3856 ;;
  3857                           
  3858     1412                     _vfpfcnvrt:	
  3859                           ;psect for function _vfpfcnvrt
  3860                           
  3861     1412                     l3286:	
  3862                           ;incstack = 0
  3863 ;; using string table level
  3864                           ; Regs used in _vfpfcnvrt: [wreg-fsr0h+status,2+status,0+btemp+1+pclath+cstack]
  3865                           
  3866                           
  3867                           ;C:\Program Files\Microchip\xc8\v3.00\pic\sources\c99\common\doprnt.c: 1177: vfpfcnvrt(F
      +                          ILE *fp, char *fmt[], va_list ap);C:\Program Files\Microchip\xc8\v3.00\pic\sources\c99\c
      +                          ommon\doprnt.c: 1178: {;C:\Program Files\Microchip\xc8\v3.00\pic\sources\c99\common\dopr
      +                          nt.c: 1179:     char c, *cp;;C:\Program Files\Microchip\xc8\v3.00\pic\sources\c99\common
      +                          \doprnt.c: 1180:     _Bool done;;C:\Program Files\Microchip\xc8\v3.00\pic\sources\c99\co
      +                          mmon\doprnt.c: 1188:  } convarg;;C:\Program Files\Microchip\xc8\v3.00\pic\sources\c99\co
      +                          mmon\doprnt.c: 1201:     if ((*fmt)[0] == '%') {
  3868     1412  1283               	bcf	3,5	;RP0=0, select bank0
  3869     1413  1303               	bcf	3,6	;RP1=0, select bank0
  3870     1414  085B               	movf	vfpfcnvrt@fmt,w
  3871     1415  0084               	movwf	4
  3872     1416  1383               	bcf	3,7	;select IRP bank0
  3873     1417  0800               	movf	0,w
  3874     1418  0084               	movwf	4
  3875     1419  160A  118A  200A  160A  118A  	fcall	stringdir
  3876     141E  3A25               	xorlw	37
  3877     141F  1D03               	skipz
  3878     1420  2C22               	goto	u5311
  3879     1421  2C23               	goto	u5310
  3880     1422                     u5311:
  3881     1422  2D22               	goto	l3352
  3882     1423                     u5310:
  3883     1423                     l3288:
  3884                           
  3885                           ;C:\Program Files\Microchip\xc8\v3.00\pic\sources\c99\common\doprnt.c: 1202:         ++*
      +                          fmt;
  3886     1423  085B               	movf	vfpfcnvrt@fmt,w
  3887     1424  0084               	movwf	4
  3888     1425  3001               	movlw	1
  3889     1426  0780               	addwf	0,f
  3890     1427                     l3290:
  3891                           
  3892                           ;C:\Program Files\Microchip\xc8\v3.00\pic\sources\c99\common\doprnt.c: 1204:         fla
      +                          gs = width = 0;
  3893     1427  1683               	bsf	3,5	;RP0=1, select bank1
  3894     1428  1303               	bcf	3,6	;RP1=0, select bank1
  3895     1429  01E8               	clrf	_width^(0+128)
  3896     142A  01E9               	clrf	(_width+1)^(0+128)
  3897     142B  3000               	movlw	0
  3898     142C  00EC               	movwf	_flags^(0+128)
  3899     142D                     l3292:
  3900                           
  3901                           ;C:\Program Files\Microchip\xc8\v3.00\pic\sources\c99\common\doprnt.c: 1205:         pre
      +                          c = -1;
  3902     142D  30FF               	movlw	255
  3903     142E  00EA               	movwf	_prec^(0+128)
  3904     142F  30FF               	movlw	255
  3905     1430  00EB               	movwf	(_prec^(0+128)+1)
  3906     1431                     l3294:
  3907                           
  3908                           ;C:\Program Files\Microchip\xc8\v3.00\pic\sources\c99\common\doprnt.c: 1265:         if 
      +                          ((*fmt)[0] == '.') {
  3909     1431  1283               	bcf	3,5	;RP0=0, select bank0
  3910     1432  1303               	bcf	3,6	;RP1=0, select bank0
  3911     1433  085B               	movf	vfpfcnvrt@fmt,w
  3912     1434  0084               	movwf	4
  3913     1435  0800               	movf	0,w
  3914     1436  0084               	movwf	4
  3915     1437  160A  118A  200A  160A  118A  	fcall	stringdir
  3916     143C  3A2E               	xorlw	46
  3917     143D  1D03               	skipz
  3918     143E  2C40               	goto	u5321
  3919     143F  2C41               	goto	u5320
  3920     1440                     u5321:
  3921     1440  2C54               	goto	l3300
  3922     1441                     u5320:
  3923     1441                     l3296:
  3924                           
  3925                           ;C:\Program Files\Microchip\xc8\v3.00\pic\sources\c99\common\doprnt.c: 1266:            
      +                           ++*fmt;
  3926     1441  085B               	movf	vfpfcnvrt@fmt,w
  3927     1442  0084               	movwf	4
  3928     1443  3001               	movlw	1
  3929     1444  0780               	addwf	0,f
  3930     1445                     l3298:
  3931                           
  3932                           ;C:\Program Files\Microchip\xc8\v3.00\pic\sources\c99\common\doprnt.c: 1267:    prec = r
      +                          ead_prec_or_width(fmt, ap);
  3933     1445  085B               	movf	vfpfcnvrt@fmt,w
  3934     1446  00F6               	movwf	read_prec_or_width@fmt
  3935     1447  085C               	movf	vfpfcnvrt@ap,w
  3936     1448  00F7               	movwf	read_prec_or_width@ap
  3937     1449  160A  118A  20F1  160A  118A  	fcall	_read_prec_or_width
  3938     144E  0877               	movf	?_read_prec_or_width+1,w
  3939     144F  1683               	bsf	3,5	;RP0=1, select bank1
  3940     1450  1303               	bcf	3,6	;RP1=0, select bank1
  3941     1451  00EB               	movwf	(_prec+1)^(0+128)
  3942     1452  0876               	movf	?_read_prec_or_width,w
  3943     1453  00EA               	movwf	_prec^(0+128)
  3944     1454                     l3300:
  3945                           
  3946                           ;C:\Program Files\Microchip\xc8\v3.00\pic\sources\c99\common\doprnt.c: 1439:   if (0
  3947     1454  1283               	bcf	3,5	;RP0=0, select bank0
  3948     1455  085B               	movf	vfpfcnvrt@fmt,w
  3949     1456  0084               	movwf	4
  3950     1457  1383               	bcf	3,7	;select IRP bank0
  3951     1458  0800               	movf	0,w
  3952     1459  00E4               	movwf	vfpfcnvrt@cp
  3953     145A                     l3302:
  3954     145A  0864               	movf	vfpfcnvrt@cp,w
  3955     145B  0084               	movwf	4
  3956     145C  160A  118A  200A  160A  118A  	fcall	stringdir
  3957     1461  3A75               	xorlw	117
  3958     1462  1D03               	skipz
  3959     1463  2C65               	goto	u5331
  3960     1464  2C66               	goto	u5330
  3961     1465                     u5331:
  3962     1465  2C92               	goto	l3316
  3963     1466                     u5330:
  3964     1466                     l3304:
  3965                           
  3966                           ;C:\Program Files\Microchip\xc8\v3.00\pic\sources\c99\common\doprnt.c: 1452:     ) {;C:\
      +                          Program Files\Microchip\xc8\v3.00\pic\sources\c99\common\doprnt.c: 1495:    convarg.uint
      +                           = (vfpf_uint_t)(unsigned int)(*(unsigned int *)__va_arg(*(unsigned int **)ap, (unsigned
      +                           int)0));
  3967     1466  085C               	movf	vfpfcnvrt@ap,w
  3968     1467  0084               	movwf	4
  3969     1468  0800               	movf	0,w
  3970     1469  00FF               	movwf	btemp+1
  3971     146A  3002               	movlw	2
  3972     146B  0780               	addwf	0,f
  3973     146C  087F               	movf	btemp+1,w
  3974     146D  0084               	movwf	4
  3975     146E  0800               	movf	0,w
  3976     146F  00DF               	movwf	vfpfcnvrt@convarg
  3977     1470  0A84               	incf	4,f
  3978     1471  0800               	movf	0,w
  3979     1472  00E0               	movwf	vfpfcnvrt@convarg+1
  3980     1473                     l3306:
  3981                           
  3982                           ;C:\Program Files\Microchip\xc8\v3.00\pic\sources\c99\common\doprnt.c: 1497:    *fmt = c
      +                          p+1;
  3983     1473  085B               	movf	vfpfcnvrt@fmt,w
  3984     1474  0084               	movwf	4
  3985     1475  0864               	movf	vfpfcnvrt@cp,w
  3986     1476  3E01               	addlw	1
  3987     1477  0080               	movwf	0
  3988                           
  3989                           ;C:\Program Files\Microchip\xc8\v3.00\pic\sources\c99\common\doprnt.c: 1498:    switch (
      +                          *cp) {
  3990     1478  2C87               	goto	l3314
  3991     1479                     l3308:
  3992                           
  3993                           ;C:\Program Files\Microchip\xc8\v3.00\pic\sources\c99\common\doprnt.c: 1542:      return
      +                           (void) utoa(fp, convarg.uint);;	Return value of _vfpfcnvrt is never used
  3994     1479  0859               	movf	vfpfcnvrt@fp,w
  3995     147A  00AF               	movwf	utoa@fp
  3996     147B  085A               	movf	vfpfcnvrt@fp+1,w
  3997     147C  00B0               	movwf	utoa@fp+1
  3998     147D  0860               	movf	vfpfcnvrt@convarg+1,w
  3999     147E  00B2               	movwf	utoa@d+1
  4000     147F  085F               	movf	vfpfcnvrt@convarg,w
  4001     1480  00B1               	movwf	utoa@d
  4002     1481  120A  158A  2003  160A  118A  	fcall	_utoa
  4003     1486  2D3B               	goto	l817
  4004     1487                     l3314:
  4005     1487  0864               	movf	vfpfcnvrt@cp,w
  4006     1488  0084               	movwf	4
  4007     1489  160A  118A  200A  160A  118A  	fcall	stringdir
  4008                           
  4009                           ; Switch size 1, requested type "simple"
  4010                           ; Number of cases is 1, Range of values is 117 to 117
  4011                           ; switch strategies available:
  4012                           ; Name         Instructions Cycles
  4013                           ; simple_byte            4     3 (average)
  4014                           ; direct_byte           14    11 (fixed)
  4015                           ; jumptable            263     9 (fixed)
  4016                           ;	Chosen strategy is simple_byte
  4017     148E  3A75               	xorlw	117	; case 117
  4018     148F  1903               	skipnz
  4019     1490  2C79               	goto	l3308
  4020     1491  2C92               	goto	l3316
  4021     1492                     l3316:
  4022                           
  4023                           ;C:\Program Files\Microchip\xc8\v3.00\pic\sources\c99\common\doprnt.c: 1689:   cp = *fmt
      +                          ;
  4024     1492  085B               	movf	vfpfcnvrt@fmt,w
  4025     1493  0084               	movwf	4
  4026     1494  0800               	movf	0,w
  4027     1495  00E4               	movwf	vfpfcnvrt@cp
  4028     1496                     l3318:
  4029                           
  4030                           ;C:\Program Files\Microchip\xc8\v3.00\pic\sources\c99\common\doprnt.c: 1690:   c = *cp;
  4031     1496  0864               	movf	vfpfcnvrt@cp,w
  4032     1497  0084               	movwf	4
  4033     1498  160A  118A  200A  160A  118A  	fcall	stringdir
  4034     149D  00E3               	movwf	vfpfcnvrt@c
  4035                           
  4036                           ;C:\Program Files\Microchip\xc8\v3.00\pic\sources\c99\common\doprnt.c: 1691:   switch(c)
      +                           {
  4037     149E  2CA7               	goto	l3326
  4038     149F                     l3320:
  4039                           
  4040                           ;C:\Program Files\Microchip\xc8\v3.00\pic\sources\c99\common\doprnt.c: 1695:     cp++;
  4041     149F  3001               	movlw	1
  4042     14A0  07E4               	addwf	vfpfcnvrt@cp,f
  4043                           
  4044                           ;C:\Program Files\Microchip\xc8\v3.00\pic\sources\c99\common\doprnt.c: 1696:     break;
  4045     14A1  2CB2               	goto	l3328
  4046     14A2                     l823:	
  4047                           ;C:\Program Files\Microchip\xc8\v3.00\pic\sources\c99\common\doprnt.c: 1710:    case 'f'
      +                          :
  4048                           
  4049                           
  4050                           ;C:\Program Files\Microchip\xc8\v3.00\pic\sources\c99\common\doprnt.c: 1721:     c = 'l'
      +                          ;
  4051     14A2  306C               	movlw	108
  4052     14A3  00E3               	movwf	vfpfcnvrt@c
  4053                           
  4054                           ;C:\Program Files\Microchip\xc8\v3.00\pic\sources\c99\common\doprnt.c: 1722:     break;
  4055     14A4  2CB2               	goto	l3328
  4056     14A5                     l3322:
  4057                           
  4058                           ;C:\Program Files\Microchip\xc8\v3.00\pic\sources\c99\common\doprnt.c: 1724:     c = 0;
  4059     14A5  01E3               	clrf	vfpfcnvrt@c
  4060                           
  4061                           ;C:\Program Files\Microchip\xc8\v3.00\pic\sources\c99\common\doprnt.c: 1725:     break;
  4062     14A6  2CB2               	goto	l3328
  4063     14A7                     l3326:
  4064     14A7  0863               	movf	vfpfcnvrt@c,w
  4065                           
  4066                           ; Switch size 1, requested type "simple"
  4067                           ; Number of cases is 3, Range of values is 76 to 108
  4068                           ; switch strategies available:
  4069                           ; Name         Instructions Cycles
  4070                           ; simple_byte           10     6 (average)
  4071                           ; direct_byte          110    11 (fixed)
  4072                           ; jumptable            263     9 (fixed)
  4073                           ;	Chosen strategy is simple_byte
  4074     14A8  3A4C               	xorlw	76	; case 76
  4075     14A9  1903               	skipnz
  4076     14AA  2C9F               	goto	l3320
  4077     14AB  3A2A               	xorlw	42	; case 102
  4078     14AC  1903               	skipnz
  4079     14AD  2CA2               	goto	l823
  4080     14AE  3A0A               	xorlw	10	; case 108
  4081     14AF  1903               	skipnz
  4082     14B0  2C9F               	goto	l3320
  4083     14B1  2CA5               	goto	l3322
  4084     14B2                     l3328:
  4085     14B2  0864               	movf	vfpfcnvrt@cp,w
  4086     14B3  0084               	movwf	4
  4087     14B4  160A  118A  200A  160A  118A  	fcall	stringdir
  4088     14B9  3A66               	xorlw	102
  4089     14BA  1D03               	skipz
  4090     14BB  2CBD               	goto	u5341
  4091     14BC  2CBE               	goto	u5340
  4092     14BD                     u5341:
  4093     14BD  2D1A               	goto	l3348
  4094     14BE                     u5340:
  4095     14BE  2CE7               	goto	l3336
  4096     14BF                     l3330:
  4097                           
  4098                           ;C:\Program Files\Microchip\xc8\v3.00\pic\sources\c99\common\doprnt.c: 1756:      convar
      +                          g.f = (long double)(*(double *)__va_arg(*(double **)ap, (double)0));
  4099     14BF  085C               	movf	vfpfcnvrt@ap,w
  4100     14C0  0084               	movwf	4
  4101     14C1  0800               	movf	0,w
  4102     14C2  00FF               	movwf	btemp+1
  4103     14C3  3004               	movlw	4
  4104     14C4  0780               	addwf	0,f
  4105     14C5  087F               	movf	btemp+1,w
  4106     14C6  0084               	movwf	4
  4107     14C7  0800               	movf	0,w
  4108     14C8  00DF               	movwf	vfpfcnvrt@convarg
  4109     14C9  0A84               	incf	4,f
  4110     14CA  0800               	movf	0,w
  4111     14CB  00E0               	movwf	vfpfcnvrt@convarg+1
  4112     14CC  0A84               	incf	4,f
  4113     14CD  0800               	movf	0,w
  4114     14CE  00E1               	movwf	vfpfcnvrt@convarg+2
  4115     14CF  0A84               	incf	4,f
  4116     14D0  0800               	movf	0,w
  4117     14D1  00E2               	movwf	vfpfcnvrt@convarg+3
  4118                           
  4119                           ;C:\Program Files\Microchip\xc8\v3.00\pic\sources\c99\common\doprnt.c: 1757:      break;
  4120     14D2  2CEF               	goto	l3338
  4121     14D3                     l3332:
  4122                           
  4123                           ;C:\Program Files\Microchip\xc8\v3.00\pic\sources\c99\common\doprnt.c: 1759:      convar
      +                          g.f = (long double)(*(long double *)__va_arg(*(long double **)ap, (long double)0));
  4124     14D3  085C               	movf	vfpfcnvrt@ap,w
  4125     14D4  0084               	movwf	4
  4126     14D5  0800               	movf	0,w
  4127     14D6  00FF               	movwf	btemp+1
  4128     14D7  3004               	movlw	4
  4129     14D8  0780               	addwf	0,f
  4130     14D9  087F               	movf	btemp+1,w
  4131     14DA  0084               	movwf	4
  4132     14DB  0800               	movf	0,w
  4133     14DC  00DF               	movwf	vfpfcnvrt@convarg
  4134     14DD  0A84               	incf	4,f
  4135     14DE  0800               	movf	0,w
  4136     14DF  00E0               	movwf	vfpfcnvrt@convarg+1
  4137     14E0  0A84               	incf	4,f
  4138     14E1  0800               	movf	0,w
  4139     14E2  00E1               	movwf	vfpfcnvrt@convarg+2
  4140     14E3  0A84               	incf	4,f
  4141     14E4  0800               	movf	0,w
  4142     14E5  00E2               	movwf	vfpfcnvrt@convarg+3
  4143                           
  4144                           ;C:\Program Files\Microchip\xc8\v3.00\pic\sources\c99\common\doprnt.c: 1760:      break;
  4145     14E6  2CEF               	goto	l3338
  4146     14E7                     l3336:
  4147     14E7  0863               	movf	vfpfcnvrt@c,w
  4148                           
  4149                           ; Switch size 1, requested type "simple"
  4150                           ; Number of cases is 2, Range of values is 76 to 108
  4151                           ; switch strategies available:
  4152                           ; Name         Instructions Cycles
  4153                           ; simple_byte            7     4 (average)
  4154                           ; direct_byte          110    11 (fixed)
  4155                           ; jumptable            263     9 (fixed)
  4156                           ;	Chosen strategy is simple_byte
  4157     14E8  3A4C               	xorlw	76	; case 76
  4158     14E9  1903               	skipnz
  4159     14EA  2CD3               	goto	l3332
  4160     14EB  3A20               	xorlw	32	; case 108
  4161     14EC  1903               	skipnz
  4162     14ED  2CBF               	goto	l3330
  4163     14EE  2CEF               	goto	l3338
  4164     14EF                     l3338:
  4165                           
  4166                           ;C:\Program Files\Microchip\xc8\v3.00\pic\sources\c99\common\doprnt.c: 1762:    *fmt = c
      +                          p+1;
  4167     14EF  085B               	movf	vfpfcnvrt@fmt,w
  4168     14F0  0084               	movwf	4
  4169     14F1  0864               	movf	vfpfcnvrt@cp,w
  4170     14F2  3E01               	addlw	1
  4171     14F3  0080               	movwf	0
  4172                           
  4173                           ;C:\Program Files\Microchip\xc8\v3.00\pic\sources\c99\common\doprnt.c: 1763:    switch (
      +                          *cp) {
  4174     14F4  2D0F               	goto	l3346
  4175     14F5                     l3340:
  4176                           
  4177                           ;C:\Program Files\Microchip\xc8\v3.00\pic\sources\c99\common\doprnt.c: 1790:      return
      +                           (void) efgtoa(fp, convarg.f, *cp);;	Return value of _vfpfcnvrt is never used
  4178     14F5  0859               	movf	vfpfcnvrt@fp,w
  4179     14F6  00CE               	movwf	efgtoa@fp
  4180     14F7  085A               	movf	vfpfcnvrt@fp+1,w
  4181     14F8  00CF               	movwf	efgtoa@fp+1
  4182     14F9  0862               	movf	vfpfcnvrt@convarg+3,w
  4183     14FA  00D3               	movwf	efgtoa@f+3
  4184     14FB  0861               	movf	vfpfcnvrt@convarg+2,w
  4185     14FC  00D2               	movwf	efgtoa@f+2
  4186     14FD  0860               	movf	vfpfcnvrt@convarg+1,w
  4187     14FE  00D1               	movwf	efgtoa@f+1
  4188     14FF  085F               	movf	vfpfcnvrt@convarg,w
  4189     1500  00D0               	movwf	efgtoa@f
  4190     1501  0864               	movf	vfpfcnvrt@cp,w
  4191     1502  0084               	movwf	4
  4192     1503  160A  118A  200A  160A  118A  	fcall	stringdir
  4193     1508  00D4               	movwf	efgtoa@c
  4194     1509  160A  118A  21F8  160A  118A  	fcall	_efgtoa
  4195     150E  2D3B               	goto	l817
  4196     150F                     l3346:
  4197     150F  0864               	movf	vfpfcnvrt@cp,w
  4198     1510  0084               	movwf	4
  4199     1511  160A  118A  200A  160A  118A  	fcall	stringdir
  4200                           
  4201                           ; Switch size 1, requested type "simple"
  4202                           ; Number of cases is 1, Range of values is 102 to 102
  4203                           ; switch strategies available:
  4204                           ; Name         Instructions Cycles
  4205                           ; simple_byte            4     3 (average)
  4206                           ; direct_byte           14    11 (fixed)
  4207                           ; jumptable            263     9 (fixed)
  4208                           ;	Chosen strategy is simple_byte
  4209     1516  3A66               	xorlw	102	; case 102
  4210     1517  1903               	skipnz
  4211     1518  2CF5               	goto	l3340
  4212     1519  2D1A               	goto	l3348
  4213     151A                     l3348:
  4214                           
  4215                           ;C:\Program Files\Microchip\xc8\v3.00\pic\sources\c99\common\doprnt.c: 1806:         ++*
      +                          fmt;
  4216     151A  1283               	bcf	3,5	;RP0=0, select bank0
  4217     151B  1303               	bcf	3,6	;RP1=0, select bank0
  4218     151C  085B               	movf	vfpfcnvrt@fmt,w
  4219     151D  0084               	movwf	4
  4220     151E  3001               	movlw	1
  4221     151F  1383               	bcf	3,7	;select IRP bank0
  4222     1520  0780               	addwf	0,f
  4223     1521  2D3B               	goto	l817
  4224     1522                     l3352:
  4225                           
  4226                           ;C:\Program Files\Microchip\xc8\v3.00\pic\sources\c99\common\doprnt.c: 1811:     fputc((
      +                          int)(*fmt)[0], fp);
  4227     1522  085B               	movf	vfpfcnvrt@fmt,w
  4228     1523  0084               	movwf	4
  4229     1524  0800               	movf	0,w
  4230     1525  0084               	movwf	4
  4231     1526  160A  118A  200A  160A  118A  	fcall	stringdir
  4232     152B  00DD               	movwf	??_vfpfcnvrt
  4233     152C  01DE               	clrf	??_vfpfcnvrt+1
  4234     152D  085D               	movf	??_vfpfcnvrt,w
  4235     152E  00F0               	movwf	fputc@c
  4236     152F  085E               	movf	??_vfpfcnvrt+1,w
  4237     1530  00F1               	movwf	fputc@c+1
  4238     1531  0859               	movf	vfpfcnvrt@fp,w
  4239     1532  00F2               	movwf	fputc@fp
  4240     1533  085A               	movf	vfpfcnvrt@fp+1,w
  4241     1534  00F3               	movwf	fputc@fp+1
  4242     1535  160A  158A  257E  160A  118A  	fcall	_fputc
  4243     153A  2D1A               	goto	l3348
  4244     153B                     l817:
  4245     153B  0008               	return
  4246     153C                     __end_of_vfpfcnvrt:
  4247                           
  4248                           	psect	text17
  4249     0803                     __ptext17:	
  4250 ;; *************** function _utoa *****************
  4251 ;; Defined at:
  4252 ;;		line 1001 in file "C:\Program Files\Microchip\xc8\v3.00\pic\sources\c99\common\doprnt.c"
  4253 ;; Parameters:    Size  Location     Type
  4254 ;;  fp              2   15[BANK0 ] PTR struct _IO_FILE
  4255 ;;		 -> sprintf@f(11), 
  4256 ;;  d               2   17[BANK0 ] unsigned int 
  4257 ;; Auto vars:     Size  Location     Type
  4258 ;;  i               2   23[BANK0 ] int 
  4259 ;;  p               2   21[BANK0 ] int 
  4260 ;;  w               2   19[BANK0 ] int 
  4261 ;; Return value:  Size  Location     Type
  4262 ;;                  1    wreg      void 
  4263 ;; Registers used:
  4264 ;;		wreg, fsr0l, fsr0h, status,2, status,0, btemp+1, pclath, cstack
  4265 ;; Tracked objects:
  4266 ;;		On entry : 0/0
  4267 ;;		On exit  : 0/0
  4268 ;;		Unchanged: 0/0
  4269 ;; Data sizes:     COMMON   BANK0   BANK1   BANK3   BANK2
  4270 ;;      Params:         0       4       0       0       0
  4271 ;;      Locals:         0       6       0       0       0
  4272 ;;      Temps:          0       0       0       0       0
  4273 ;;      Totals:         0      10       0       0       0
  4274 ;;Total ram usage:       10 bytes
  4275 ;; Hardware stack levels used: 1
  4276 ;; Hardware stack levels required when called: 4
  4277 ;; This function calls:
  4278 ;;		___lwdiv
  4279 ;;		___lwmod
  4280 ;;		_pad
  4281 ;; This function is called by:
  4282 ;;		_vfpfcnvrt
  4283 ;; This function uses a non-reentrant model
  4284 ;;
  4285                           
  4286     0803                     _utoa:	
  4287                           ;psect for function _utoa
  4288                           
  4289     0803                     l3240:	
  4290                           ;incstack = 0
  4291                           ; Regs used in _utoa: [wreg-fsr0h+status,2+status,0+btemp+1+pclath+cstack]
  4292                           
  4293                           
  4294                           ;C:\Program Files\Microchip\xc8\v3.00\pic\sources\c99\common\doprnt.c: 1001: static void
      +                           utoa(FILE *fp, vfpf_uint_t d);C:\Program Files\Microchip\xc8\v3.00\pic\sources\c99\comm
      +                          on\doprnt.c: 1002: {;C:\Program Files\Microchip\xc8\v3.00\pic\sources\c99\common\doprnt.
      +                          c: 1003:     int i, w;;C:\Program Files\Microchip\xc8\v3.00\pic\sources\c99\common\doprn
      +                          t.c: 1005:  int p;;C:\Program Files\Microchip\xc8\v3.00\pic\sources\c99\common\doprnt.c:
      +                           1017:     p = (0 <= prec) ? prec : 1;
  4295     0803  1683               	bsf	3,5	;RP0=1, select bank1
  4296     0804  1303               	bcf	3,6	;RP1=0, select bank1
  4297     0805  1FEB               	btfss	(_prec+1)^(0+128),7
  4298     0806  2808               	goto	u5251
  4299     0807  2809               	goto	u5250
  4300     0808                     u5251:
  4301     0808  2810               	goto	l3244
  4302     0809                     u5250:
  4303     0809                     l3242:
  4304     0809  3001               	movlw	1
  4305     080A  1283               	bcf	3,5	;RP0=0, select bank0
  4306     080B  1303               	bcf	3,6	;RP1=0, select bank0
  4307     080C  00B5               	movwf	utoa@p
  4308     080D  3000               	movlw	0
  4309     080E  00B6               	movwf	utoa@p+1
  4310     080F  281A               	goto	l793
  4311     0810                     l3244:
  4312     0810  086B               	movf	(_prec+1)^(0+128),w
  4313     0811  1283               	bcf	3,5	;RP0=0, select bank0
  4314     0812  1303               	bcf	3,6	;RP1=0, select bank0
  4315     0813  00B6               	movwf	utoa@p+1
  4316     0814  1683               	bsf	3,5	;RP0=1, select bank1
  4317     0815  1303               	bcf	3,6	;RP1=0, select bank1
  4318     0816  086A               	movf	_prec^(0+128),w
  4319     0817  1283               	bcf	3,5	;RP0=0, select bank0
  4320     0818  1303               	bcf	3,6	;RP1=0, select bank0
  4321     0819  00B5               	movwf	utoa@p
  4322     081A                     l793:
  4323                           
  4324                           ;C:\Program Files\Microchip\xc8\v3.00\pic\sources\c99\common\doprnt.c: 1019:     w = wid
      +                          th;
  4325     081A  1683               	bsf	3,5	;RP0=1, select bank1
  4326     081B  1303               	bcf	3,6	;RP1=0, select bank1
  4327     081C  0869               	movf	(_width+1)^(0+128),w
  4328     081D  1283               	bcf	3,5	;RP0=0, select bank0
  4329     081E  1303               	bcf	3,6	;RP1=0, select bank0
  4330     081F  00B4               	movwf	utoa@w+1
  4331     0820  1683               	bsf	3,5	;RP0=1, select bank1
  4332     0821  1303               	bcf	3,6	;RP1=0, select bank1
  4333     0822  0868               	movf	_width^(0+128),w
  4334     0823  1283               	bcf	3,5	;RP0=0, select bank0
  4335     0824  1303               	bcf	3,6	;RP1=0, select bank0
  4336     0825  00B3               	movwf	utoa@w
  4337                           
  4338                           ;C:\Program Files\Microchip\xc8\v3.00\pic\sources\c99\common\doprnt.c: 1022:     i = siz
      +                          eof(dbuf) - 1;
  4339     0826  304F               	movlw	79
  4340     0827  00B7               	movwf	utoa@i
  4341     0828  3000               	movlw	0
  4342     0829  00B8               	movwf	utoa@i+1
  4343     082A                     l3246:
  4344                           
  4345                           ;C:\Program Files\Microchip\xc8\v3.00\pic\sources\c99\common\doprnt.c: 1023:     dbuf[i]
      +                           = '\0';
  4346     082A  1283               	bcf	3,5	;RP0=0, select bank2
  4347     082B  1703               	bsf	3,6	;RP1=1, select bank2
  4348     082C  01DF               	clrf	(_dbuf^(0+256)+79)
  4349                           
  4350                           ;C:\Program Files\Microchip\xc8\v3.00\pic\sources\c99\common\doprnt.c: 1024:     while (
      +                          i && (d != 0
  4351     082D  286B               	goto	l3258
  4352     082E                     l3248:
  4353                           
  4354                           ;C:\Program Files\Microchip\xc8\v3.00\pic\sources\c99\common\doprnt.c: 1033:     )) {;C:
      +                          \Program Files\Microchip\xc8\v3.00\pic\sources\c99\common\doprnt.c: 1034:         --i;
  4355     082E  30FF               	movlw	255
  4356     082F  1283               	bcf	3,5	;RP0=0, select bank0
  4357     0830  1303               	bcf	3,6	;RP1=0, select bank0
  4358     0831  07B7               	addwf	utoa@i,f
  4359     0832  1803               	skipnc
  4360     0833  0AB8               	incf	utoa@i+1,f
  4361     0834  30FF               	movlw	255
  4362     0835  07B8               	addwf	utoa@i+1,f
  4363     0836                     l3250:
  4364                           
  4365                           ;C:\Program Files\Microchip\xc8\v3.00\pic\sources\c99\common\doprnt.c: 1035:         dbu
      +                          f[i] = '0' + (d % 10);
  4366     0836  0837               	movf	utoa@i,w
  4367     0837  3E10               	addlw	(low (_dbuf| (0+256)))& (0+255)
  4368     0838  0084               	movwf	4
  4369     0839  300A               	movlw	10
  4370     083A  00F0               	movwf	___lwmod@divisor
  4371     083B  3000               	movlw	0
  4372     083C  00F1               	movwf	___lwmod@divisor+1
  4373     083D  0832               	movf	utoa@d+1,w
  4374     083E  00F3               	movwf	___lwmod@dividend+1
  4375     083F  0831               	movf	utoa@d,w
  4376     0840  00F2               	movwf	___lwmod@dividend
  4377     0841  160A  158A  2341  120A  158A  	fcall	___lwmod
  4378     0846  0870               	movf	?___lwmod,w
  4379     0847  3E30               	addlw	48
  4380     0848  1783               	bsf	3,7	;select IRP bank2
  4381     0849  0080               	movwf	0
  4382     084A                     l3252:
  4383                           
  4384                           ;C:\Program Files\Microchip\xc8\v3.00\pic\sources\c99\common\doprnt.c: 1037:         --p
      +                          ;
  4385     084A  30FF               	movlw	255
  4386     084B  1283               	bcf	3,5	;RP0=0, select bank0
  4387     084C  1303               	bcf	3,6	;RP1=0, select bank0
  4388     084D  07B5               	addwf	utoa@p,f
  4389     084E  1803               	skipnc
  4390     084F  0AB6               	incf	utoa@p+1,f
  4391     0850  30FF               	movlw	255
  4392     0851  07B6               	addwf	utoa@p+1,f
  4393     0852                     l3254:
  4394                           
  4395                           ;C:\Program Files\Microchip\xc8\v3.00\pic\sources\c99\common\doprnt.c: 1041:         --w
      +                          ;
  4396     0852  30FF               	movlw	255
  4397     0853  07B3               	addwf	utoa@w,f
  4398     0854  1803               	skipnc
  4399     0855  0AB4               	incf	utoa@w+1,f
  4400     0856  30FF               	movlw	255
  4401     0857  07B4               	addwf	utoa@w+1,f
  4402     0858                     l3256:
  4403                           
  4404                           ;C:\Program Files\Microchip\xc8\v3.00\pic\sources\c99\common\doprnt.c: 1042:         d =
      +                           d / 10;
  4405     0858  300A               	movlw	10
  4406     0859  00F0               	movwf	___lwdiv@divisor
  4407     085A  3000               	movlw	0
  4408     085B  00F1               	movwf	___lwdiv@divisor+1
  4409     085C  0832               	movf	utoa@d+1,w
  4410     085D  00F3               	movwf	___lwdiv@dividend+1
  4411     085E  0831               	movf	utoa@d,w
  4412     085F  00F2               	movwf	___lwdiv@dividend
  4413     0860  160A  158A  23ED  120A  158A  	fcall	___lwdiv
  4414     0865  0871               	movf	?___lwdiv+1,w
  4415     0866  1283               	bcf	3,5	;RP0=0, select bank0
  4416     0867  1303               	bcf	3,6	;RP1=0, select bank0
  4417     0868  00B2               	movwf	utoa@d+1
  4418     0869  0870               	movf	?___lwdiv,w
  4419     086A  00B1               	movwf	utoa@d
  4420     086B                     l3258:
  4421                           
  4422                           ;C:\Program Files\Microchip\xc8\v3.00\pic\sources\c99\common\doprnt.c: 1024:     while (
      +                          i && (d != 0
  4423     086B  1303               	bcf	3,6	;RP1=0, select bank0
  4424     086C  0837               	movf	utoa@i,w
  4425     086D  0438               	iorwf	utoa@i+1,w
  4426     086E  1903               	btfsc	3,2
  4427     086F  2871               	goto	u5261
  4428     0870  2872               	goto	u5260
  4429     0871                     u5261:
  4430     0871  2885               	goto	l3264
  4431     0872                     u5260:
  4432     0872                     l3260:
  4433     0872  0831               	movf	utoa@d,w
  4434     0873  0432               	iorwf	utoa@d+1,w
  4435     0874  1D03               	btfss	3,2
  4436     0875  2877               	goto	u5271
  4437     0876  2878               	goto	u5270
  4438     0877                     u5271:
  4439     0877  282E               	goto	l3248
  4440     0878                     u5270:
  4441     0878                     l3262:
  4442     0878  0836               	movf	utoa@p+1,w
  4443     0879  3A80               	xorlw	128
  4444     087A  00FF               	movwf	btemp+1
  4445     087B  3080               	movlw	128
  4446     087C  027F               	subwf	btemp+1,w
  4447     087D  1D03               	skipz
  4448     087E  2881               	goto	u5285
  4449     087F  3001               	movlw	1
  4450     0880  0235               	subwf	utoa@p,w
  4451     0881                     u5285:
  4452     0881  1803               	skipnc
  4453     0882  2884               	goto	u5281
  4454     0883  2885               	goto	u5280
  4455     0884                     u5281:
  4456     0884  282E               	goto	l3248
  4457     0885                     u5280:
  4458     0885                     l3264:
  4459                           
  4460                           ;C:\Program Files\Microchip\xc8\v3.00\pic\sources\c99\common\doprnt.c: 1046:     return 
      +                          (void) pad(fp, &dbuf[i], w);
  4461     0885  1283               	bcf	3,5	;RP0=0, select bank0
  4462     0886  1303               	bcf	3,6	;RP1=0, select bank0
  4463     0887  082F               	movf	utoa@fp,w
  4464     0888  00A8               	movwf	pad@fp
  4465     0889  0830               	movf	utoa@fp+1,w
  4466     088A  00A9               	movwf	pad@fp+1
  4467     088B  0837               	movf	utoa@i,w
  4468     088C  3E10               	addlw	(low (_dbuf| (0+256)))& (0+255)
  4469     088D  00AA               	movwf	pad@buf
  4470     088E  0834               	movf	utoa@w+1,w
  4471     088F  00AC               	movwf	pad@p+1
  4472     0890  0833               	movf	utoa@w,w
  4473     0891  00AB               	movwf	pad@p
  4474     0892  120A  118A  2003  120A  158A  	fcall	_pad
  4475     0897                     l799:
  4476     0897  0008               	return
  4477     0898                     __end_of_utoa:
  4478                           
  4479                           	psect	text18
  4480     1B41                     __ptext18:	
  4481 ;; *************** function ___lwmod *****************
  4482 ;; Defined at:
  4483 ;;		line 5 in file "C:\Program Files\Microchip\xc8\v3.00\pic\sources\c99\common\lwmod.c"
  4484 ;; Parameters:    Size  Location     Type
  4485 ;;  divisor         2    0[COMMON] unsigned int 
  4486 ;;  dividend        2    2[COMMON] unsigned int 
  4487 ;; Auto vars:     Size  Location     Type
  4488 ;;  counter         1    4[COMMON] unsigned char 
  4489 ;; Return value:  Size  Location     Type
  4490 ;;                  2    0[COMMON] unsigned int 
  4491 ;; Registers used:
  4492 ;;		wreg, status,2, status,0
  4493 ;; Tracked objects:
  4494 ;;		On entry : 0/0
  4495 ;;		On exit  : 0/0
  4496 ;;		Unchanged: 0/0
  4497 ;; Data sizes:     COMMON   BANK0   BANK1   BANK3   BANK2
  4498 ;;      Params:         4       0       0       0       0
  4499 ;;      Locals:         1       0       0       0       0
  4500 ;;      Temps:          0       0       0       0       0
  4501 ;;      Totals:         5       0       0       0       0
  4502 ;;Total ram usage:        5 bytes
  4503 ;; Hardware stack levels used: 1
  4504 ;; This function calls:
  4505 ;;		Nothing
  4506 ;; This function is called by:
  4507 ;;		_utoa
  4508 ;; This function uses a non-reentrant model
  4509 ;;
  4510                           
  4511     1B41                     ___lwmod:	
  4512                           ;psect for function ___lwmod
  4513                           
  4514     1B41                     l2626:	
  4515                           ;incstack = 0
  4516                           ; Regs used in ___lwmod: [wreg+status,2+status,0]
  4517                           
  4518     1B41  0870               	movf	___lwmod@divisor,w
  4519     1B42  0471               	iorwf	___lwmod@divisor+1,w
  4520     1B43  1903               	btfsc	3,2
  4521     1B44  2B46               	goto	u3931
  4522     1B45  2B47               	goto	u3930
  4523     1B46                     u3931:
  4524     1B46  2B74               	goto	l2644
  4525     1B47                     u3930:
  4526     1B47                     l2628:
  4527     1B47  3001               	movlw	1
  4528     1B48  00F4               	movwf	___lwmod@counter
  4529     1B49  2B53               	goto	l2634
  4530     1B4A                     l2630:
  4531     1B4A  3001               	movlw	1
  4532     1B4B                     u3945:
  4533     1B4B  1003               	clrc
  4534     1B4C  0DF0               	rlf	___lwmod@divisor,f
  4535     1B4D  0DF1               	rlf	___lwmod@divisor+1,f
  4536     1B4E  3EFF               	addlw	-1
  4537     1B4F  1D03               	skipz
  4538     1B50  2B4B               	goto	u3945
  4539     1B51                     l2632:
  4540     1B51  3001               	movlw	1
  4541     1B52  07F4               	addwf	___lwmod@counter,f
  4542     1B53                     l2634:
  4543     1B53  1FF1               	btfss	___lwmod@divisor+1,7
  4544     1B54  2B56               	goto	u3951
  4545     1B55  2B57               	goto	u3950
  4546     1B56                     u3951:
  4547     1B56  2B4A               	goto	l2630
  4548     1B57                     u3950:
  4549     1B57                     l2636:
  4550     1B57  0871               	movf	___lwmod@divisor+1,w
  4551     1B58  0273               	subwf	___lwmod@dividend+1,w
  4552     1B59  1D03               	skipz
  4553     1B5A  2B5D               	goto	u3965
  4554     1B5B  0870               	movf	___lwmod@divisor,w
  4555     1B5C  0272               	subwf	___lwmod@dividend,w
  4556     1B5D                     u3965:
  4557     1B5D  1C03               	skipc
  4558     1B5E  2B60               	goto	u3961
  4559     1B5F  2B61               	goto	u3960
  4560     1B60                     u3961:
  4561     1B60  2B67               	goto	l2640
  4562     1B61                     u3960:
  4563     1B61                     l2638:
  4564     1B61  0870               	movf	___lwmod@divisor,w
  4565     1B62  02F2               	subwf	___lwmod@dividend,f
  4566     1B63  0871               	movf	___lwmod@divisor+1,w
  4567     1B64  1C03               	skipc
  4568     1B65  03F3               	decf	___lwmod@dividend+1,f
  4569     1B66  02F3               	subwf	___lwmod@dividend+1,f
  4570     1B67                     l2640:
  4571     1B67  3001               	movlw	1
  4572     1B68                     u3975:
  4573     1B68  1003               	clrc
  4574     1B69  0CF1               	rrf	___lwmod@divisor+1,f
  4575     1B6A  0CF0               	rrf	___lwmod@divisor,f
  4576     1B6B  3EFF               	addlw	-1
  4577     1B6C  1D03               	skipz
  4578     1B6D  2B68               	goto	u3975
  4579     1B6E                     l2642:
  4580     1B6E  3001               	movlw	1
  4581     1B6F  02F4               	subwf	___lwmod@counter,f
  4582     1B70  1D03               	btfss	3,2
  4583     1B71  2B73               	goto	u3981
  4584     1B72  2B74               	goto	u3980
  4585     1B73                     u3981:
  4586     1B73  2B57               	goto	l2636
  4587     1B74                     u3980:
  4588     1B74                     l2644:
  4589     1B74  0873               	movf	___lwmod@dividend+1,w
  4590     1B75  00F1               	movwf	?___lwmod+1
  4591     1B76  0872               	movf	___lwmod@dividend,w
  4592     1B77  00F0               	movwf	?___lwmod
  4593     1B78                     l531:
  4594     1B78  0008               	return
  4595     1B79                     __end_of___lwmod:
  4596                           
  4597                           	psect	text19
  4598     1BED                     __ptext19:	
  4599 ;; *************** function ___lwdiv *****************
  4600 ;; Defined at:
  4601 ;;		line 5 in file "C:\Program Files\Microchip\xc8\v3.00\pic\sources\c99\common\lwdiv.c"
  4602 ;; Parameters:    Size  Location     Type
  4603 ;;  divisor         2    0[COMMON] unsigned int 
  4604 ;;  dividend        2    2[COMMON] unsigned int 
  4605 ;; Auto vars:     Size  Location     Type
  4606 ;;  quotient        2    4[COMMON] unsigned int 
  4607 ;;  counter         1    6[COMMON] unsigned char 
  4608 ;; Return value:  Size  Location     Type
  4609 ;;                  2    0[COMMON] unsigned int 
  4610 ;; Registers used:
  4611 ;;		wreg, status,2, status,0
  4612 ;; Tracked objects:
  4613 ;;		On entry : 0/0
  4614 ;;		On exit  : 0/0
  4615 ;;		Unchanged: 0/0
  4616 ;; Data sizes:     COMMON   BANK0   BANK1   BANK3   BANK2
  4617 ;;      Params:         4       0       0       0       0
  4618 ;;      Locals:         3       0       0       0       0
  4619 ;;      Temps:          0       0       0       0       0
  4620 ;;      Totals:         7       0       0       0       0
  4621 ;;Total ram usage:        7 bytes
  4622 ;; Hardware stack levels used: 1
  4623 ;; This function calls:
  4624 ;;		Nothing
  4625 ;; This function is called by:
  4626 ;;		_utoa
  4627 ;; This function uses a non-reentrant model
  4628 ;;
  4629                           
  4630     1BED                     ___lwdiv:	
  4631                           ;psect for function ___lwdiv
  4632                           
  4633     1BED                     l2600:	
  4634                           ;incstack = 0
  4635                           ; Regs used in ___lwdiv: [wreg+status,2+status,0]
  4636                           
  4637     1BED  01F4               	clrf	___lwdiv@quotient
  4638     1BEE  01F5               	clrf	___lwdiv@quotient+1
  4639     1BEF                     l2602:
  4640     1BEF  0870               	movf	___lwdiv@divisor,w
  4641     1BF0  0471               	iorwf	___lwdiv@divisor+1,w
  4642     1BF1  1903               	btfsc	3,2
  4643     1BF2  2BF4               	goto	u3861
  4644     1BF3  2BF5               	goto	u3860
  4645     1BF4                     u3861:
  4646     1BF4  2C2A               	goto	l2622
  4647     1BF5                     u3860:
  4648     1BF5                     l2604:
  4649     1BF5  3001               	movlw	1
  4650     1BF6  00F6               	movwf	___lwdiv@counter
  4651     1BF7  2C01               	goto	l2610
  4652     1BF8                     l2606:
  4653     1BF8  3001               	movlw	1
  4654     1BF9                     u3875:
  4655     1BF9  1003               	clrc
  4656     1BFA  0DF0               	rlf	___lwdiv@divisor,f
  4657     1BFB  0DF1               	rlf	___lwdiv@divisor+1,f
  4658     1BFC  3EFF               	addlw	-1
  4659     1BFD  1D03               	skipz
  4660     1BFE  2BF9               	goto	u3875
  4661     1BFF                     l2608:
  4662     1BFF  3001               	movlw	1
  4663     1C00  07F6               	addwf	___lwdiv@counter,f
  4664     1C01                     l2610:
  4665     1C01  1FF1               	btfss	___lwdiv@divisor+1,7
  4666     1C02  2C04               	goto	u3881
  4667     1C03  2C05               	goto	u3880
  4668     1C04                     u3881:
  4669     1C04  2BF8               	goto	l2606
  4670     1C05                     u3880:
  4671     1C05                     l2612:
  4672     1C05  3001               	movlw	1
  4673     1C06                     u3895:
  4674     1C06  1003               	clrc
  4675     1C07  0DF4               	rlf	___lwdiv@quotient,f
  4676     1C08  0DF5               	rlf	___lwdiv@quotient+1,f
  4677     1C09  3EFF               	addlw	-1
  4678     1C0A  1D03               	skipz
  4679     1C0B  2C06               	goto	u3895
  4680     1C0C  0871               	movf	___lwdiv@divisor+1,w
  4681     1C0D  0273               	subwf	___lwdiv@dividend+1,w
  4682     1C0E  1D03               	skipz
  4683     1C0F  2C12               	goto	u3905
  4684     1C10  0870               	movf	___lwdiv@divisor,w
  4685     1C11  0272               	subwf	___lwdiv@dividend,w
  4686     1C12                     u3905:
  4687     1C12  1C03               	skipc
  4688     1C13  2C15               	goto	u3901
  4689     1C14  2C16               	goto	u3900
  4690     1C15                     u3901:
  4691     1C15  2C1D               	goto	l2618
  4692     1C16                     u3900:
  4693     1C16                     l2614:
  4694     1C16  0870               	movf	___lwdiv@divisor,w
  4695     1C17  02F2               	subwf	___lwdiv@dividend,f
  4696     1C18  0871               	movf	___lwdiv@divisor+1,w
  4697     1C19  1C03               	skipc
  4698     1C1A  03F3               	decf	___lwdiv@dividend+1,f
  4699     1C1B  02F3               	subwf	___lwdiv@dividend+1,f
  4700     1C1C                     l2616:
  4701     1C1C  1474               	bsf	___lwdiv@quotient,0
  4702     1C1D                     l2618:
  4703     1C1D  3001               	movlw	1
  4704     1C1E                     u3915:
  4705     1C1E  1003               	clrc
  4706     1C1F  0CF1               	rrf	___lwdiv@divisor+1,f
  4707     1C20  0CF0               	rrf	___lwdiv@divisor,f
  4708     1C21  3EFF               	addlw	-1
  4709     1C22  1D03               	skipz
  4710     1C23  2C1E               	goto	u3915
  4711     1C24                     l2620:
  4712     1C24  3001               	movlw	1
  4713     1C25  02F6               	subwf	___lwdiv@counter,f
  4714     1C26  1D03               	btfss	3,2
  4715     1C27  2C29               	goto	u3921
  4716     1C28  2C2A               	goto	u3920
  4717     1C29                     u3921:
  4718     1C29  2C05               	goto	l2612
  4719     1C2A                     u3920:
  4720     1C2A                     l2622:
  4721     1C2A  0875               	movf	___lwdiv@quotient+1,w
  4722     1C2B  00F1               	movwf	?___lwdiv+1
  4723     1C2C  0874               	movf	___lwdiv@quotient,w
  4724     1C2D  00F0               	movwf	?___lwdiv
  4725     1C2E                     l521:
  4726     1C2E  0008               	return
  4727     1C2F                     __end_of___lwdiv:
  4728                           
  4729                           	psect	text20
  4730     10F1                     __ptext20:	
  4731 ;; *************** function _read_prec_or_width *****************
  4732 ;; Defined at:
  4733 ;;		line 1158 in file "C:\Program Files\Microchip\xc8\v3.00\pic\sources\c99\common\doprnt.c"
  4734 ;; Parameters:    Size  Location     Type
  4735 ;;  fmt             1    6[COMMON] PTR PTR const unsigned c
  4736 ;;		 -> vfprintf@cfmt(1), 
  4737 ;;  ap              1    7[COMMON] PTR PTR void [1]
  4738 ;;		 -> sprintf@ap(1), 
  4739 ;; Auto vars:     Size  Location     Type
  4740 ;;  c               1    8[COMMON] unsigned char 
  4741 ;;  n               2    9[COMMON] int 
  4742 ;; Return value:  Size  Location     Type
  4743 ;;                  2    6[COMMON] int 
  4744 ;; Registers used:
  4745 ;;		wreg, fsr0l, fsr0h, status,2, status,0, btemp+1, pclath, cstack
  4746 ;; Tracked objects:
  4747 ;;		On entry : 0/0
  4748 ;;		On exit  : 0/0
  4749 ;;		Unchanged: 0/0
  4750 ;; Data sizes:     COMMON   BANK0   BANK1   BANK3   BANK2
  4751 ;;      Params:         2       0       0       0       0
  4752 ;;      Locals:         3       0       0       0       0
  4753 ;;      Temps:          0       0       0       0       0
  4754 ;;      Totals:         5       0       0       0       0
  4755 ;;Total ram usage:        5 bytes
  4756 ;; Hardware stack levels used: 1
  4757 ;; Hardware stack levels required when called: 1
  4758 ;; This function calls:
  4759 ;;		___wmul
  4760 ;; This function is called by:
  4761 ;;		_vfpfcnvrt
  4762 ;; This function uses a non-reentrant model
  4763 ;;
  4764                           
  4765     10F1                     _read_prec_or_width:	
  4766                           ;psect for function _read_prec_or_width
  4767                           
  4768     10F1                     l3268:	
  4769                           ;incstack = 0
  4770                           ; Regs used in _read_prec_or_width: [wreg-fsr0h+status,2+status,0+btemp+1+pclath+cstack]
  4771                           
  4772                           
  4773                           ;C:\Program Files\Microchip\xc8\v3.00\pic\sources\c99\common\doprnt.c: 1159:     int n =
      +                           0;
  4774     10F1  01F9               	clrf	read_prec_or_width@n
  4775     10F2  01FA               	clrf	read_prec_or_width@n+1
  4776     10F3                     l3270:
  4777                           
  4778                           ;C:\Program Files\Microchip\xc8\v3.00\pic\sources\c99\common\doprnt.c: 1160:     if ((*f
      +                          mt)[0] == '*') {
  4779     10F3  0876               	movf	read_prec_or_width@fmt,w
  4780     10F4  0084               	movwf	4
  4781     10F5  1383               	bcf	3,7	;select IRP bank0
  4782     10F6  0800               	movf	0,w
  4783     10F7  0084               	movwf	4
  4784     10F8  160A  118A  200A  160A  118A  	fcall	stringdir
  4785     10FD  3A2A               	xorlw	42
  4786     10FE  1D03               	skipz
  4787     10FF  2901               	goto	u5291
  4788     1100  2902               	goto	u5290
  4789     1101                     u5291:
  4790     1101  292E               	goto	l3280
  4791     1102                     u5290:
  4792     1102                     l3272:
  4793                           
  4794                           ;C:\Program Files\Microchip\xc8\v3.00\pic\sources\c99\common\doprnt.c: 1161:         ++*
      +                          fmt;
  4795     1102  0876               	movf	read_prec_or_width@fmt,w
  4796     1103  0084               	movwf	4
  4797     1104  3001               	movlw	1
  4798     1105  0780               	addwf	0,f
  4799     1106                     l3274:
  4800                           
  4801                           ;C:\Program Files\Microchip\xc8\v3.00\pic\sources\c99\common\doprnt.c: 1162:         n =
      +                           (*(int *)__va_arg(*(int **)*ap, (int)0));
  4802     1106  0877               	movf	read_prec_or_width@ap,w
  4803     1107  0084               	movwf	4
  4804     1108  0800               	movf	0,w
  4805     1109  00FF               	movwf	btemp+1
  4806     110A  3002               	movlw	2
  4807     110B  0780               	addwf	0,f
  4808     110C  087F               	movf	btemp+1,w
  4809     110D  0084               	movwf	4
  4810     110E  0800               	movf	0,w
  4811     110F  00F9               	movwf	read_prec_or_width@n
  4812     1110  0A84               	incf	4,f
  4813     1111  0800               	movf	0,w
  4814     1112  00FA               	movwf	read_prec_or_width@n+1
  4815                           
  4816                           ;C:\Program Files\Microchip\xc8\v3.00\pic\sources\c99\common\doprnt.c: 1163:     } else 
      +                          {
  4817     1113  293F               	goto	l3282
  4818     1114                     l3276:
  4819                           
  4820                           ;C:\Program Files\Microchip\xc8\v3.00\pic\sources\c99\common\doprnt.c: 1166:            
      +                           n = n * 10 + c;
  4821     1114  087A               	movf	read_prec_or_width@n+1,w
  4822     1115  00F1               	movwf	___wmul@multiplier+1
  4823     1116  0879               	movf	read_prec_or_width@n,w
  4824     1117  00F0               	movwf	___wmul@multiplier
  4825     1118  300A               	movlw	10
  4826     1119  00F2               	movwf	___wmul@multiplicand
  4827     111A  3000               	movlw	0
  4828     111B  00F3               	movwf	___wmul@multiplicand+1
  4829     111C  160A  158A  2251  160A  118A  	fcall	___wmul
  4830     1121  0878               	movf	read_prec_or_width@c,w
  4831     1122  0770               	addwf	?___wmul,w
  4832     1123  00F9               	movwf	read_prec_or_width@n
  4833     1124  3000               	movlw	0
  4834     1125  1803               	skipnc
  4835     1126  3001               	movlw	1
  4836     1127  0771               	addwf	?___wmul+1,w
  4837     1128  00FA               	movwf	read_prec_or_width@n+1
  4838     1129                     l3278:
  4839                           
  4840                           ;C:\Program Files\Microchip\xc8\v3.00\pic\sources\c99\common\doprnt.c: 1167:            
      +                           ++*fmt;
  4841     1129  0876               	movf	read_prec_or_width@fmt,w
  4842     112A  0084               	movwf	4
  4843     112B  3001               	movlw	1
  4844     112C  1383               	bcf	3,7	;select IRP bank0
  4845     112D  0780               	addwf	0,f
  4846     112E                     l3280:
  4847                           
  4848                           ;C:\Program Files\Microchip\xc8\v3.00\pic\sources\c99\common\doprnt.c: 1165:         whi
      +                          le ((c = ((unsigned)(*fmt)[0]) - '0') < 10) {
  4849     112E  0876               	movf	read_prec_or_width@fmt,w
  4850     112F  0084               	movwf	4
  4851     1130  0800               	movf	0,w
  4852     1131  0084               	movwf	4
  4853     1132  160A  118A  200A  160A  118A  	fcall	stringdir
  4854     1137  3ED0               	addlw	208
  4855     1138  00F8               	movwf	read_prec_or_width@c
  4856     1139  300A               	movlw	10
  4857     113A  0278               	subwf	read_prec_or_width@c,w
  4858     113B  1C03               	skipc
  4859     113C  293E               	goto	u5301
  4860     113D  293F               	goto	u5300
  4861     113E                     u5301:
  4862     113E  2914               	goto	l3276
  4863     113F                     u5300:
  4864     113F                     l3282:
  4865                           
  4866                           ;C:\Program Files\Microchip\xc8\v3.00\pic\sources\c99\common\doprnt.c: 1170:     return 
      +                          n;
  4867     113F  087A               	movf	read_prec_or_width@n+1,w
  4868     1140  00F7               	movwf	?_read_prec_or_width+1
  4869     1141  0879               	movf	read_prec_or_width@n,w
  4870     1142  00F6               	movwf	?_read_prec_or_width
  4871     1143                     l807:
  4872     1143  0008               	return
  4873     1144                     __end_of_read_prec_or_width:
  4874                           
  4875                           	psect	text21
  4876     1A51                     __ptext21:	
  4877 ;; *************** function ___wmul *****************
  4878 ;; Defined at:
  4879 ;;		line 15 in file "C:\Program Files\Microchip\xc8\v3.00\pic\sources\c99\common\Umul16.c"
  4880 ;; Parameters:    Size  Location     Type
  4881 ;;  multiplier      2    0[COMMON] unsigned int 
  4882 ;;  multiplicand    2    2[COMMON] unsigned int 
  4883 ;; Auto vars:     Size  Location     Type
  4884 ;;  product         2    4[COMMON] unsigned int 
  4885 ;; Return value:  Size  Location     Type
  4886 ;;                  2    0[COMMON] unsigned int 
  4887 ;; Registers used:
  4888 ;;		wreg, status,2, status,0
  4889 ;; Tracked objects:
  4890 ;;		On entry : 0/0
  4891 ;;		On exit  : 0/0
  4892 ;;		Unchanged: 0/0
  4893 ;; Data sizes:     COMMON   BANK0   BANK1   BANK3   BANK2
  4894 ;;      Params:         4       0       0       0       0
  4895 ;;      Locals:         2       0       0       0       0
  4896 ;;      Temps:          0       0       0       0       0
  4897 ;;      Totals:         6       0       0       0       0
  4898 ;;Total ram usage:        6 bytes
  4899 ;; Hardware stack levels used: 1
  4900 ;; This function calls:
  4901 ;;		Nothing
  4902 ;; This function is called by:
  4903 ;;		_read_prec_or_width
  4904 ;; This function uses a non-reentrant model
  4905 ;;
  4906                           
  4907     1A51                     ___wmul:	
  4908                           ;psect for function ___wmul
  4909                           
  4910     1A51                     l2510:	
  4911                           ;incstack = 0
  4912                           ; Regs used in ___wmul: [wreg+status,2+status,0]
  4913                           
  4914     1A51  01F4               	clrf	___wmul@product
  4915     1A52  01F5               	clrf	___wmul@product+1
  4916     1A53                     l2512:
  4917     1A53  1C70               	btfss	___wmul@multiplier,0
  4918     1A54  2A56               	goto	u3611
  4919     1A55  2A57               	goto	u3610
  4920     1A56                     u3611:
  4921     1A56  2A5D               	goto	l241
  4922     1A57                     u3610:
  4923     1A57                     l2514:
  4924     1A57  0872               	movf	___wmul@multiplicand,w
  4925     1A58  07F4               	addwf	___wmul@product,f
  4926     1A59  1803               	skipnc
  4927     1A5A  0AF5               	incf	___wmul@product+1,f
  4928     1A5B  0873               	movf	___wmul@multiplicand+1,w
  4929     1A5C  07F5               	addwf	___wmul@product+1,f
  4930     1A5D                     l241:
  4931     1A5D  3001               	movlw	1
  4932     1A5E                     u3625:
  4933     1A5E  1003               	clrc
  4934     1A5F  0DF2               	rlf	___wmul@multiplicand,f
  4935     1A60  0DF3               	rlf	___wmul@multiplicand+1,f
  4936     1A61  3EFF               	addlw	-1
  4937     1A62  1D03               	skipz
  4938     1A63  2A5E               	goto	u3625
  4939     1A64                     l2516:
  4940     1A64  3001               	movlw	1
  4941     1A65                     u3635:
  4942     1A65  1003               	clrc
  4943     1A66  0CF1               	rrf	___wmul@multiplier+1,f
  4944     1A67  0CF0               	rrf	___wmul@multiplier,f
  4945     1A68  3EFF               	addlw	-1
  4946     1A69  1D03               	skipz
  4947     1A6A  2A65               	goto	u3635
  4948     1A6B                     l2518:
  4949     1A6B  0870               	movf	___wmul@multiplier,w
  4950     1A6C  0471               	iorwf	___wmul@multiplier+1,w
  4951     1A6D  1D03               	btfss	3,2
  4952     1A6E  2A70               	goto	u3641
  4953     1A6F  2A71               	goto	u3640
  4954     1A70                     u3641:
  4955     1A70  2A53               	goto	l2512
  4956     1A71                     u3640:
  4957     1A71                     l2520:
  4958     1A71  0875               	movf	___wmul@product+1,w
  4959     1A72  00F1               	movwf	?___wmul+1
  4960     1A73  0874               	movf	___wmul@product,w
  4961     1A74  00F0               	movwf	?___wmul
  4962     1A75                     l243:
  4963     1A75  0008               	return
  4964     1A76                     __end_of___wmul:
  4965                           
  4966                           	psect	text22
  4967     11F8                     __ptext22:	
  4968 ;; *************** function _efgtoa *****************
  4969 ;; Defined at:
  4970 ;;		line 587 in file "C:\Program Files\Microchip\xc8\v3.00\pic\sources\c99\common\doprnt.c"
  4971 ;; Parameters:    Size  Location     Type
  4972 ;;  fp              2   46[BANK0 ] PTR struct _IO_FILE
  4973 ;;		 -> sprintf@f(11), 
  4974 ;;  f               4   48[BANK0 ] PTR struct _IO_FILE
  4975 ;;  c               1   52[BANK0 ] unsigned char 
  4976 ;; Auto vars:     Size  Location     Type
  4977 ;;  u               4   40[BANK1 ] struct flui
  4978 ;;  g               4   36[BANK1 ] struct flui
  4979 ;;  l               4   29[BANK1 ] struct flui
  4980 ;;  h               4   25[BANK1 ] struct flui
  4981 ;;  ou              4   19[BANK1 ] struct flui
  4982 ;;  n               2   34[BANK1 ] int 
  4983 ;;  i               2   23[BANK1 ] int 
  4984 ;;  w               2   17[BANK1 ] int 
  4985 ;;  e               2   15[BANK1 ] int 
  4986 ;;  m               2   13[BANK1 ] int 
  4987 ;;  d               2   11[BANK1 ] int 
  4988 ;;  t               2    4[BANK1 ] int 
  4989 ;;  p               2    2[BANK1 ] int 
  4990 ;;  ne              2    0[BANK1 ] int 
  4991 ;;  sign            1   33[BANK1 ] unsigned char 
  4992 ;;  nmode           1   10[BANK1 ] unsigned char 
  4993 ;;  mode            1    9[BANK1 ] unsigned char 
  4994 ;;  pp              1    8[BANK1 ] unsigned char 
  4995 ;;  esign           1    0        unsigned char 
  4996 ;; Return value:  Size  Location     Type
  4997 ;;                  1    wreg      void 
  4998 ;; Registers used:
  4999 ;;		wreg, fsr0l, fsr0h, status,2, status,0, btemp+1, pclath, cstack
  5000 ;; Tracked objects:
  5001 ;;		On entry : 0/0
  5002 ;;		On exit  : 0/0
  5003 ;;		Unchanged: 0/0
  5004 ;; Data sizes:     COMMON   BANK0   BANK1   BANK3   BANK2
  5005 ;;      Params:         0       7       0       0       0
  5006 ;;      Locals:         0       0      44       0       0
  5007 ;;      Temps:          0       4       0       0       0
  5008 ;;      Totals:         0      11      44       0       0
  5009 ;;Total ram usage:       55 bytes
  5010 ;; Hardware stack levels used: 1
  5011 ;; Hardware stack levels required when called: 4
  5012 ;; This function calls:
  5013 ;;		___fladd
  5014 ;;		___fldiv
  5015 ;;		___fleq
  5016 ;;		___flge
  5017 ;;		___flmul
  5018 ;;		___flneg
  5019 ;;		___flsub
  5020 ;;		___fltol
  5021 ;;		___fpclassifyf
  5022 ;;		_floorf
  5023 ;;		_labs
  5024 ;;		_memcpy
  5025 ;;		_pad
  5026 ;;		_strcpy
  5027 ;; This function is called by:
  5028 ;;		_vfpfcnvrt
  5029 ;; This function uses a non-reentrant model
  5030 ;;
  5031                           
  5032     11F8                     _efgtoa:	
  5033                           ;psect for function _efgtoa
  5034                           
  5035     11F8                     l3026:	
  5036                           ;incstack = 0
  5037                           ; Regs used in _efgtoa: [wreg-fsr0h+status,2+status,0+btemp+1+pclath+cstack]
  5038                           
  5039                           
  5040                           ;C:\Program Files\Microchip\xc8\v3.00\pic\sources\c99\common\doprnt.c: 587: static void 
      +                          efgtoa(FILE *fp, long double f, char c);C:\Program Files\Microchip\xc8\v3.00\pic\sources
      +                          \c99\common\doprnt.c: 588: {;C:\Program Files\Microchip\xc8\v3.00\pic\sources\c99\common
      +                          \doprnt.c: 589:     char mode, nmode, pp, sign, esign;;C:\Program Files\Microchip\xc8\v3
      +                          .00\pic\sources\c99\common\doprnt.c: 590:     int d, e, i, m, n, ne, p, t, w;;C:\Program
      +                           Files\Microchip\xc8\v3.00\pic\sources\c99\common\doprnt.c: 591:     long double h, l;
  5041     11F8  1683               	bsf	3,5	;RP0=1, select bank1
  5042     11F9  1303               	bcf	3,6	;RP1=0, select bank1
  5043     11FA  01C1               	clrf	efgtoa@sign^(0+128)
  5044     11FB                     l3028:
  5045                           
  5046                           ;C:\Program Files\Microchip\xc8\v3.00\pic\sources\c99\common\doprnt.c: 596:     g.f = f;
  5047     11FB  1283               	bcf	3,5	;RP0=0, select bank0
  5048     11FC  1303               	bcf	3,6	;RP1=0, select bank0
  5049     11FD  0853               	movf	efgtoa@f+3,w
  5050     11FE  1683               	bsf	3,5	;RP0=1, select bank1
  5051     11FF  1303               	bcf	3,6	;RP1=0, select bank1
  5052     1200  00C7               	movwf	(efgtoa@g+3)^(0+128)
  5053     1201  1283               	bcf	3,5	;RP0=0, select bank0
  5054     1202  1303               	bcf	3,6	;RP1=0, select bank0
  5055     1203  0852               	movf	efgtoa@f+2,w
  5056     1204  1683               	bsf	3,5	;RP0=1, select bank1
  5057     1205  1303               	bcf	3,6	;RP1=0, select bank1
  5058     1206  00C6               	movwf	(efgtoa@g+2)^(0+128)
  5059     1207  1283               	bcf	3,5	;RP0=0, select bank0
  5060     1208  1303               	bcf	3,6	;RP1=0, select bank0
  5061     1209  0851               	movf	efgtoa@f+1,w
  5062     120A  1683               	bsf	3,5	;RP0=1, select bank1
  5063     120B  1303               	bcf	3,6	;RP1=0, select bank1
  5064     120C  00C5               	movwf	(efgtoa@g+1)^(0+128)
  5065     120D  1283               	bcf	3,5	;RP0=0, select bank0
  5066     120E  1303               	bcf	3,6	;RP1=0, select bank0
  5067     120F  0850               	movf	efgtoa@f,w
  5068     1210  1683               	bsf	3,5	;RP0=1, select bank1
  5069     1211  1303               	bcf	3,6	;RP1=0, select bank1
  5070     1212  00C4               	movwf	efgtoa@g^(0+128)
  5071     1213                     l3030:
  5072                           
  5073                           ;C:\Program Files\Microchip\xc8\v3.00\pic\sources\c99\common\doprnt.c: 597:     if (g.f 
      +                          < 0.0) {
  5074     1213  0847               	movf	(efgtoa@g+3)^(0+128),w
  5075     1214  1283               	bcf	3,5	;RP0=0, select bank0
  5076     1215  1303               	bcf	3,6	;RP1=0, select bank0
  5077     1216  00B8               	movwf	___flge@ff1+3
  5078     1217  1683               	bsf	3,5	;RP0=1, select bank1
  5079     1218  1303               	bcf	3,6	;RP1=0, select bank1
  5080     1219  0846               	movf	(efgtoa@g+2)^(0+128),w
  5081     121A  1283               	bcf	3,5	;RP0=0, select bank0
  5082     121B  1303               	bcf	3,6	;RP1=0, select bank0
  5083     121C  00B7               	movwf	___flge@ff1+2
  5084     121D  1683               	bsf	3,5	;RP0=1, select bank1
  5085     121E  1303               	bcf	3,6	;RP1=0, select bank1
  5086     121F  0845               	movf	(efgtoa@g+1)^(0+128),w
  5087     1220  1283               	bcf	3,5	;RP0=0, select bank0
  5088     1221  1303               	bcf	3,6	;RP1=0, select bank0
  5089     1222  00B6               	movwf	___flge@ff1+1
  5090     1223  1683               	bsf	3,5	;RP0=1, select bank1
  5091     1224  1303               	bcf	3,6	;RP1=0, select bank1
  5092     1225  0844               	movf	efgtoa@g^(0+128),w
  5093     1226  1283               	bcf	3,5	;RP0=0, select bank0
  5094     1227  1303               	bcf	3,6	;RP1=0, select bank0
  5095     1228  00B5               	movwf	___flge@ff1
  5096     1229  3000               	movlw	0
  5097     122A  00BC               	movwf	___flge@ff2+3
  5098     122B  3000               	movlw	0
  5099     122C  00BB               	movwf	___flge@ff2+2
  5100     122D  3000               	movlw	0
  5101     122E  00BA               	movwf	___flge@ff2+1
  5102     122F  3000               	movlw	0
  5103     1230  00B9               	movwf	___flge@ff2
  5104     1231  160A  158A  26B8  160A  118A  	fcall	___flge
  5105     1236  1803               	btfsc	3,0
  5106     1237  2A39               	goto	u4901
  5107     1238  2A3A               	goto	u4900
  5108     1239                     u4901:
  5109     1239  2A55               	goto	l3036
  5110     123A                     u4900:
  5111     123A                     l3032:
  5112                           
  5113                           ;C:\Program Files\Microchip\xc8\v3.00\pic\sources\c99\common\doprnt.c: 598:         sign
      +                           = 1;
  5114     123A  3001               	movlw	1
  5115     123B  1683               	bsf	3,5	;RP0=1, select bank1
  5116     123C  1303               	bcf	3,6	;RP1=0, select bank1
  5117     123D  00C1               	movwf	efgtoa@sign^(0+128)
  5118     123E                     l3034:
  5119                           
  5120                           ;C:\Program Files\Microchip\xc8\v3.00\pic\sources\c99\common\doprnt.c: 599:         g.f 
      +                          = -g.f;
  5121     123E  0847               	movf	(efgtoa@g+3)^(0+128),w
  5122     123F  00F3               	movwf	___flneg@f1+3
  5123     1240  0846               	movf	(efgtoa@g+2)^(0+128),w
  5124     1241  00F2               	movwf	___flneg@f1+2
  5125     1242  0845               	movf	(efgtoa@g+1)^(0+128),w
  5126     1243  00F1               	movwf	___flneg@f1+1
  5127     1244  0844               	movf	efgtoa@g^(0+128),w
  5128     1245  00F0               	movwf	___flneg@f1
  5129     1246  160A  158A  215D  160A  118A  	fcall	___flneg
  5130     124B  0873               	movf	?___flneg+3,w
  5131     124C  1683               	bsf	3,5	;RP0=1, select bank1
  5132     124D  1303               	bcf	3,6	;RP1=0, select bank1
  5133     124E  00C7               	movwf	(efgtoa@g+3)^(0+128)
  5134     124F  0872               	movf	?___flneg+2,w
  5135     1250  00C6               	movwf	(efgtoa@g+2)^(0+128)
  5136     1251  0871               	movf	?___flneg+1,w
  5137     1252  00C5               	movwf	(efgtoa@g+1)^(0+128)
  5138     1253  0870               	movf	?___flneg,w
  5139     1254  00C4               	movwf	efgtoa@g^(0+128)
  5140     1255                     l3036:
  5141                           
  5142                           ;C:\Program Files\Microchip\xc8\v3.00\pic\sources\c99\common\doprnt.c: 603:     n = 0;
  5143     1255  1683               	bsf	3,5	;RP0=1, select bank1
  5144     1256  1303               	bcf	3,6	;RP1=0, select bank1
  5145     1257  01C2               	clrf	efgtoa@n^(0+128)
  5146     1258  01C3               	clrf	(efgtoa@n+1)^(0+128)
  5147     1259                     l3038:
  5148                           
  5149                           ;C:\Program Files\Microchip\xc8\v3.00\pic\sources\c99\common\doprnt.c: 604:     w = widt
      +                          h;
  5150     1259  0869               	movf	(_width+1)^(0+128),w
  5151     125A  00B2               	movwf	(efgtoa@w+1)^(0+128)
  5152     125B  0868               	movf	_width^(0+128),w
  5153     125C  00B1               	movwf	efgtoa@w^(0+128)
  5154     125D                     l3040:
  5155                           
  5156                           ;C:\Program Files\Microchip\xc8\v3.00\pic\sources\c99\common\doprnt.c: 605:     if (sign
  5157     125D  0841               	movf	efgtoa@sign^(0+128),w
  5158     125E  1903               	btfsc	3,2
  5159     125F  2A61               	goto	u4911
  5160     1260  2A62               	goto	u4910
  5161     1261                     u4911:
  5162     1261  2A72               	goto	l3048
  5163     1262                     u4910:
  5164     1262                     l3042:
  5165                           
  5166                           ;C:\Program Files\Microchip\xc8\v3.00\pic\sources\c99\common\doprnt.c: 609:    ) {;C:\Pr
      +                          ogram Files\Microchip\xc8\v3.00\pic\sources\c99\common\doprnt.c: 610:   sign = sign ? '-
      +                          ' : '+';
  5167     1262  0841               	movf	efgtoa@sign^(0+128),w
  5168     1263  1D03               	btfss	3,2
  5169     1264  2A66               	goto	u4921
  5170     1265  2A67               	goto	u4920
  5171     1266                     u4921:
  5172     1266  2A6C               	goto	l3046
  5173     1267                     u4920:
  5174     1267                     l3044:
  5175     1267  302B               	movlw	43
  5176     1268  00A6               	movwf	_efgtoa$705^(0+128)
  5177     1269  3000               	movlw	0
  5178     126A  00A7               	movwf	(_efgtoa$705^(0+128)+1)
  5179     126B  2A70               	goto	l743
  5180     126C                     l3046:
  5181     126C  302D               	movlw	45
  5182     126D  00A6               	movwf	_efgtoa$705^(0+128)
  5183     126E  3000               	movlw	0
  5184     126F  00A7               	movwf	(_efgtoa$705^(0+128)+1)
  5185     1270                     l743:
  5186     1270  0826               	movf	_efgtoa$705^(0+128),w
  5187     1271  00C1               	movwf	efgtoa@sign^(0+128)
  5188     1272                     l3048:
  5189                           
  5190                           ;C:\Program Files\Microchip\xc8\v3.00\pic\sources\c99\common\doprnt.c: 619:     if (( __
      +                          fpclassifyf(g.f) == 1 )) {
  5191     1272  0847               	movf	(efgtoa@g+3)^(0+128),w
  5192     1273  00F3               	movwf	___fpclassifyf@x+3
  5193     1274  0846               	movf	(efgtoa@g+2)^(0+128),w
  5194     1275  00F2               	movwf	___fpclassifyf@x+2
  5195     1276  0845               	movf	(efgtoa@g+1)^(0+128),w
  5196     1277  00F1               	movwf	___fpclassifyf@x+1
  5197     1278  0844               	movf	efgtoa@g^(0+128),w
  5198     1279  00F0               	movwf	___fpclassifyf@x
  5199     127A  160A  158A  24F1  160A  118A  	fcall	___fpclassifyf
  5200     127F  0370               	decf	?___fpclassifyf,w
  5201     1280  0471               	iorwf	?___fpclassifyf+1,w
  5202     1281  1D03               	btfss	3,2
  5203     1282  2A84               	goto	u4931
  5204     1283  2A85               	goto	u4930
  5205     1284                     u4931:
  5206     1284  2ACA               	goto	l3062
  5207     1285                     u4930:
  5208     1285                     l3050:
  5209                           
  5210                           ;C:\Program Files\Microchip\xc8\v3.00\pic\sources\c99\common\doprnt.c: 620:   if (sign) 
      +                          {
  5211     1285  1683               	bsf	3,5	;RP0=1, select bank1
  5212     1286  1303               	bcf	3,6	;RP1=0, select bank1
  5213     1287  0841               	movf	efgtoa@sign^(0+128),w
  5214     1288  1903               	btfsc	3,2
  5215     1289  2A8B               	goto	u4941
  5216     128A  2A8C               	goto	u4940
  5217     128B                     u4941:
  5218     128B  2A9C               	goto	l3054
  5219     128C                     u4940:
  5220     128C                     l3052:
  5221                           
  5222                           ;C:\Program Files\Microchip\xc8\v3.00\pic\sources\c99\common\doprnt.c: 621:    dbuf[0] =
      +                           sign;
  5223     128C  0841               	movf	efgtoa@sign^(0+128),w
  5224     128D  1283               	bcf	3,5	;RP0=0, select bank2
  5225     128E  1703               	bsf	3,6	;RP1=1, select bank2
  5226     128F  0090               	movwf	_dbuf^(0+256)
  5227                           
  5228                           ;C:\Program Files\Microchip\xc8\v3.00\pic\sources\c99\common\doprnt.c: 622:    w--;
  5229     1290  30FF               	movlw	255
  5230     1291  1683               	bsf	3,5	;RP0=1, select bank1
  5231     1292  1303               	bcf	3,6	;RP1=0, select bank1
  5232     1293  07B1               	addwf	efgtoa@w^(0+128),f
  5233     1294  1803               	skipnc
  5234     1295  0AB2               	incf	(efgtoa@w+1)^(0+128),f
  5235     1296  30FF               	movlw	255
  5236     1297  07B2               	addwf	(efgtoa@w+1)^(0+128),f
  5237                           
  5238                           ;C:\Program Files\Microchip\xc8\v3.00\pic\sources\c99\common\doprnt.c: 623:    n = 1;
  5239     1298  3001               	movlw	1
  5240     1299  00C2               	movwf	efgtoa@n^(0+128)
  5241     129A  3000               	movlw	0
  5242     129B  00C3               	movwf	(efgtoa@n^(0+128)+1)
  5243     129C                     l3054:
  5244                           
  5245                           ;C:\Program Files\Microchip\xc8\v3.00\pic\sources\c99\common\doprnt.c: 631:   {;C:\Progr
      +                          am Files\Microchip\xc8\v3.00\pic\sources\c99\common\doprnt.c: 632:             strcpy(&d
      +                          buf[n], "inf");
  5246     129C  0842               	movf	efgtoa@n^(0+128),w
  5247     129D  3E10               	addlw	(low (_dbuf| (0+256)))& (0+255)
  5248     129E  00F0               	movwf	strcpy@dest
  5249     129F  30C1               	movlw	(low ((STR_19-__stringbase)| (0+32768)))& (0+255)
  5250     12A0  00F1               	movwf	strcpy@src
  5251     12A1  160A  158A  21AC  160A  118A  	fcall	_strcpy
  5252     12A6                     l3056:
  5253                           
  5254                           ;C:\Program Files\Microchip\xc8\v3.00\pic\sources\c99\common\doprnt.c: 633:         };C:
      +                          \Program Files\Microchip\xc8\v3.00\pic\sources\c99\common\doprnt.c: 634:         w -= ((
      +                          sizeof("inf")/sizeof("inf"[0]))-1);
  5255     12A6  30FD               	movlw	253
  5256     12A7  1683               	bsf	3,5	;RP0=1, select bank1
  5257     12A8  1303               	bcf	3,6	;RP1=0, select bank1
  5258     12A9  07B1               	addwf	efgtoa@w^(0+128),f
  5259     12AA  1803               	skipnc
  5260     12AB  0AB2               	incf	(efgtoa@w+1)^(0+128),f
  5261     12AC  30FF               	movlw	255
  5262     12AD  07B2               	addwf	(efgtoa@w+1)^(0+128),f
  5263     12AE                     l3058:
  5264                           
  5265                           ;C:\Program Files\Microchip\xc8\v3.00\pic\sources\c99\common\doprnt.c: 635:         retu
      +                          rn (void) pad(fp, &dbuf[0], w);
  5266     12AE  1283               	bcf	3,5	;RP0=0, select bank0
  5267     12AF  1303               	bcf	3,6	;RP1=0, select bank0
  5268     12B0  084E               	movf	efgtoa@fp,w
  5269     12B1  00A8               	movwf	pad@fp
  5270     12B2  084F               	movf	efgtoa@fp+1,w
  5271     12B3  00A9               	movwf	pad@fp+1
  5272     12B4  3010               	movlw	(low (_dbuf| (0+256)))& (0+255)
  5273     12B5  00AA               	movwf	pad@buf
  5274     12B6  1683               	bsf	3,5	;RP0=1, select bank1
  5275     12B7  1303               	bcf	3,6	;RP1=0, select bank1
  5276     12B8  0832               	movf	(efgtoa@w+1)^(0+128),w
  5277     12B9  1283               	bcf	3,5	;RP0=0, select bank0
  5278     12BA  1303               	bcf	3,6	;RP1=0, select bank0
  5279     12BB  00AC               	movwf	pad@p+1
  5280     12BC  1683               	bsf	3,5	;RP0=1, select bank1
  5281     12BD  1303               	bcf	3,6	;RP1=0, select bank1
  5282     12BE  0831               	movf	efgtoa@w^(0+128),w
  5283     12BF  1283               	bcf	3,5	;RP0=0, select bank0
  5284     12C0  1303               	bcf	3,6	;RP1=0, select bank0
  5285     12C1  00AB               	movwf	pad@p
  5286     12C2  120A  118A  2003  160A  118A  	fcall	_pad
  5287     12C7  120A  118A  2FE3   	goto	l746
  5288     12CA                     l3062:
  5289                           
  5290                           ;C:\Program Files\Microchip\xc8\v3.00\pic\sources\c99\common\doprnt.c: 637:     if (( __
      +                          fpclassifyf(g.f) == 0 )) {
  5291     12CA  1683               	bsf	3,5	;RP0=1, select bank1
  5292     12CB  1303               	bcf	3,6	;RP1=0, select bank1
  5293     12CC  0847               	movf	(efgtoa@g+3)^(0+128),w
  5294     12CD  00F3               	movwf	___fpclassifyf@x+3
  5295     12CE  0846               	movf	(efgtoa@g+2)^(0+128),w
  5296     12CF  00F2               	movwf	___fpclassifyf@x+2
  5297     12D0  0845               	movf	(efgtoa@g+1)^(0+128),w
  5298     12D1  00F1               	movwf	___fpclassifyf@x+1
  5299     12D2  0844               	movf	efgtoa@g^(0+128),w
  5300     12D3  00F0               	movwf	___fpclassifyf@x
  5301     12D4  160A  158A  24F1  160A  118A  	fcall	___fpclassifyf
  5302     12D9  0870               	movf	?___fpclassifyf,w
  5303     12DA  0471               	iorwf	?___fpclassifyf+1,w
  5304     12DB  1D03               	btfss	3,2
  5305     12DC  2ADE               	goto	u4951
  5306     12DD  2AE1               	goto	u4950
  5307     12DE                     u4951:
  5308     12DE  120A  118A  2841   	goto	l3076
  5309     12E1                     u4950:
  5310     12E1                     l3064:
  5311                           
  5312                           ;C:\Program Files\Microchip\xc8\v3.00\pic\sources\c99\common\doprnt.c: 638:   if (sign) 
      +                          {
  5313     12E1  1683               	bsf	3,5	;RP0=1, select bank1
  5314     12E2  1303               	bcf	3,6	;RP1=0, select bank1
  5315     12E3  0841               	movf	efgtoa@sign^(0+128),w
  5316     12E4  1903               	btfsc	3,2
  5317     12E5  2AE7               	goto	u4961
  5318     12E6  2AE8               	goto	u4960
  5319     12E7                     u4961:
  5320     12E7  2AF8               	goto	l3068
  5321     12E8                     u4960:
  5322     12E8                     l3066:
  5323                           
  5324                           ;C:\Program Files\Microchip\xc8\v3.00\pic\sources\c99\common\doprnt.c: 639:    dbuf[0] =
      +                           sign;
  5325     12E8  0841               	movf	efgtoa@sign^(0+128),w
  5326     12E9  1283               	bcf	3,5	;RP0=0, select bank2
  5327     12EA  1703               	bsf	3,6	;RP1=1, select bank2
  5328     12EB  0090               	movwf	_dbuf^(0+256)
  5329                           
  5330                           ;C:\Program Files\Microchip\xc8\v3.00\pic\sources\c99\common\doprnt.c: 640:    w--;
  5331     12EC  30FF               	movlw	255
  5332     12ED  1683               	bsf	3,5	;RP0=1, select bank1
  5333     12EE  1303               	bcf	3,6	;RP1=0, select bank1
  5334     12EF  07B1               	addwf	efgtoa@w^(0+128),f
  5335     12F0  1803               	skipnc
  5336     12F1  0AB2               	incf	(efgtoa@w+1)^(0+128),f
  5337     12F2  30FF               	movlw	255
  5338     12F3  07B2               	addwf	(efgtoa@w+1)^(0+128),f
  5339                           
  5340                           ;C:\Program Files\Microchip\xc8\v3.00\pic\sources\c99\common\doprnt.c: 641:    n = 1;
  5341     12F4  3001               	movlw	1
  5342     12F5  00C2               	movwf	efgtoa@n^(0+128)
  5343     12F6  3000               	movlw	0
  5344     12F7  00C3               	movwf	(efgtoa@n^(0+128)+1)
  5345     12F8                     l3068:
  5346                           
  5347                           ;C:\Program Files\Microchip\xc8\v3.00\pic\sources\c99\common\doprnt.c: 649:   {;C:\Progr
      +                          am Files\Microchip\xc8\v3.00\pic\sources\c99\common\doprnt.c: 650:             strcpy(&d
      +                          buf[n], "nan");
  5348     12F8  0842               	movf	efgtoa@n^(0+128),w
  5349     12F9  3E10               	addlw	(low (_dbuf| (0+256)))& (0+255)
  5350     12FA  00F0               	movwf	strcpy@dest
  5351     12FB  30C5               	movlw	(low ((STR_22-__stringbase)| (0+32768)))& (0+255)
  5352     12FC  00F1               	movwf	strcpy@src
  5353     12FD  160A  158A  21AC  160A  118A  	fcall	_strcpy
  5354     1302  2AA6               	goto	l3056
  5355                           
  5356                           	psect	text23
  5357     19AC                     __ptext23:	
  5358 ;; *************** function _strcpy *****************
  5359 ;; Defined at:
  5360 ;;		line 3 in file "C:\Program Files\Microchip\xc8\v3.00\pic\sources\c99\common\strcpy.c"
  5361 ;; Parameters:    Size  Location     Type
  5362 ;;  dest            1    0[COMMON] PTR unsigned char 
  5363 ;;		 -> dbuf(80), 
  5364 ;;  src             1    1[COMMON] PTR const unsigned char 
  5365 ;;		 -> STR_22(4), STR_19(4), 
  5366 ;; Auto vars:     Size  Location     Type
  5367 ;;  d               1    2[COMMON] PTR unsigned char 
  5368 ;;		 -> dbuf(80), 
  5369 ;; Return value:  Size  Location     Type
  5370 ;;                  1    0[COMMON] PTR unsigned char 
  5371 ;; Registers used:
  5372 ;;		wreg, fsr0l, fsr0h, status,2, status,0, btemp+1, pclath
  5373 ;; Tracked objects:
  5374 ;;		On entry : 0/0
  5375 ;;		On exit  : 0/0
  5376 ;;		Unchanged: 0/0
  5377 ;; Data sizes:     COMMON   BANK0   BANK1   BANK3   BANK2
  5378 ;;      Params:         2       0       0       0       0
  5379 ;;      Locals:         1       0       0       0       0
  5380 ;;      Temps:          0       0       0       0       0
  5381 ;;      Totals:         3       0       0       0       0
  5382 ;;Total ram usage:        3 bytes
  5383 ;; Hardware stack levels used: 2
  5384 ;; This function calls:
  5385 ;;		Nothing
  5386 ;; This function is called by:
  5387 ;;		_efgtoa
  5388 ;; This function uses a non-reentrant model
  5389 ;;
  5390                           
  5391     19AC                     _strcpy:	
  5392                           ;psect for function _strcpy
  5393                           
  5394     19AC                     l2976:	
  5395                           ;incstack = 0
  5396                           ; Regs used in _strcpy: [wreg-fsr0h+status,2+status,0+btemp+1+pclath]
  5397                           
  5398     19AC  0870               	movf	strcpy@dest,w
  5399     19AD  00F2               	movwf	strcpy@d
  5400     19AE                     l2978:
  5401     19AE  3001               	movlw	1
  5402     19AF  07F1               	addwf	strcpy@src,f
  5403     19B0  30FF               	movlw	-1
  5404     19B1  0771               	addwf	strcpy@src,w
  5405     19B2  0084               	movwf	4
  5406     19B3  160A  118A  200A  160A  158A  	fcall	stringdir
  5407     19B8  00FF               	movwf	btemp+1
  5408     19B9  0872               	movf	strcpy@d,w
  5409     19BA  0AF2               	incf	strcpy@d,f
  5410     19BB  0084               	movwf	4
  5411     19BC  087F               	movf	btemp+1,w
  5412     19BD  1783               	bsf	3,7	;select IRP bank2
  5413     19BE  0080               	movwf	0
  5414     19BF  0800               	movf	0,w
  5415     19C0  1D03               	btfss	3,2
  5416     19C1  29C3               	goto	u4751
  5417     19C2  29C4               	goto	u4750
  5418     19C3                     u4751:
  5419     19C3  29AE               	goto	l2978
  5420     19C4                     u4750:
  5421     19C4                     l906:
  5422     19C4  0008               	return
  5423     19C5                     __end_of_strcpy:
  5424                           
  5425                           	psect	text24
  5426     0003                     __ptext24:	
  5427 ;; *************** function _pad *****************
  5428 ;; Defined at:
  5429 ;;		line 193 in file "C:\Program Files\Microchip\xc8\v3.00\pic\sources\c99\common\doprnt.c"
  5430 ;; Parameters:    Size  Location     Type
  5431 ;;  fp              2    8[BANK0 ] PTR struct _IO_FILE
  5432 ;;		 -> sprintf@f(11), 
  5433 ;;  buf             1   10[BANK0 ] PTR unsigned char 
  5434 ;;		 -> dbuf(80), 
  5435 ;;  p               2   11[BANK0 ] int 
  5436 ;; Auto vars:     Size  Location     Type
  5437 ;;  i               2   13[BANK0 ] int 
  5438 ;; Return value:  Size  Location     Type
  5439 ;;                  1    wreg      void 
  5440 ;; Registers used:
  5441 ;;		wreg, fsr0l, fsr0h, status,2, status,0, pclath, cstack
  5442 ;; Tracked objects:
  5443 ;;		On entry : 0/0
  5444 ;;		On exit  : 0/0
  5445 ;;		Unchanged: 0/0
  5446 ;; Data sizes:     COMMON   BANK0   BANK1   BANK3   BANK2
  5447 ;;      Params:         0       5       0       0       0
  5448 ;;      Locals:         0       2       0       0       0
  5449 ;;      Temps:          1       0       0       0       0
  5450 ;;      Totals:         1       7       0       0       0
  5451 ;;Total ram usage:        8 bytes
  5452 ;; Hardware stack levels used: 1
  5453 ;; Hardware stack levels required when called: 3
  5454 ;; This function calls:
  5455 ;;		_fputc
  5456 ;;		_fputs
  5457 ;; This function is called by:
  5458 ;;		_efgtoa
  5459 ;;		_utoa
  5460 ;; This function uses a non-reentrant model
  5461 ;;
  5462                           
  5463     0003                     _pad:	
  5464                           ;psect for function _pad
  5465                           
  5466     0003                     l2940:	
  5467                           ;incstack = 0
  5468                           ; Regs used in _pad: [wreg-fsr0h+status,2+status,0+pclath+cstack]
  5469                           
  5470                           
  5471                           ;C:\Program Files\Microchip\xc8\v3.00\pic\sources\c99\common\doprnt.c: 193: static void 
      +                          pad(FILE *fp, char *buf, int p);C:\Program Files\Microchip\xc8\v3.00\pic\sources\c99\com
      +                          mon\doprnt.c: 194: {;C:\Program Files\Microchip\xc8\v3.00\pic\sources\c99\common\doprnt.
      +                          c: 195:     int i;;C:\Program Files\Microchip\xc8\v3.00\pic\sources\c99\common\doprnt.c:
      +                           205:  if (p < 0) {
  5472     0003  1283               	bcf	3,5	;RP0=0, select bank0
  5473     0004  1303               	bcf	3,6	;RP1=0, select bank0
  5474     0005  1FAC               	btfss	pad@p+1,7
  5475     0006  2808               	goto	u4651
  5476     0007  2809               	goto	u4650
  5477     0008                     u4651:
  5478     0008  280B               	goto	l731
  5479     0009                     u4650:
  5480     0009                     l2942:
  5481                           
  5482                           ;C:\Program Files\Microchip\xc8\v3.00\pic\sources\c99\common\doprnt.c: 206:   p = 0;
  5483     0009  01AB               	clrf	pad@p
  5484     000A  01AC               	clrf	pad@p+1
  5485     000B                     l731:	
  5486                           ;C:\Program Files\Microchip\xc8\v3.00\pic\sources\c99\common\doprnt.c: 207:  }
  5487                           
  5488                           
  5489                           ;C:\Program Files\Microchip\xc8\v3.00\pic\sources\c99\common\doprnt.c: 208:     i = 0;
  5490     000B  01AD               	clrf	pad@i
  5491     000C  01AE               	clrf	pad@i+1
  5492                           
  5493                           ;C:\Program Files\Microchip\xc8\v3.00\pic\sources\c99\common\doprnt.c: 209:     while (i
      +                           < p) {
  5494     000D  2825               	goto	l2948
  5495     000E                     l2944:
  5496                           
  5497                           ;C:\Program Files\Microchip\xc8\v3.00\pic\sources\c99\common\doprnt.c: 210:         fput
      +                          c(' ', fp);
  5498     000E  3020               	movlw	32
  5499     000F  00F0               	movwf	fputc@c
  5500     0010  3000               	movlw	0
  5501     0011  00F1               	movwf	fputc@c+1
  5502     0012  1283               	bcf	3,5	;RP0=0, select bank0
  5503     0013  1303               	bcf	3,6	;RP1=0, select bank0
  5504     0014  0828               	movf	pad@fp,w
  5505     0015  00F2               	movwf	fputc@fp
  5506     0016  0829               	movf	pad@fp+1,w
  5507     0017  00F3               	movwf	fputc@fp+1
  5508     0018  160A  158A  257E  120A  118A  	fcall	_fputc
  5509     001D                     l2946:
  5510                           
  5511                           ;C:\Program Files\Microchip\xc8\v3.00\pic\sources\c99\common\doprnt.c: 211:         ++i;
  5512     001D  3001               	movlw	1
  5513     001E  1283               	bcf	3,5	;RP0=0, select bank0
  5514     001F  1303               	bcf	3,6	;RP1=0, select bank0
  5515     0020  07AD               	addwf	pad@i,f
  5516     0021  1803               	skipnc
  5517     0022  0AAE               	incf	pad@i+1,f
  5518     0023  3000               	movlw	0
  5519     0024  07AE               	addwf	pad@i+1,f
  5520     0025                     l2948:
  5521                           
  5522                           ;C:\Program Files\Microchip\xc8\v3.00\pic\sources\c99\common\doprnt.c: 209:     while (i
      +                           < p) {
  5523     0025  082E               	movf	pad@i+1,w
  5524     0026  3A80               	xorlw	128
  5525     0027  00FD               	movwf	??_pad
  5526     0028  082C               	movf	pad@p+1,w
  5527     0029  3A80               	xorlw	128
  5528     002A  027D               	subwf	??_pad,w
  5529     002B  1D03               	skipz
  5530     002C  282F               	goto	u4665
  5531     002D  082B               	movf	pad@p,w
  5532     002E  022D               	subwf	pad@i,w
  5533     002F                     u4665:
  5534     002F  1C03               	skipc
  5535     0030  2832               	goto	u4661
  5536     0031  2833               	goto	u4660
  5537     0032                     u4661:
  5538     0032  280E               	goto	l2944
  5539     0033                     u4660:
  5540     0033                     l2950:
  5541                           
  5542                           ;C:\Program Files\Microchip\xc8\v3.00\pic\sources\c99\common\doprnt.c: 218:         fput
      +                          s((const char *)buf, fp);
  5543     0033  1283               	bcf	3,5	;RP0=0, select bank0
  5544     0034  1303               	bcf	3,6	;RP1=0, select bank0
  5545     0035  082A               	movf	pad@buf,w
  5546     0036  00A0               	movwf	fputs@s
  5547     0037  0828               	movf	pad@fp,w
  5548     0038  00A1               	movwf	fputs@fp
  5549     0039  0829               	movf	pad@fp+1,w
  5550     003A  00A2               	movwf	fputs@fp+1
  5551     003B  160A  158A  22E9  120A  118A  	fcall	_fputs
  5552     0040                     l735:
  5553     0040  0008               	return
  5554     0041                     __end_of_pad:
  5555                           
  5556                           	psect	text25
  5557     1AE9                     __ptext25:	
  5558 ;; *************** function _fputs *****************
  5559 ;; Defined at:
  5560 ;;		line 8 in file "C:\Program Files\Microchip\xc8\v3.00\pic\sources\c99\common\nf_fputs.c"
  5561 ;; Parameters:    Size  Location     Type
  5562 ;;  s               1    0[BANK0 ] PTR const unsigned char 
  5563 ;;		 -> dbuf(80), 
  5564 ;;  fp              2    1[BANK0 ] PTR struct _IO_FILE
  5565 ;;		 -> sprintf@f(11), 
  5566 ;; Auto vars:     Size  Location     Type
  5567 ;;  i               2    6[BANK0 ] int 
  5568 ;;  c               1    5[BANK0 ] unsigned char 
  5569 ;; Return value:  Size  Location     Type
  5570 ;;                  2    0[BANK0 ] int 
  5571 ;; Registers used:
  5572 ;;		wreg, fsr0l, fsr0h, status,2, status,0, pclath, cstack
  5573 ;; Tracked objects:
  5574 ;;		On entry : 0/0
  5575 ;;		On exit  : 0/0
  5576 ;;		Unchanged: 0/0
  5577 ;; Data sizes:     COMMON   BANK0   BANK1   BANK3   BANK2
  5578 ;;      Params:         0       3       0       0       0
  5579 ;;      Locals:         0       3       0       0       0
  5580 ;;      Temps:          0       2       0       0       0
  5581 ;;      Totals:         0       8       0       0       0
  5582 ;;Total ram usage:        8 bytes
  5583 ;; Hardware stack levels used: 1
  5584 ;; Hardware stack levels required when called: 2
  5585 ;; This function calls:
  5586 ;;		_fputc
  5587 ;; This function is called by:
  5588 ;;		_pad
  5589 ;; This function uses a non-reentrant model
  5590 ;;
  5591                           
  5592     1AE9                     _fputs:	
  5593                           ;psect for function _fputs
  5594                           
  5595     1AE9                     l2502:	
  5596                           ;incstack = 0
  5597                           ; Regs used in _fputs: [wreg-fsr0h+status,2+status,0+pclath+cstack]
  5598                           
  5599     1AE9  1283               	bcf	3,5	;RP0=0, select bank0
  5600     1AEA  1303               	bcf	3,6	;RP1=0, select bank0
  5601     1AEB  01A6               	clrf	fputs@i
  5602     1AEC  01A7               	clrf	fputs@i+1
  5603     1AED  2B06               	goto	l2508
  5604     1AEE                     l2504:
  5605     1AEE  0825               	movf	fputs@c,w
  5606     1AEF  00A3               	movwf	??_fputs
  5607     1AF0  01A4               	clrf	??_fputs+1
  5608     1AF1  0823               	movf	??_fputs,w
  5609     1AF2  00F0               	movwf	fputc@c
  5610     1AF3  0824               	movf	??_fputs+1,w
  5611     1AF4  00F1               	movwf	fputc@c+1
  5612     1AF5  0821               	movf	fputs@fp,w
  5613     1AF6  00F2               	movwf	fputc@fp
  5614     1AF7  0822               	movf	fputs@fp+1,w
  5615     1AF8  00F3               	movwf	fputc@fp+1
  5616     1AF9  160A  158A  257E  160A  158A  	fcall	_fputc
  5617     1AFE                     l2506:
  5618     1AFE  3001               	movlw	1
  5619     1AFF  1283               	bcf	3,5	;RP0=0, select bank0
  5620     1B00  1303               	bcf	3,6	;RP1=0, select bank0
  5621     1B01  07A6               	addwf	fputs@i,f
  5622     1B02  1803               	skipnc
  5623     1B03  0AA7               	incf	fputs@i+1,f
  5624     1B04  3000               	movlw	0
  5625     1B05  07A7               	addwf	fputs@i+1,f
  5626     1B06                     l2508:
  5627     1B06  0826               	movf	fputs@i,w
  5628     1B07  0720               	addwf	fputs@s,w
  5629     1B08  00A3               	movwf	??_fputs
  5630     1B09  0823               	movf	??_fputs,w
  5631     1B0A  0084               	movwf	4
  5632     1B0B  1783               	bsf	3,7	;select IRP bank2
  5633     1B0C  0800               	movf	0,w
  5634     1B0D  00A5               	movwf	fputs@c
  5635     1B0E  0825               	movf	fputs@c,w
  5636     1B0F  1D03               	btfss	3,2
  5637     1B10  2B12               	goto	u3601
  5638     1B11  2B13               	goto	u3600
  5639     1B12                     u3601:
  5640     1B12  2AEE               	goto	l2504
  5641     1B13                     u3600:
  5642     1B13                     l897:
  5643     1B13  0008               	return
  5644     1B14                     __end_of_fputs:
  5645                           
  5646                           	psect	text26
  5647     1D7E                     __ptext26:	
  5648 ;; *************** function _fputc *****************
  5649 ;; Defined at:
  5650 ;;		line 8 in file "C:\Program Files\Microchip\xc8\v3.00\pic\sources\c99\common\nf_fputc.c"
  5651 ;; Parameters:    Size  Location     Type
  5652 ;;  c               2    0[COMMON] int 
  5653 ;;  fp              2    2[COMMON] PTR struct _IO_FILE
  5654 ;;		 -> sprintf@f(11), 
  5655 ;; Auto vars:     Size  Location     Type
  5656 ;;		None
  5657 ;; Return value:  Size  Location     Type
  5658 ;;                  2    0[COMMON] int 
  5659 ;; Registers used:
  5660 ;;		wreg, fsr0l, fsr0h, status,2, status,0, pclath, cstack
  5661 ;; Tracked objects:
  5662 ;;		On entry : 0/0
  5663 ;;		On exit  : 0/0
  5664 ;;		Unchanged: 0/0
  5665 ;; Data sizes:     COMMON   BANK0   BANK1   BANK3   BANK2
  5666 ;;      Params:         4       0       0       0       0
  5667 ;;      Locals:         0       0       0       0       0
  5668 ;;      Temps:          9       0       0       0       0
  5669 ;;      Totals:        13       0       0       0       0
  5670 ;;Total ram usage:       13 bytes
  5671 ;; Hardware stack levels used: 1
  5672 ;; Hardware stack levels required when called: 1
  5673 ;; This function calls:
  5674 ;;		_putch
  5675 ;; This function is called by:
  5676 ;;		_pad
  5677 ;;		_vfpfcnvrt
  5678 ;;		_fputs
  5679 ;; This function uses a non-reentrant model
  5680 ;;
  5681                           
  5682     1D7E                     _fputc:	
  5683                           ;psect for function _fputc
  5684                           
  5685     1D7E                     l2276:	
  5686                           ;incstack = 0
  5687                           ; Regs used in _fputc: [wreg-fsr0h+status,2+status,0+pclath+cstack]
  5688                           
  5689     1D7E  0872               	movf	fputc@fp,w
  5690     1D7F  0473               	iorwf	fputc@fp+1,w
  5691     1D80  1903               	btfsc	3,2
  5692     1D81  2D83               	goto	u3061
  5693     1D82  2D84               	goto	u3060
  5694     1D83                     u3061:
  5695     1D83  2D8A               	goto	l2280
  5696     1D84                     u3060:
  5697     1D84                     l2278:
  5698     1D84  0872               	movf	fputc@fp,w
  5699     1D85  0473               	iorwf	fputc@fp+1,w
  5700     1D86  1D03               	btfss	3,2
  5701     1D87  2D89               	goto	u3071
  5702     1D88  2D8A               	goto	u3070
  5703     1D89                     u3071:
  5704     1D89  2D91               	goto	l2282
  5705     1D8A                     u3070:
  5706     1D8A                     l2280:
  5707     1D8A  0870               	movf	fputc@c,w
  5708     1D8B  120A  158A  2002  160A  158A  	fcall	_putch
  5709     1D90  2E17               	goto	l889
  5710     1D91                     l2282:
  5711     1D91  0872               	movf	fputc@fp,w
  5712     1D92  3E09               	addlw	9
  5713     1D93  00F4               	movwf	??_fputc
  5714     1D94  0873               	movf	fputc@fp+1,w
  5715     1D95  1803               	skipnc
  5716     1D96  3E01               	addlw	1
  5717     1D97  3E00               	addlw	0
  5718     1D98  00F5               	movwf	??_fputc+1
  5719     1D99  0874               	movf	??_fputc,w
  5720     1D9A  0084               	movwf	4
  5721     1D9B  1783               	bsf	3,7
  5722     1D9C  1C75               	btfss	??_fputc+1,0
  5723     1D9D  1383               	bcf	3,7
  5724     1D9E  0800               	movf	0,w
  5725     1D9F  00F6               	movwf	??_fputc+2
  5726     1DA0  0A84               	incf	4,f
  5727     1DA1  0800               	movf	0,w
  5728     1DA2  00F7               	movwf	??_fputc+3
  5729     1DA3  0876               	movf	??_fputc+2,w
  5730     1DA4  0477               	iorwf	??_fputc+3,w
  5731     1DA5  1903               	btfsc	3,2
  5732     1DA6  2DA8               	goto	u3081
  5733     1DA7  2DA9               	goto	u3080
  5734     1DA8                     u3081:
  5735     1DA8  2DDB               	goto	l2286
  5736     1DA9                     u3080:
  5737     1DA9                     l2284:
  5738     1DA9  0872               	movf	fputc@fp,w
  5739     1DAA  3E09               	addlw	9
  5740     1DAB  00F4               	movwf	??_fputc
  5741     1DAC  0873               	movf	fputc@fp+1,w
  5742     1DAD  1803               	skipnc
  5743     1DAE  3E01               	addlw	1
  5744     1DAF  3E00               	addlw	0
  5745     1DB0  00F5               	movwf	??_fputc+1
  5746     1DB1  0874               	movf	??_fputc,w
  5747     1DB2  0084               	movwf	4
  5748     1DB3  1783               	bsf	3,7
  5749     1DB4  1C75               	btfss	??_fputc+1,0
  5750     1DB5  1383               	bcf	3,7
  5751     1DB6  0800               	movf	0,w
  5752     1DB7  00F6               	movwf	??_fputc+2
  5753     1DB8  0A84               	incf	4,f
  5754     1DB9  0800               	movf	0,w
  5755     1DBA  00F7               	movwf	??_fputc+3
  5756     1DBB  0872               	movf	fputc@fp,w
  5757     1DBC  3E02               	addlw	2
  5758     1DBD  00F8               	movwf	??_fputc+4
  5759     1DBE  0873               	movf	fputc@fp+1,w
  5760     1DBF  1803               	skipnc
  5761     1DC0  3E01               	addlw	1
  5762     1DC1  3E00               	addlw	0
  5763     1DC2  00F9               	movwf	??_fputc+5
  5764     1DC3  0878               	movf	??_fputc+4,w
  5765     1DC4  0084               	movwf	4
  5766     1DC5  1783               	bsf	3,7
  5767     1DC6  1C79               	btfss	??_fputc+5,0
  5768     1DC7  1383               	bcf	3,7
  5769     1DC8  0800               	movf	0,w
  5770     1DC9  00FA               	movwf	??_fputc+6
  5771     1DCA  0A84               	incf	4,f
  5772     1DCB  0800               	movf	0,w
  5773     1DCC  00FB               	movwf	??_fputc+7
  5774     1DCD  087B               	movf	??_fputc+7,w
  5775     1DCE  3A80               	xorlw	128
  5776     1DCF  00FC               	movwf	??_fputc+8
  5777     1DD0  0877               	movf	??_fputc+3,w
  5778     1DD1  3A80               	xorlw	128
  5779     1DD2  027C               	subwf	??_fputc+8,w
  5780     1DD3  1D03               	skipz
  5781     1DD4  2DD7               	goto	u3095
  5782     1DD5  0876               	movf	??_fputc+2,w
  5783     1DD6  027A               	subwf	??_fputc+6,w
  5784     1DD7                     u3095:
  5785     1DD7  1803               	skipnc
  5786     1DD8  2DDA               	goto	u3091
  5787     1DD9  2DDB               	goto	u3090
  5788     1DDA                     u3091:
  5789     1DDA  2E17               	goto	l889
  5790     1DDB                     u3090:
  5791     1DDB                     l2286:
  5792     1DDB  0872               	movf	fputc@fp,w
  5793     1DDC  0084               	movwf	4
  5794     1DDD  1783               	bsf	3,7
  5795     1DDE  1C73               	btfss	fputc@fp+1,0
  5796     1DDF  1383               	bcf	3,7
  5797     1DE0  0800               	movf	0,w
  5798     1DE1  00F4               	movwf	??_fputc
  5799     1DE2  0A84               	incf	4,f
  5800     1DE3  0800               	movf	0,w
  5801     1DE4  00F5               	movwf	??_fputc+1
  5802     1DE5  0872               	movf	fputc@fp,w
  5803     1DE6  3E02               	addlw	2
  5804     1DE7  00F6               	movwf	??_fputc+2
  5805     1DE8  0873               	movf	fputc@fp+1,w
  5806     1DE9  1803               	skipnc
  5807     1DEA  3E01               	addlw	1
  5808     1DEB  3E00               	addlw	0
  5809     1DEC  00F7               	movwf	??_fputc+3
  5810     1DED  0876               	movf	??_fputc+2,w
  5811     1DEE  0084               	movwf	4
  5812     1DEF  1783               	bsf	3,7
  5813     1DF0  1C77               	btfss	??_fputc+3,0
  5814     1DF1  1383               	bcf	3,7
  5815     1DF2  0800               	movf	0,w
  5816     1DF3  0774               	addwf	??_fputc,w
  5817     1DF4  00F9               	movwf	??_fputc+5
  5818     1DF5  0875               	movf	??_fputc+1,w
  5819     1DF6  00F8               	movwf	??_fputc+4
  5820     1DF7  1803               	skipnc
  5821     1DF8  0AF8               	incf	??_fputc+4,f
  5822     1DF9  1F80               	btfss	0,7
  5823     1DFA  2DFC               	goto	u3100
  5824     1DFB  03F8               	decf	??_fputc+4,f
  5825     1DFC                     u3100:
  5826     1DFC  0878               	movf	??_fputc+4,w
  5827     1DFD  00FA               	movwf	??_fputc+6
  5828     1DFE  0879               	movf	??_fputc+5,w
  5829     1DFF  0084               	movwf	4
  5830     1E00  1783               	bsf	3,7
  5831     1E01  1C7A               	btfss	??_fputc+6,0
  5832     1E02  1383               	bcf	3,7
  5833     1E03  0870               	movf	fputc@c,w
  5834     1E04  0080               	movwf	0
  5835     1E05  0872               	movf	fputc@fp,w
  5836     1E06  3E02               	addlw	2
  5837     1E07  00F4               	movwf	??_fputc
  5838     1E08  0873               	movf	fputc@fp+1,w
  5839     1E09  1803               	skipnc
  5840     1E0A  3E01               	addlw	1
  5841     1E0B  3E00               	addlw	0
  5842     1E0C  00F5               	movwf	??_fputc+1
  5843     1E0D  0874               	movf	??_fputc,w
  5844     1E0E  0084               	movwf	4
  5845     1E0F  1783               	bsf	3,7
  5846     1E10  1C75               	btfss	??_fputc+1,0
  5847     1E11  1383               	bcf	3,7
  5848     1E12  3001               	movlw	1
  5849     1E13  0780               	addwf	0,f
  5850     1E14  0A84               	incf	4,f
  5851     1E15  1803               	skipnc
  5852     1E16  0A80               	incf	0,f
  5853     1E17                     l889:
  5854     1E17  0008               	return
  5855     1E18                     __end_of_fputc:
  5856                           
  5857                           	psect	text27
  5858     0802                     __ptext27:	
  5859 ;; *************** function _putch *****************
  5860 ;; Defined at:
  5861 ;;		line 7 in file "C:\Program Files\Microchip\xc8\v3.00\pic\sources\c99\common\putch.c"
  5862 ;; Parameters:    Size  Location     Type
  5863 ;;  c               1    wreg     unsigned char 
  5864 ;; Auto vars:     Size  Location     Type
  5865 ;;  c               1    0[COMMON] unsigned char 
  5866 ;; Return value:  Size  Location     Type
  5867 ;;                  1    wreg      void 
  5868 ;; Registers used:
  5869 ;;		wreg
  5870 ;; Tracked objects:
  5871 ;;		On entry : 0/0
  5872 ;;		On exit  : 0/0
  5873 ;;		Unchanged: 0/0
  5874 ;; Data sizes:     COMMON   BANK0   BANK1   BANK3   BANK2
  5875 ;;      Params:         0       0       0       0       0
  5876 ;;      Locals:         0       0       0       0       0
  5877 ;;      Temps:          0       0       0       0       0
  5878 ;;      Totals:         0       0       0       0       0
  5879 ;;Total ram usage:        0 bytes
  5880 ;; Hardware stack levels used: 1
  5881 ;; This function calls:
  5882 ;;		Nothing
  5883 ;; This function is called by:
  5884 ;;		_fputc
  5885 ;; This function uses a non-reentrant model
  5886 ;;
  5887                           
  5888     0802                     _putch:	
  5889                           ;psect for function _putch
  5890                           
  5891     0802                     l900:	
  5892                           ;incstack = 0
  5893                           ; Regs used in _putch: [wreg]
  5894                           
  5895     0802  0008               	return
  5896     0803                     __end_of_putch:
  5897                           
  5898                           	psect	text28
  5899     19C5                     __ptext28:	
  5900 ;; *************** function _memcpy *****************
  5901 ;; Defined at:
  5902 ;;		line 4 in file "C:\Program Files\Microchip\xc8\v3.00\pic\sources\c99\common\memcpy.c"
  5903 ;; Parameters:    Size  Location     Type
  5904 ;;  d1              1    0[COMMON] PTR void 
  5905 ;;		 -> dbuf(80), 
  5906 ;;  s1              1    1[COMMON] PTR const void 
  5907 ;;		 -> dbuf(80), 
  5908 ;;  n               2    2[COMMON] unsigned int 
  5909 ;; Auto vars:     Size  Location     Type
  5910 ;;  s               1    6[COMMON] PTR const unsigned char 
  5911 ;;		 -> dbuf(80), 
  5912 ;;  d               1    5[COMMON] PTR unsigned char 
  5913 ;;		 -> dbuf(80), 
  5914 ;;  tmp             1    4[COMMON] unsigned char 
  5915 ;; Return value:  Size  Location     Type
  5916 ;;                  1    0[COMMON] PTR void 
  5917 ;; Registers used:
  5918 ;;		wreg, fsr0l, fsr0h, status,2, status,0
  5919 ;; Tracked objects:
  5920 ;;		On entry : 0/0
  5921 ;;		On exit  : 0/0
  5922 ;;		Unchanged: 0/0
  5923 ;; Data sizes:     COMMON   BANK0   BANK1   BANK3   BANK2
  5924 ;;      Params:         4       0       0       0       0
  5925 ;;      Locals:         3       0       0       0       0
  5926 ;;      Temps:          0       0       0       0       0
  5927 ;;      Totals:         7       0       0       0       0
  5928 ;;Total ram usage:        7 bytes
  5929 ;; Hardware stack levels used: 1
  5930 ;; This function calls:
  5931 ;;		Nothing
  5932 ;; This function is called by:
  5933 ;;		_efgtoa
  5934 ;; This function uses a non-reentrant model
  5935 ;;
  5936                           
  5937     19C5                     _memcpy:	
  5938                           ;psect for function _memcpy
  5939                           
  5940     19C5                     l3018:	
  5941                           ;incstack = 0
  5942                           ; Regs used in _memcpy: [wreg-fsr0h+status,2+status,0]
  5943                           
  5944     19C5  0871               	movf	memcpy@s1,w
  5945     19C6  00F6               	movwf	memcpy@s
  5946     19C7  0870               	movf	memcpy@d1,w
  5947     19C8  00F5               	movwf	memcpy@d
  5948     19C9  29D7               	goto	l874
  5949     19CA                     l3020:
  5950     19CA  0876               	movf	memcpy@s,w
  5951     19CB  0084               	movwf	4
  5952     19CC  1783               	bsf	3,7	;select IRP bank2
  5953     19CD  0800               	movf	0,w
  5954     19CE  00F4               	movwf	memcpy@tmp
  5955     19CF                     l3022:
  5956     19CF  3001               	movlw	1
  5957     19D0  07F6               	addwf	memcpy@s,f
  5958     19D1                     l3024:
  5959     19D1  0875               	movf	memcpy@d,w
  5960     19D2  0084               	movwf	4
  5961     19D3  0874               	movf	memcpy@tmp,w
  5962     19D4  0080               	movwf	0
  5963     19D5  3001               	movlw	1
  5964     19D6  07F5               	addwf	memcpy@d,f
  5965     19D7                     l874:
  5966     19D7  3001               	movlw	1
  5967     19D8  02F2               	subwf	memcpy@n,f
  5968     19D9  3000               	movlw	0
  5969     19DA  1C03               	skipc
  5970     19DB  03F3               	decf	memcpy@n+1,f
  5971     19DC  02F3               	subwf	memcpy@n+1,f
  5972     19DD  0A72               	incf	memcpy@n,w
  5973     19DE  1D03               	skipz
  5974     19DF  29E4               	goto	u4891
  5975     19E0  0A73               	incf	memcpy@n+1,w
  5976     19E1  1D03               	btfss	3,2
  5977     19E2  29E4               	goto	u4891
  5978     19E3  29E5               	goto	u4890
  5979     19E4                     u4891:
  5980     19E4  29CA               	goto	l3020
  5981     19E5                     u4890:
  5982     19E5                     l877:
  5983     19E5  0008               	return
  5984     19E6                     __end_of_memcpy:
  5985                           
  5986                           	psect	text29
  5987     10DC                     __ptext29:	
  5988 ;; *************** function _labs *****************
  5989 ;; Defined at:
  5990 ;;		line 1 in file "C:\Program Files\Microchip\xc8\v3.00\pic\sources\c99\common\labs.c"
  5991 ;; Parameters:    Size  Location     Type
  5992 ;;  a               4    0[COMMON] long 
  5993 ;; Auto vars:     Size  Location     Type
  5994 ;;		None
  5995 ;; Return value:  Size  Location     Type
  5996 ;;                  4    0[COMMON] long 
  5997 ;; Registers used:
  5998 ;;		wreg, status,2, status,0
  5999 ;; Tracked objects:
  6000 ;;		On entry : 0/0
  6001 ;;		On exit  : 0/0
  6002 ;;		Unchanged: 0/0
  6003 ;; Data sizes:     COMMON   BANK0   BANK1   BANK3   BANK2
  6004 ;;      Params:         4       0       0       0       0
  6005 ;;      Locals:         0       0       0       0       0
  6006 ;;      Temps:          0       0       0       0       0
  6007 ;;      Totals:         4       0       0       0       0
  6008 ;;Total ram usage:        4 bytes
  6009 ;; Hardware stack levels used: 1
  6010 ;; This function calls:
  6011 ;;		Nothing
  6012 ;; This function is called by:
  6013 ;;		_efgtoa
  6014 ;; This function uses a non-reentrant model
  6015 ;;
  6016                           
  6017     10DC                     _labs:	
  6018                           ;psect for function _labs
  6019                           
  6020     10DC                     l2980:	
  6021                           ;incstack = 0
  6022                           ; Regs used in _labs: [wreg+status,2+status,0]
  6023                           
  6024     10DC  1BF3               	btfsc	labs@a+3,7
  6025     10DD  28DF               	goto	u4761
  6026     10DE  28E0               	goto	u4760
  6027     10DF                     u4761:
  6028     10DF  28E1               	goto	l2984
  6029     10E0                     u4760:
  6030     10E0                     l2982:
  6031     10E0  28F0               	goto	l871
  6032     10E1                     l2984:
  6033     10E1  0970               	comf	labs@a,w
  6034     10E2  00F0               	movwf	?_labs
  6035     10E3  0971               	comf	labs@a+1,w
  6036     10E4  00F1               	movwf	?_labs+1
  6037     10E5  0972               	comf	labs@a+2,w
  6038     10E6  00F2               	movwf	?_labs+2
  6039     10E7  0973               	comf	labs@a+3,w
  6040     10E8  00F3               	movwf	?_labs+3
  6041     10E9  0AF0               	incf	?_labs,f
  6042     10EA  1903               	skipnz
  6043     10EB  0AF1               	incf	?_labs+1,f
  6044     10EC  1903               	skipnz
  6045     10ED  0AF2               	incf	?_labs+2,f
  6046     10EE  1903               	skipnz
  6047     10EF  0AF3               	incf	?_labs+3,f
  6048     10F0                     l871:
  6049     10F0  0008               	return
  6050     10F1                     __end_of_labs:
  6051                           
  6052                           	psect	text30
  6053     1303                     __ptext30:	
  6054 ;; *************** function _floorf *****************
  6055 ;; Defined at:
  6056 ;;		line 3 in file "C:\Program Files\Microchip\xc8\v3.00\pic\sources\c99\common\floorf.c"
  6057 ;; Parameters:    Size  Location     Type
  6058 ;;  x               4   26[BANK0 ] float 
  6059 ;; Auto vars:     Size  Location     Type
  6060 ;;  u               4   42[BANK0 ] struct .
  6061 ;;  m               4   36[BANK0 ] unsigned long 
  6062 ;;  e               2   40[BANK0 ] int 
  6063 ;; Return value:  Size  Location     Type
  6064 ;;                  4   26[BANK0 ] float 
  6065 ;; Registers used:
  6066 ;;		wreg, status,2, status,0, btemp+1
  6067 ;; Tracked objects:
  6068 ;;		On entry : 0/0
  6069 ;;		On exit  : 0/0
  6070 ;;		Unchanged: 0/0
  6071 ;; Data sizes:     COMMON   BANK0   BANK1   BANK3   BANK2
  6072 ;;      Params:         0       4       0       0       0
  6073 ;;      Locals:         0      10       0       0       0
  6074 ;;      Temps:          0       6       0       0       0
  6075 ;;      Totals:         0      20       0       0       0
  6076 ;;Total ram usage:       20 bytes
  6077 ;; Hardware stack levels used: 1
  6078 ;; This function calls:
  6079 ;;		Nothing
  6080 ;; This function is called by:
  6081 ;;		_efgtoa
  6082 ;; This function uses a non-reentrant model
  6083 ;;
  6084                           
  6085     1303                     _floorf:	
  6086                           ;psect for function _floorf
  6087                           
  6088     1303                     l2988:	
  6089                           ;incstack = 0
  6090                           ; Regs used in _floorf: [wreg+status,2+status,0+btemp+1]
  6091                           
  6092     1303  1683               	bsf	3,5	;RP0=1, select bank3
  6093     1304  1703               	bsf	3,6	;RP1=1, select bank3
  6094     1305  0835               	movf	(floorf@F521+3)^(0+384),w
  6095     1306  1283               	bcf	3,5	;RP0=0, select bank0
  6096     1307  1303               	bcf	3,6	;RP1=0, select bank0
  6097     1308  00CD               	movwf	floorf@u+3
  6098     1309  1683               	bsf	3,5	;RP0=1, select bank3
  6099     130A  1703               	bsf	3,6	;RP1=1, select bank3
  6100     130B  0834               	movf	(floorf@F521+2)^(0+384),w
  6101     130C  1283               	bcf	3,5	;RP0=0, select bank0
  6102     130D  1303               	bcf	3,6	;RP1=0, select bank0
  6103     130E  00CC               	movwf	floorf@u+2
  6104     130F  1683               	bsf	3,5	;RP0=1, select bank3
  6105     1310  1703               	bsf	3,6	;RP1=1, select bank3
  6106     1311  0833               	movf	(floorf@F521+1)^(0+384),w
  6107     1312  1283               	bcf	3,5	;RP0=0, select bank0
  6108     1313  1303               	bcf	3,6	;RP1=0, select bank0
  6109     1314  00CB               	movwf	floorf@u+1
  6110     1315  1683               	bsf	3,5	;RP0=1, select bank3
  6111     1316  1703               	bsf	3,6	;RP1=1, select bank3
  6112     1317  0832               	movf	floorf@F521^(0+384),w
  6113     1318  1283               	bcf	3,5	;RP0=0, select bank0
  6114     1319  1303               	bcf	3,6	;RP1=0, select bank0
  6115     131A  00CA               	movwf	floorf@u
  6116     131B  083D               	movf	floorf@x+3,w
  6117     131C  00CD               	movwf	floorf@u+3
  6118     131D  083C               	movf	floorf@x+2,w
  6119     131E  00CC               	movwf	floorf@u+2
  6120     131F  083B               	movf	floorf@x+1,w
  6121     1320  00CB               	movwf	floorf@u+1
  6122     1321  083A               	movf	floorf@x,w
  6123     1322  00CA               	movwf	floorf@u
  6124     1323                     l2990:
  6125     1323  084A               	movf	floorf@u,w
  6126     1324  00BE               	movwf	??_floorf
  6127     1325  084B               	movf	floorf@u+1,w
  6128     1326  00BF               	movwf	??_floorf+1
  6129     1327  084C               	movf	floorf@u+2,w
  6130     1328  00C0               	movwf	??_floorf+2
  6131     1329  084D               	movf	floorf@u+3,w
  6132     132A  00C1               	movwf	??_floorf+3
  6133     132B  3017               	movlw	23
  6134     132C                     u4775:
  6135     132C  1003               	clrc
  6136     132D  0CC1               	rrf	??_floorf+3,f
  6137     132E  0CC0               	rrf	??_floorf+2,f
  6138     132F  0CBF               	rrf	??_floorf+1,f
  6139     1330  0CBE               	rrf	??_floorf,f
  6140     1331                     u4770:
  6141     1331  3EFF               	addlw	-1
  6142     1332  1D03               	skipz
  6143     1333  2B2C               	goto	u4775
  6144     1334  30FF               	movlw	255
  6145     1335  053E               	andwf	??_floorf,w
  6146     1336  00C2               	movwf	??_floorf+4
  6147     1337  3000               	movlw	0
  6148     1338  053F               	andwf	??_floorf+1,w
  6149     1339  00C3               	movwf	??_floorf+5
  6150     133A  0842               	movf	??_floorf+4,w
  6151     133B  3E81               	addlw	129
  6152     133C  00C8               	movwf	floorf@e
  6153     133D  0843               	movf	??_floorf+5,w
  6154     133E  1803               	skipnc
  6155     133F  3E01               	addlw	1
  6156     1340  3EFF               	addlw	255
  6157     1341  00C9               	movwf	floorf@e+1
  6158     1342                     l2992:
  6159     1342  0849               	movf	floorf@e+1,w
  6160     1343  3A80               	xorlw	128
  6161     1344  00FF               	movwf	btemp+1
  6162     1345  3080               	movlw	128
  6163     1346  027F               	subwf	btemp+1,w
  6164     1347  1D03               	skipz
  6165     1348  2B4B               	goto	u4785
  6166     1349  3017               	movlw	23
  6167     134A  0248               	subwf	floorf@e,w
  6168     134B                     u4785:
  6169     134B  1C03               	skipc
  6170     134C  2B4E               	goto	u4781
  6171     134D  2B4F               	goto	u4780
  6172     134E                     u4781:
  6173     134E  2B50               	goto	l856
  6174     134F                     u4780:
  6175     134F                     l2994:
  6176     134F  2C11               	goto	l857
  6177     1350                     l856:
  6178     1350  1283               	bcf	3,5	;RP0=0, select bank0
  6179     1351  1303               	bcf	3,6	;RP1=0, select bank0
  6180     1352  1BC9               	btfsc	floorf@e+1,7
  6181     1353  2B55               	goto	u4791
  6182     1354  2B56               	goto	u4790
  6183     1355                     u4791:
  6184     1355  2BC6               	goto	l3008
  6185     1356                     u4790:
  6186     1356                     l2996:
  6187     1356  0A48               	incf	floorf@e,w
  6188     1357  00FF               	movwf	btemp+1
  6189     1358  30FF               	movlw	255
  6190     1359  00BE               	movwf	??_floorf
  6191     135A  30FF               	movlw	255
  6192     135B  00BF               	movwf	??_floorf+1
  6193     135C  307F               	movlw	127
  6194     135D  00C0               	movwf	??_floorf+2
  6195     135E  3000               	movlw	0
  6196     135F  00C1               	movwf	??_floorf+3
  6197     1360  2B66               	goto	u4800
  6198     1361                     u4805:
  6199     1361  0D41               	rlf	??_floorf+3,w
  6200     1362  0CC1               	rrf	??_floorf+3,f
  6201     1363  0CC0               	rrf	??_floorf+2,f
  6202     1364  0CBF               	rrf	??_floorf+1,f
  6203     1365  0CBE               	rrf	??_floorf,f
  6204     1366                     u4800:
  6205     1366  0BFF               	decfsz	btemp+1,f
  6206     1367  2B61               	goto	u4805
  6207     1368  0841               	movf	??_floorf+3,w
  6208     1369  00C7               	movwf	floorf@m+3
  6209     136A  0840               	movf	??_floorf+2,w
  6210     136B  00C6               	movwf	floorf@m+2
  6211     136C  083F               	movf	??_floorf+1,w
  6212     136D  00C5               	movwf	floorf@m+1
  6213     136E  083E               	movf	??_floorf,w
  6214     136F  00C4               	movwf	floorf@m
  6215     1370                     l2998:
  6216     1370  0844               	movf	floorf@m,w
  6217     1371  054A               	andwf	floorf@u,w
  6218     1372  00BE               	movwf	??_floorf
  6219     1373  0845               	movf	floorf@m+1,w
  6220     1374  054B               	andwf	floorf@u+1,w
  6221     1375  00BF               	movwf	??_floorf+1
  6222     1376  0846               	movf	floorf@m+2,w
  6223     1377  054C               	andwf	floorf@u+2,w
  6224     1378  00C0               	movwf	??_floorf+2
  6225     1379  0847               	movf	floorf@m+3,w
  6226     137A  054D               	andwf	floorf@u+3,w
  6227     137B  00C1               	movwf	??_floorf+3
  6228     137C  0841               	movf	??_floorf+3,w
  6229     137D  0440               	iorwf	??_floorf+2,w
  6230     137E  043F               	iorwf	??_floorf+1,w
  6231     137F  043E               	iorwf	??_floorf,w
  6232     1380  1D03               	skipz
  6233     1381  2B83               	goto	u4811
  6234     1382  2B84               	goto	u4810
  6235     1383                     u4811:
  6236     1383  2B85               	goto	l3002
  6237     1384                     u4810:
  6238     1384  2B4F               	goto	l2994
  6239     1385                     l3002:
  6240     1385  084A               	movf	floorf@u,w
  6241     1386  00BE               	movwf	??_floorf
  6242     1387  084B               	movf	floorf@u+1,w
  6243     1388  00BF               	movwf	??_floorf+1
  6244     1389  084C               	movf	floorf@u+2,w
  6245     138A  00C0               	movwf	??_floorf+2
  6246     138B  084D               	movf	floorf@u+3,w
  6247     138C  00C1               	movwf	??_floorf+3
  6248     138D  301F               	movlw	31
  6249     138E                     u4825:
  6250     138E  1003               	clrc
  6251     138F  0CC1               	rrf	??_floorf+3,f
  6252     1390  0CC0               	rrf	??_floorf+2,f
  6253     1391  0CBF               	rrf	??_floorf+1,f
  6254     1392  0CBE               	rrf	??_floorf,f
  6255     1393                     u4820:
  6256     1393  3EFF               	addlw	-1
  6257     1394  1D03               	skipz
  6258     1395  2B8E               	goto	u4825
  6259     1396  0841               	movf	??_floorf+3,w
  6260     1397  0440               	iorwf	??_floorf+2,w
  6261     1398  043F               	iorwf	??_floorf+1,w
  6262     1399  043E               	iorwf	??_floorf,w
  6263     139A  1903               	skipnz
  6264     139B  2B9D               	goto	u4831
  6265     139C  2B9E               	goto	u4830
  6266     139D                     u4831:
  6267     139D  2BB5               	goto	l3006
  6268     139E                     u4830:
  6269     139E                     l3004:
  6270     139E  0844               	movf	floorf@m,w
  6271     139F  07CA               	addwf	floorf@u,f
  6272     13A0  0845               	movf	floorf@m+1,w
  6273     13A1  1103               	clrz
  6274     13A2  1803               	skipnc
  6275     13A3  3E01               	addlw	1
  6276     13A4  1903               	skipnz
  6277     13A5  2BA7               	goto	u4841
  6278     13A6  07CB               	addwf	floorf@u+1,f
  6279     13A7                     u4841:
  6280     13A7  0846               	movf	floorf@m+2,w
  6281     13A8  1103               	clrz
  6282     13A9  1803               	skipnc
  6283     13AA  3E01               	addlw	1
  6284     13AB  1903               	skipnz
  6285     13AC  2BAE               	goto	u4842
  6286     13AD  07CC               	addwf	floorf@u+2,f
  6287     13AE                     u4842:
  6288     13AE  0847               	movf	floorf@m+3,w
  6289     13AF  1103               	clrz
  6290     13B0  1803               	skipnc
  6291     13B1  3E01               	addlw	1
  6292     13B2  1903               	skipnz
  6293     13B3  2BB5               	goto	u4843
  6294     13B4  07CD               	addwf	floorf@u+3,f
  6295     13B5                     u4843:
  6296     13B5                     l3006:
  6297     13B5  0944               	comf	floorf@m,w
  6298     13B6  00BE               	movwf	??_floorf
  6299     13B7  0945               	comf	floorf@m+1,w
  6300     13B8  00BF               	movwf	??_floorf+1
  6301     13B9  0946               	comf	floorf@m+2,w
  6302     13BA  00C0               	movwf	??_floorf+2
  6303     13BB  0947               	comf	floorf@m+3,w
  6304     13BC  00C1               	movwf	??_floorf+3
  6305     13BD  083E               	movf	??_floorf,w
  6306     13BE  05CA               	andwf	floorf@u,f
  6307     13BF  083F               	movf	??_floorf+1,w
  6308     13C0  05CB               	andwf	floorf@u+1,f
  6309     13C1  0840               	movf	??_floorf+2,w
  6310     13C2  05CC               	andwf	floorf@u+2,f
  6311     13C3  0841               	movf	??_floorf+3,w
  6312     13C4  05CD               	andwf	floorf@u+3,f
  6313     13C5  2C09               	goto	l861
  6314     13C6                     l3008:
  6315     13C6  084A               	movf	floorf@u,w
  6316     13C7  00BE               	movwf	??_floorf
  6317     13C8  084B               	movf	floorf@u+1,w
  6318     13C9  00BF               	movwf	??_floorf+1
  6319     13CA  084C               	movf	floorf@u+2,w
  6320     13CB  00C0               	movwf	??_floorf+2
  6321     13CC  084D               	movf	floorf@u+3,w
  6322     13CD  00C1               	movwf	??_floorf+3
  6323     13CE  301F               	movlw	31
  6324     13CF                     u4855:
  6325     13CF  1003               	clrc
  6326     13D0  0CC1               	rrf	??_floorf+3,f
  6327     13D1  0CC0               	rrf	??_floorf+2,f
  6328     13D2  0CBF               	rrf	??_floorf+1,f
  6329     13D3  0CBE               	rrf	??_floorf,f
  6330     13D4                     u4850:
  6331     13D4  3EFF               	addlw	-1
  6332     13D5  1D03               	skipz
  6333     13D6  2BCF               	goto	u4855
  6334     13D7  0841               	movf	??_floorf+3,w
  6335     13D8  0440               	iorwf	??_floorf+2,w
  6336     13D9  043F               	iorwf	??_floorf+1,w
  6337     13DA  043E               	iorwf	??_floorf,w
  6338     13DB  1D03               	skipz
  6339     13DC  2BDE               	goto	u4861
  6340     13DD  2BDF               	goto	u4860
  6341     13DE                     u4861:
  6342     13DE  2BE8               	goto	l3012
  6343     13DF                     u4860:
  6344     13DF                     l3010:
  6345     13DF  3000               	movlw	0
  6346     13E0  00CD               	movwf	floorf@u+3
  6347     13E1  3000               	movlw	0
  6348     13E2  00CC               	movwf	floorf@u+2
  6349     13E3  3000               	movlw	0
  6350     13E4  00CB               	movwf	floorf@u+1
  6351     13E5  3000               	movlw	0
  6352     13E6  00CA               	movwf	floorf@u
  6353     13E7  2C09               	goto	l861
  6354     13E8                     l3012:
  6355     13E8  084A               	movf	floorf@u,w
  6356     13E9  00BE               	movwf	??_floorf
  6357     13EA  084B               	movf	floorf@u+1,w
  6358     13EB  00BF               	movwf	??_floorf+1
  6359     13EC  084C               	movf	floorf@u+2,w
  6360     13ED  00C0               	movwf	??_floorf+2
  6361     13EE  084D               	movf	floorf@u+3,w
  6362     13EF  00C1               	movwf	??_floorf+3
  6363     13F0  3001               	movlw	1
  6364     13F1                     u4875:
  6365     13F1  1003               	clrc
  6366     13F2  0DBE               	rlf	??_floorf,f
  6367     13F3  0DBF               	rlf	??_floorf+1,f
  6368     13F4  0DC0               	rlf	??_floorf+2,f
  6369     13F5  0DC1               	rlf	??_floorf+3,f
  6370     13F6                     u4870:
  6371     13F6  3EFF               	addlw	-1
  6372     13F7  1D03               	skipz
  6373     13F8  2BF1               	goto	u4875
  6374     13F9  0841               	movf	??_floorf+3,w
  6375     13FA  0440               	iorwf	??_floorf+2,w
  6376     13FB  043F               	iorwf	??_floorf+1,w
  6377     13FC  043E               	iorwf	??_floorf,w
  6378     13FD  1903               	skipnz
  6379     13FE  2C00               	goto	u4881
  6380     13FF  2C01               	goto	u4880
  6381     1400                     u4881:
  6382     1400  2C09               	goto	l861
  6383     1401                     u4880:
  6384     1401                     l3014:
  6385     1401  30BF               	movlw	191
  6386     1402  00CD               	movwf	floorf@u+3
  6387     1403  3080               	movlw	128
  6388     1404  00CC               	movwf	floorf@u+2
  6389     1405  3000               	movlw	0
  6390     1406  00CB               	movwf	floorf@u+1
  6391     1407  3000               	movlw	0
  6392     1408  00CA               	movwf	floorf@u
  6393     1409                     l861:
  6394     1409  084D               	movf	floorf@u+3,w
  6395     140A  00BD               	movwf	?_floorf+3
  6396     140B  084C               	movf	floorf@u+2,w
  6397     140C  00BC               	movwf	?_floorf+2
  6398     140D  084B               	movf	floorf@u+1,w
  6399     140E  00BB               	movwf	?_floorf+1
  6400     140F  084A               	movf	floorf@u,w
  6401     1410  00BA               	movwf	?_floorf
  6402     1411                     l857:
  6403     1411  0008               	return
  6404     1412                     __end_of_floorf:
  6405                           
  6406                           	psect	text31
  6407     1CF1                     __ptext31:	
  6408 ;; *************** function ___fpclassifyf *****************
  6409 ;; Defined at:
  6410 ;;		line 4 in file "C:\Program Files\Microchip\xc8\v3.00\pic\sources\c99\common\__fpclassifyf.c"
  6411 ;; Parameters:    Size  Location     Type
  6412 ;;  x               4    0[COMMON] float 
  6413 ;; Auto vars:     Size  Location     Type
  6414 ;;  u               4    2[BANK0 ] struct .
  6415 ;;  e               2    0[BANK0 ] int 
  6416 ;; Return value:  Size  Location     Type
  6417 ;;                  2    0[COMMON] int 
  6418 ;; Registers used:
  6419 ;;		wreg, status,2, status,0
  6420 ;; Tracked objects:
  6421 ;;		On entry : 0/0
  6422 ;;		On exit  : 0/0
  6423 ;;		Unchanged: 0/0
  6424 ;; Data sizes:     COMMON   BANK0   BANK1   BANK3   BANK2
  6425 ;;      Params:         4       0       0       0       0
  6426 ;;      Locals:         0       6       0       0       0
  6427 ;;      Temps:          6       0       0       0       0
  6428 ;;      Totals:        10       6       0       0       0
  6429 ;;Total ram usage:       16 bytes
  6430 ;; Hardware stack levels used: 1
  6431 ;; This function calls:
  6432 ;;		Nothing
  6433 ;; This function is called by:
  6434 ;;		_efgtoa
  6435 ;; This function uses a non-reentrant model
  6436 ;;
  6437                           
  6438     1CF1                     ___fpclassifyf:	
  6439                           ;psect for function ___fpclassifyf
  6440                           
  6441     1CF1                     l2952:	
  6442                           ;incstack = 0
  6443                           ; Regs used in ___fpclassifyf: [wreg+status,2+status,0]
  6444                           
  6445     1CF1  1683               	bsf	3,5	;RP0=1, select bank3
  6446     1CF2  1703               	bsf	3,6	;RP1=1, select bank3
  6447     1CF3  0839               	movf	(___fpclassifyf@F465+3)^(0+384),w
  6448     1CF4  1283               	bcf	3,5	;RP0=0, select bank0
  6449     1CF5  1303               	bcf	3,6	;RP1=0, select bank0
  6450     1CF6  00A5               	movwf	___fpclassifyf@u+3
  6451     1CF7  1683               	bsf	3,5	;RP0=1, select bank3
  6452     1CF8  1703               	bsf	3,6	;RP1=1, select bank3
  6453     1CF9  0838               	movf	(___fpclassifyf@F465+2)^(0+384),w
  6454     1CFA  1283               	bcf	3,5	;RP0=0, select bank0
  6455     1CFB  1303               	bcf	3,6	;RP1=0, select bank0
  6456     1CFC  00A4               	movwf	___fpclassifyf@u+2
  6457     1CFD  1683               	bsf	3,5	;RP0=1, select bank3
  6458     1CFE  1703               	bsf	3,6	;RP1=1, select bank3
  6459     1CFF  0837               	movf	(___fpclassifyf@F465+1)^(0+384),w
  6460     1D00  1283               	bcf	3,5	;RP0=0, select bank0
  6461     1D01  1303               	bcf	3,6	;RP1=0, select bank0
  6462     1D02  00A3               	movwf	___fpclassifyf@u+1
  6463     1D03  1683               	bsf	3,5	;RP0=1, select bank3
  6464     1D04  1703               	bsf	3,6	;RP1=1, select bank3
  6465     1D05  0836               	movf	___fpclassifyf@F465^(0+384),w
  6466     1D06  1283               	bcf	3,5	;RP0=0, select bank0
  6467     1D07  1303               	bcf	3,6	;RP1=0, select bank0
  6468     1D08  00A2               	movwf	___fpclassifyf@u
  6469     1D09  0873               	movf	___fpclassifyf@x+3,w
  6470     1D0A  00A5               	movwf	___fpclassifyf@u+3
  6471     1D0B  0872               	movf	___fpclassifyf@x+2,w
  6472     1D0C  00A4               	movwf	___fpclassifyf@u+2
  6473     1D0D  0871               	movf	___fpclassifyf@x+1,w
  6474     1D0E  00A3               	movwf	___fpclassifyf@u+1
  6475     1D0F  0870               	movf	___fpclassifyf@x,w
  6476     1D10  00A2               	movwf	___fpclassifyf@u
  6477     1D11                     l2954:
  6478     1D11  0822               	movf	___fpclassifyf@u,w
  6479     1D12  00F4               	movwf	??___fpclassifyf
  6480     1D13  0823               	movf	___fpclassifyf@u+1,w
  6481     1D14  00F5               	movwf	??___fpclassifyf+1
  6482     1D15  0824               	movf	___fpclassifyf@u+2,w
  6483     1D16  00F6               	movwf	??___fpclassifyf+2
  6484     1D17  0825               	movf	___fpclassifyf@u+3,w
  6485     1D18  00F7               	movwf	??___fpclassifyf+3
  6486     1D19  3017               	movlw	23
  6487     1D1A                     u4675:
  6488     1D1A  1003               	clrc
  6489     1D1B  0CF7               	rrf	??___fpclassifyf+3,f
  6490     1D1C  0CF6               	rrf	??___fpclassifyf+2,f
  6491     1D1D  0CF5               	rrf	??___fpclassifyf+1,f
  6492     1D1E  0CF4               	rrf	??___fpclassifyf,f
  6493     1D1F                     u4670:
  6494     1D1F  3EFF               	addlw	-1
  6495     1D20  1D03               	skipz
  6496     1D21  2D1A               	goto	u4675
  6497     1D22  30FF               	movlw	255
  6498     1D23  0574               	andwf	??___fpclassifyf,w
  6499     1D24  00A0               	movwf	___fpclassifyf@e
  6500     1D25  3000               	movlw	0
  6501     1D26  0575               	andwf	??___fpclassifyf+1,w
  6502     1D27  00A1               	movwf	___fpclassifyf@e+1
  6503     1D28                     l2956:
  6504     1D28  0820               	movf	___fpclassifyf@e,w
  6505     1D29  0421               	iorwf	___fpclassifyf@e+1,w
  6506     1D2A  1D03               	btfss	3,2
  6507     1D2B  2D2D               	goto	u4681
  6508     1D2C  2D2E               	goto	u4680
  6509     1D2D                     u4681:
  6510     1D2D  2D51               	goto	l2966
  6511     1D2E                     u4680:
  6512     1D2E                     l2958:
  6513     1D2E  0822               	movf	___fpclassifyf@u,w
  6514     1D2F  00F4               	movwf	??___fpclassifyf
  6515     1D30  0823               	movf	___fpclassifyf@u+1,w
  6516     1D31  00F5               	movwf	??___fpclassifyf+1
  6517     1D32  0824               	movf	___fpclassifyf@u+2,w
  6518     1D33  00F6               	movwf	??___fpclassifyf+2
  6519     1D34  0825               	movf	___fpclassifyf@u+3,w
  6520     1D35  00F7               	movwf	??___fpclassifyf+3
  6521     1D36  3001               	movlw	1
  6522     1D37                     u4695:
  6523     1D37  1003               	clrc
  6524     1D38  0DF4               	rlf	??___fpclassifyf,f
  6525     1D39  0DF5               	rlf	??___fpclassifyf+1,f
  6526     1D3A  0DF6               	rlf	??___fpclassifyf+2,f
  6527     1D3B  0DF7               	rlf	??___fpclassifyf+3,f
  6528     1D3C                     u4690:
  6529     1D3C  3EFF               	addlw	-1
  6530     1D3D  1D03               	skipz
  6531     1D3E  2D37               	goto	u4695
  6532     1D3F  0877               	movf	??___fpclassifyf+3,w
  6533     1D40  0476               	iorwf	??___fpclassifyf+2,w
  6534     1D41  0475               	iorwf	??___fpclassifyf+1,w
  6535     1D42  0474               	iorwf	??___fpclassifyf,w
  6536     1D43  1D03               	skipz
  6537     1D44  2D46               	goto	u4701
  6538     1D45  2D47               	goto	u4700
  6539     1D46                     u4701:
  6540     1D46  2D4C               	goto	l2962
  6541     1D47                     u4700:
  6542     1D47                     l2960:
  6543     1D47  3002               	movlw	2
  6544     1D48  00F0               	movwf	?___fpclassifyf
  6545     1D49  3000               	movlw	0
  6546     1D4A  00F1               	movwf	?___fpclassifyf+1
  6547     1D4B  2D7D               	goto	l850
  6548     1D4C                     l2962:
  6549     1D4C  3003               	movlw	3
  6550     1D4D  00F0               	movwf	?___fpclassifyf
  6551     1D4E  3000               	movlw	0
  6552     1D4F  00F1               	movwf	?___fpclassifyf+1
  6553     1D50  2D7D               	goto	l850
  6554     1D51                     l2966:
  6555     1D51  0A20               	incf	___fpclassifyf@e,w
  6556     1D52  0421               	iorwf	___fpclassifyf@e+1,w
  6557     1D53  1D03               	btfss	3,2
  6558     1D54  2D56               	goto	u4711
  6559     1D55  2D57               	goto	u4710
  6560     1D56                     u4711:
  6561     1D56  2D79               	goto	l2972
  6562     1D57                     u4710:
  6563     1D57                     l2968:
  6564     1D57  0822               	movf	___fpclassifyf@u,w
  6565     1D58  00F4               	movwf	??___fpclassifyf
  6566     1D59  0823               	movf	___fpclassifyf@u+1,w
  6567     1D5A  00F5               	movwf	??___fpclassifyf+1
  6568     1D5B  0824               	movf	___fpclassifyf@u+2,w
  6569     1D5C  00F6               	movwf	??___fpclassifyf+2
  6570     1D5D  0825               	movf	___fpclassifyf@u+3,w
  6571     1D5E  00F7               	movwf	??___fpclassifyf+3
  6572     1D5F  3009               	movlw	9
  6573     1D60                     u4725:
  6574     1D60  1003               	clrc
  6575     1D61  0DF4               	rlf	??___fpclassifyf,f
  6576     1D62  0DF5               	rlf	??___fpclassifyf+1,f
  6577     1D63  0DF6               	rlf	??___fpclassifyf+2,f
  6578     1D64  0DF7               	rlf	??___fpclassifyf+3,f
  6579     1D65                     u4720:
  6580     1D65  3EFF               	addlw	-1
  6581     1D66  1D03               	skipz
  6582     1D67  2D60               	goto	u4725
  6583     1D68  0877               	movf	??___fpclassifyf+3,w
  6584     1D69  0476               	iorwf	??___fpclassifyf+2,w
  6585     1D6A  0475               	iorwf	??___fpclassifyf+1,w
  6586     1D6B  0474               	iorwf	??___fpclassifyf,w
  6587     1D6C  1903               	skipnz
  6588     1D6D  2D6F               	goto	u4731
  6589     1D6E  2D71               	goto	u4730
  6590     1D6F                     u4731:
  6591     1D6F  3001               	movlw	1
  6592     1D70  2D72               	goto	u4740
  6593     1D71                     u4730:
  6594     1D71  3000               	movlw	0
  6595     1D72                     u4740:
  6596     1D72  00F8               	movwf	??___fpclassifyf+4
  6597     1D73  01F9               	clrf	??___fpclassifyf+5
  6598     1D74  0878               	movf	??___fpclassifyf+4,w
  6599     1D75  00F0               	movwf	?___fpclassifyf
  6600     1D76  0879               	movf	??___fpclassifyf+5,w
  6601     1D77  00F1               	movwf	?___fpclassifyf+1
  6602     1D78  2D7D               	goto	l850
  6603     1D79                     l2972:
  6604     1D79  3004               	movlw	4
  6605     1D7A  00F0               	movwf	?___fpclassifyf
  6606     1D7B  3000               	movlw	0
  6607     1D7C  00F1               	movwf	?___fpclassifyf+1
  6608     1D7D                     l850:
  6609     1D7D  0008               	return
  6610     1D7E                     __end_of___fpclassifyf:
  6611                           
  6612                           	psect	text32
  6613     1C7D                     __ptext32:	
  6614 ;; *************** function ___fltol *****************
  6615 ;; Defined at:
  6616 ;;		line 43 in file "C:\Program Files\Microchip\xc8\v3.00\pic\sources\c99\common\fltol.c"
  6617 ;; Parameters:    Size  Location     Type
  6618 ;;  f1              4    0[COMMON] int 
  6619 ;; Auto vars:     Size  Location     Type
  6620 ;;  exp1            1    9[COMMON] unsigned char 
  6621 ;;  sign1           1    8[COMMON] unsigned char 
  6622 ;; Return value:  Size  Location     Type
  6623 ;;                  4    0[COMMON] long 
  6624 ;; Registers used:
  6625 ;;		wreg, status,2, status,0
  6626 ;; Tracked objects:
  6627 ;;		On entry : 0/0
  6628 ;;		On exit  : 0/0
  6629 ;;		Unchanged: 0/0
  6630 ;; Data sizes:     COMMON   BANK0   BANK1   BANK3   BANK2
  6631 ;;      Params:         4       0       0       0       0
  6632 ;;      Locals:         2       0       0       0       0
  6633 ;;      Temps:          4       0       0       0       0
  6634 ;;      Totals:        10       0       0       0       0
  6635 ;;Total ram usage:       10 bytes
  6636 ;; Hardware stack levels used: 1
  6637 ;; This function calls:
  6638 ;;		Nothing
  6639 ;; This function is called by:
  6640 ;;		_efgtoa
  6641 ;; This function uses a non-reentrant model
  6642 ;;
  6643                           
  6644     1C7D                     ___fltol:	
  6645                           ;psect for function ___fltol
  6646                           
  6647     1C7D                     l2564:	
  6648                           ;incstack = 0
  6649                           ; Regs used in ___fltol: [wreg+status,2+status,0]
  6650                           
  6651     1C7D  1003               	clrc
  6652     1C7E  0D72               	rlf	___fltol@f1+2,w
  6653     1C7F  0D73               	rlf	___fltol@f1+3,w
  6654     1C80  00F9               	movwf	___fltol@exp1
  6655     1C81  0879               	movf	___fltol@exp1,w
  6656     1C82  1D03               	btfss	3,2
  6657     1C83  2C85               	goto	u3761
  6658     1C84  2C86               	goto	u3760
  6659     1C85                     u3761:
  6660     1C85  2C8F               	goto	l2570
  6661     1C86                     u3760:
  6662     1C86                     l2566:
  6663     1C86  3000               	movlw	0
  6664     1C87  00F3               	movwf	?___fltol+3
  6665     1C88  3000               	movlw	0
  6666     1C89  00F2               	movwf	?___fltol+2
  6667     1C8A  3000               	movlw	0
  6668     1C8B  00F1               	movwf	?___fltol+1
  6669     1C8C  3000               	movlw	0
  6670     1C8D  00F0               	movwf	?___fltol
  6671     1C8E  2CF0               	goto	l435
  6672     1C8F                     l2570:
  6673     1C8F  0870               	movf	___fltol@f1,w
  6674     1C90  00F4               	movwf	??___fltol
  6675     1C91  0871               	movf	___fltol@f1+1,w
  6676     1C92  00F5               	movwf	??___fltol+1
  6677     1C93  0872               	movf	___fltol@f1+2,w
  6678     1C94  00F6               	movwf	??___fltol+2
  6679     1C95  0873               	movf	___fltol@f1+3,w
  6680     1C96  00F7               	movwf	??___fltol+3
  6681     1C97  301F               	movlw	31
  6682     1C98                     u3775:
  6683     1C98  1003               	clrc
  6684     1C99  0CF7               	rrf	??___fltol+3,f
  6685     1C9A  0CF6               	rrf	??___fltol+2,f
  6686     1C9B  0CF5               	rrf	??___fltol+1,f
  6687     1C9C  0CF4               	rrf	??___fltol,f
  6688     1C9D                     u3770:
  6689     1C9D  3EFF               	addlw	-1
  6690     1C9E  1D03               	skipz
  6691     1C9F  2C98               	goto	u3775
  6692     1CA0  0874               	movf	??___fltol,w
  6693     1CA1  00F8               	movwf	___fltol@sign1
  6694     1CA2                     l2572:
  6695     1CA2  17F2               	bsf	___fltol@f1+2,7
  6696     1CA3                     l2574:
  6697     1CA3  30FF               	movlw	255
  6698     1CA4  05F0               	andwf	___fltol@f1,f
  6699     1CA5  30FF               	movlw	255
  6700     1CA6  05F1               	andwf	___fltol@f1+1,f
  6701     1CA7  30FF               	movlw	255
  6702     1CA8  05F2               	andwf	___fltol@f1+2,f
  6703     1CA9  3000               	movlw	0
  6704     1CAA  05F3               	andwf	___fltol@f1+3,f
  6705     1CAB                     l2576:
  6706     1CAB  3096               	movlw	150
  6707     1CAC  02F9               	subwf	___fltol@exp1,f
  6708     1CAD                     l2578:
  6709     1CAD  1FF9               	btfss	___fltol@exp1,7
  6710     1CAE  2CB0               	goto	u3781
  6711     1CAF  2CB1               	goto	u3780
  6712     1CB0                     u3781:
  6713     1CB0  2CC9               	goto	l2588
  6714     1CB1                     u3780:
  6715     1CB1                     l2580:
  6716     1CB1  0879               	movf	___fltol@exp1,w
  6717     1CB2  3A80               	xorlw	128
  6718     1CB3  3E97               	addlw	151
  6719     1CB4  1803               	skipnc
  6720     1CB5  2CB7               	goto	u3791
  6721     1CB6  2CB8               	goto	u3790
  6722     1CB7                     u3791:
  6723     1CB7  2CB9               	goto	l2586
  6724     1CB8                     u3790:
  6725     1CB8  2C86               	goto	l2566
  6726     1CB9                     l2586:
  6727     1CB9  3001               	movlw	1
  6728     1CBA                     u3805:
  6729     1CBA  1003               	clrc
  6730     1CBB  0CF3               	rrf	___fltol@f1+3,f
  6731     1CBC  0CF2               	rrf	___fltol@f1+2,f
  6732     1CBD  0CF1               	rrf	___fltol@f1+1,f
  6733     1CBE  0CF0               	rrf	___fltol@f1,f
  6734     1CBF  3EFF               	addlw	-1
  6735     1CC0  1D03               	skipz
  6736     1CC1  2CBA               	goto	u3805
  6737     1CC2  3001               	movlw	1
  6738     1CC3  07F9               	addwf	___fltol@exp1,f
  6739     1CC4  1D03               	btfss	3,2
  6740     1CC5  2CC7               	goto	u3811
  6741     1CC6  2CC8               	goto	u3810
  6742     1CC7                     u3811:
  6743     1CC7  2CB9               	goto	l2586
  6744     1CC8                     u3810:
  6745     1CC8  2CE0               	goto	l2596
  6746     1CC9                     l2588:
  6747     1CC9  3020               	movlw	32
  6748     1CCA  0279               	subwf	___fltol@exp1,w
  6749     1CCB  1C03               	skipc
  6750     1CCC  2CCE               	goto	u3821
  6751     1CCD  2CCF               	goto	u3820
  6752     1CCE                     u3821:
  6753     1CCE  2CDB               	goto	l442
  6754     1CCF                     u3820:
  6755     1CCF  2C86               	goto	l2566
  6756     1CD0                     l2594:
  6757     1CD0  3001               	movlw	1
  6758     1CD1  00F4               	movwf	??___fltol
  6759     1CD2                     u3835:
  6760     1CD2  1003               	clrc
  6761     1CD3  0DF0               	rlf	___fltol@f1,f
  6762     1CD4  0DF1               	rlf	___fltol@f1+1,f
  6763     1CD5  0DF2               	rlf	___fltol@f1+2,f
  6764     1CD6  0DF3               	rlf	___fltol@f1+3,f
  6765     1CD7  0BF4               	decfsz	??___fltol,f
  6766     1CD8  2CD2               	goto	u3835
  6767     1CD9  3001               	movlw	1
  6768     1CDA  02F9               	subwf	___fltol@exp1,f
  6769     1CDB                     l442:
  6770     1CDB  0879               	movf	___fltol@exp1,w
  6771     1CDC  1D03               	btfss	3,2
  6772     1CDD  2CDF               	goto	u3841
  6773     1CDE  2CE0               	goto	u3840
  6774     1CDF                     u3841:
  6775     1CDF  2CD0               	goto	l2594
  6776     1CE0                     u3840:
  6777     1CE0                     l2596:
  6778     1CE0  0878               	movf	___fltol@sign1,w
  6779     1CE1  1903               	btfsc	3,2
  6780     1CE2  2CE4               	goto	u3851
  6781     1CE3  2CE5               	goto	u3850
  6782     1CE4                     u3851:
  6783     1CE4  2CF0               	goto	l445
  6784     1CE5                     u3850:
  6785     1CE5                     l2598:
  6786     1CE5  09F0               	comf	___fltol@f1,f
  6787     1CE6  09F1               	comf	___fltol@f1+1,f
  6788     1CE7  09F2               	comf	___fltol@f1+2,f
  6789     1CE8  09F3               	comf	___fltol@f1+3,f
  6790     1CE9  0AF0               	incf	___fltol@f1,f
  6791     1CEA  1903               	skipnz
  6792     1CEB  0AF1               	incf	___fltol@f1+1,f
  6793     1CEC  1903               	skipnz
  6794     1CED  0AF2               	incf	___fltol@f1+2,f
  6795     1CEE  1903               	skipnz
  6796     1CEF  0AF3               	incf	___fltol@f1+3,f
  6797     1CF0                     l445:
  6798     1CF0                     l435:
  6799     1CF0  0008               	return
  6800     1CF1                     __end_of___fltol:
  6801                           
  6802                           	psect	text33
  6803     1A09                     __ptext33:	
  6804 ;; *************** function ___flsub *****************
  6805 ;; Defined at:
  6806 ;;		line 242 in file "C:\Program Files\Microchip\xc8\v3.00\pic\sources\c99\common\sprcadd.c"
  6807 ;; Parameters:    Size  Location     Type
  6808 ;;  a               4   21[BANK0 ] long 
  6809 ;;  b               4   25[BANK0 ] long 
  6810 ;; Auto vars:     Size  Location     Type
  6811 ;;		None
  6812 ;; Return value:  Size  Location     Type
  6813 ;;                  4   21[BANK0 ] long 
  6814 ;; Registers used:
  6815 ;;		wreg, status,2, status,0, btemp+1, pclath, cstack
  6816 ;; Tracked objects:
  6817 ;;		On entry : 0/0
  6818 ;;		On exit  : 0/0
  6819 ;;		Unchanged: 0/0
  6820 ;; Data sizes:     COMMON   BANK0   BANK1   BANK3   BANK2
  6821 ;;      Params:         0       8       0       0       0
  6822 ;;      Locals:         0       0       0       0       0
  6823 ;;      Temps:          0       0       0       0       0
  6824 ;;      Totals:         0       8       0       0       0
  6825 ;;Total ram usage:        8 bytes
  6826 ;; Hardware stack levels used: 1
  6827 ;; Hardware stack levels required when called: 1
  6828 ;; This function calls:
  6829 ;;		___fladd
  6830 ;; This function is called by:
  6831 ;;		_efgtoa
  6832 ;; This function uses a non-reentrant model
  6833 ;;
  6834                           
  6835     1A09                     ___flsub:	
  6836                           ;psect for function ___flsub
  6837                           
  6838     1A09                     l2648:	
  6839                           ;incstack = 0
  6840                           ; Regs used in ___flsub: [wreg+status,2+status,0+btemp+1+pclath+cstack]
  6841                           
  6842     1A09  3080               	movlw	128
  6843     1A0A  1283               	bcf	3,5	;RP0=0, select bank0
  6844     1A0B  1303               	bcf	3,6	;RP1=0, select bank0
  6845     1A0C  06B8               	xorwf	___flsub@a+3,f
  6846     1A0D                     l2650:
  6847     1A0D  083C               	movf	___flsub@b+3,w
  6848     1A0E  00F3               	movwf	___fladd@b+3
  6849     1A0F  083B               	movf	___flsub@b+2,w
  6850     1A10  00F2               	movwf	___fladd@b+2
  6851     1A11  083A               	movf	___flsub@b+1,w
  6852     1A12  00F1               	movwf	___fladd@b+1
  6853     1A13  0839               	movf	___flsub@b,w
  6854     1A14  00F0               	movwf	___fladd@b
  6855     1A15  0838               	movf	___flsub@a+3,w
  6856     1A16  00F7               	movwf	___fladd@a+3
  6857     1A17  0837               	movf	___flsub@a+2,w
  6858     1A18  00F6               	movwf	___fladd@a+2
  6859     1A19  0836               	movf	___flsub@a+1,w
  6860     1A1A  00F5               	movwf	___fladd@a+1
  6861     1A1B  0835               	movf	___flsub@a,w
  6862     1A1C  00F4               	movwf	___fladd@a
  6863     1A1D  120A  158A  2262  160A  158A  	fcall	___fladd
  6864     1A22  0873               	movf	?___fladd+3,w
  6865     1A23  1283               	bcf	3,5	;RP0=0, select bank0
  6866     1A24  1303               	bcf	3,6	;RP1=0, select bank0
  6867     1A25  00B8               	movwf	?___flsub+3
  6868     1A26  0872               	movf	?___fladd+2,w
  6869     1A27  00B7               	movwf	?___flsub+2
  6870     1A28  0871               	movf	?___fladd+1,w
  6871     1A29  00B6               	movwf	?___flsub+1
  6872     1A2A  0870               	movf	?___fladd,w
  6873     1A2B  00B5               	movwf	?___flsub
  6874     1A2C                     l588:
  6875     1A2C  0008               	return
  6876     1A2D                     __end_of___flsub:
  6877                           
  6878                           	psect	text34
  6879     0A62                     __ptext34:	
  6880 ;; *************** function ___fladd *****************
  6881 ;; Defined at:
  6882 ;;		line 10 in file "C:\Program Files\Microchip\xc8\v3.00\pic\sources\c99\common\sprcadd.c"
  6883 ;; Parameters:    Size  Location     Type
  6884 ;;  b               4    0[COMMON] long 
  6885 ;;  a               4    4[COMMON] long 
  6886 ;; Auto vars:     Size  Location     Type
  6887 ;;  grs             1   11[COMMON] unsigned char 
  6888 ;;  bexp            1   10[COMMON] unsigned char 
  6889 ;;  aexp            1    9[COMMON] unsigned char 
  6890 ;;  signs           1    8[COMMON] unsigned char 
  6891 ;; Return value:  Size  Location     Type
  6892 ;;                  4    0[COMMON] unsigned char 
  6893 ;; Registers used:
  6894 ;;		wreg, status,2, status,0, btemp+1
  6895 ;; Tracked objects:
  6896 ;;		On entry : 0/0
  6897 ;;		On exit  : 0/0
  6898 ;;		Unchanged: 0/0
  6899 ;; Data sizes:     COMMON   BANK0   BANK1   BANK3   BANK2
  6900 ;;      Params:         8       0       0       0       0
  6901 ;;      Locals:         4       0       0       0       0
  6902 ;;      Temps:          0       8       0       0       0
  6903 ;;      Totals:        12       8       0       0       0
  6904 ;;Total ram usage:       20 bytes
  6905 ;; Hardware stack levels used: 1
  6906 ;; This function calls:
  6907 ;;		Nothing
  6908 ;; This function is called by:
  6909 ;;		___flsub
  6910 ;;		_efgtoa
  6911 ;; This function uses a non-reentrant model
  6912 ;;
  6913                           
  6914     0A62                     ___fladd:	
  6915                           ;psect for function ___fladd
  6916                           
  6917     0A62                     l2290:	
  6918                           ;incstack = 0
  6919                           ; Regs used in ___fladd: [wreg+status,2+status,0+btemp+1]
  6920                           
  6921     0A62  0873               	movf	___fladd@b+3,w
  6922     0A63  00F8               	movwf	___fladd@signs
  6923     0A64                     l2292:
  6924     0A64  3080               	movlw	128
  6925     0A65  05F8               	andwf	___fladd@signs,f
  6926     0A66                     l2294:
  6927     0A66  0873               	movf	___fladd@b+3,w
  6928     0A67  1283               	bcf	3,5	;RP0=0, select bank0
  6929     0A68  1303               	bcf	3,6	;RP1=0, select bank0
  6930     0A69  00A0               	movwf	??___fladd
  6931     0A6A  0720               	addwf	??___fladd,w
  6932     0A6B  00FA               	movwf	___fladd@bexp
  6933     0A6C                     l2296:
  6934     0A6C  1FF2               	btfss	___fladd@b+2,7
  6935     0A6D  2A6F               	goto	u3111
  6936     0A6E  2A70               	goto	u3110
  6937     0A6F                     u3111:
  6938     0A6F  2A71               	goto	l2300
  6939     0A70                     u3110:
  6940     0A70                     l2298:
  6941     0A70  147A               	bsf	___fladd@bexp,0
  6942     0A71                     l2300:
  6943     0A71  087A               	movf	___fladd@bexp,w
  6944     0A72  1903               	btfsc	3,2
  6945     0A73  2A75               	goto	u3121
  6946     0A74  2A76               	goto	u3120
  6947     0A75                     u3121:
  6948     0A75  2A86               	goto	l2310
  6949     0A76                     u3120:
  6950     0A76                     l2302:
  6951     0A76  0A7A               	incf	___fladd@bexp,w
  6952     0A77  1D03               	btfss	3,2
  6953     0A78  2A7A               	goto	u3131
  6954     0A79  2A7B               	goto	u3130
  6955     0A7A                     u3131:
  6956     0A7A  2A83               	goto	l2306
  6957     0A7B                     u3130:
  6958     0A7B                     l2304:
  6959     0A7B  3000               	movlw	0
  6960     0A7C  00F3               	movwf	___fladd@b+3
  6961     0A7D  3000               	movlw	0
  6962     0A7E  00F2               	movwf	___fladd@b+2
  6963     0A7F  3000               	movlw	0
  6964     0A80  00F1               	movwf	___fladd@b+1
  6965     0A81  3000               	movlw	0
  6966     0A82  00F0               	movwf	___fladd@b
  6967     0A83                     l2306:
  6968     0A83  17F2               	bsf	___fladd@b+2,7
  6969     0A84                     l2308:
  6970     0A84  01F3               	clrf	___fladd@b+3
  6971     0A85  2A8E               	goto	l537
  6972     0A86                     l2310:
  6973     0A86  3000               	movlw	0
  6974     0A87  00F3               	movwf	___fladd@b+3
  6975     0A88  3000               	movlw	0
  6976     0A89  00F2               	movwf	___fladd@b+2
  6977     0A8A  3000               	movlw	0
  6978     0A8B  00F1               	movwf	___fladd@b+1
  6979     0A8C  3000               	movlw	0
  6980     0A8D  00F0               	movwf	___fladd@b
  6981     0A8E                     l537:
  6982     0A8E  0877               	movf	___fladd@a+3,w
  6983     0A8F  00F9               	movwf	___fladd@aexp
  6984     0A90                     l2312:
  6985     0A90  3080               	movlw	128
  6986     0A91  05F9               	andwf	___fladd@aexp,f
  6987     0A92                     l2314:
  6988     0A92  0879               	movf	___fladd@aexp,w
  6989     0A93  0678               	xorwf	___fladd@signs,w
  6990     0A94  1903               	skipnz
  6991     0A95  2A97               	goto	u3141
  6992     0A96  2A98               	goto	u3140
  6993     0A97                     u3141:
  6994     0A97  2A99               	goto	l2318
  6995     0A98                     u3140:
  6996     0A98                     l2316:
  6997     0A98  1778               	bsf	___fladd@signs,6
  6998     0A99                     l2318:
  6999     0A99  0877               	movf	___fladd@a+3,w
  7000     0A9A  00A0               	movwf	??___fladd
  7001     0A9B  0720               	addwf	??___fladd,w
  7002     0A9C  00F9               	movwf	___fladd@aexp
  7003     0A9D                     l2320:
  7004     0A9D  1FF6               	btfss	___fladd@a+2,7
  7005     0A9E  2AA0               	goto	u3151
  7006     0A9F  2AA1               	goto	u3150
  7007     0AA0                     u3151:
  7008     0AA0  2AA2               	goto	l2324
  7009     0AA1                     u3150:
  7010     0AA1                     l2322:
  7011     0AA1  1479               	bsf	___fladd@aexp,0
  7012     0AA2                     l2324:
  7013     0AA2  0879               	movf	___fladd@aexp,w
  7014     0AA3  1903               	btfsc	3,2
  7015     0AA4  2AA6               	goto	u3161
  7016     0AA5  2AA7               	goto	u3160
  7017     0AA6                     u3161:
  7018     0AA6  2AB7               	goto	l2334
  7019     0AA7                     u3160:
  7020     0AA7                     l2326:
  7021     0AA7  0A79               	incf	___fladd@aexp,w
  7022     0AA8  1D03               	btfss	3,2
  7023     0AA9  2AAB               	goto	u3171
  7024     0AAA  2AAC               	goto	u3170
  7025     0AAB                     u3171:
  7026     0AAB  2AB4               	goto	l2330
  7027     0AAC                     u3170:
  7028     0AAC                     l2328:
  7029     0AAC  3000               	movlw	0
  7030     0AAD  00F7               	movwf	___fladd@a+3
  7031     0AAE  3000               	movlw	0
  7032     0AAF  00F6               	movwf	___fladd@a+2
  7033     0AB0  3000               	movlw	0
  7034     0AB1  00F5               	movwf	___fladd@a+1
  7035     0AB2  3000               	movlw	0
  7036     0AB3  00F4               	movwf	___fladd@a
  7037     0AB4                     l2330:
  7038     0AB4  17F6               	bsf	___fladd@a+2,7
  7039     0AB5                     l2332:
  7040     0AB5  01F7               	clrf	___fladd@a+3
  7041     0AB6  2ABF               	goto	l542
  7042     0AB7                     l2334:
  7043     0AB7  3000               	movlw	0
  7044     0AB8  00F7               	movwf	___fladd@a+3
  7045     0AB9  3000               	movlw	0
  7046     0ABA  00F6               	movwf	___fladd@a+2
  7047     0ABB  3000               	movlw	0
  7048     0ABC  00F5               	movwf	___fladd@a+1
  7049     0ABD  3000               	movlw	0
  7050     0ABE  00F4               	movwf	___fladd@a
  7051     0ABF                     l542:
  7052     0ABF  087A               	movf	___fladd@bexp,w
  7053     0AC0  0279               	subwf	___fladd@aexp,w
  7054     0AC1  1803               	skipnc
  7055     0AC2  2AC4               	goto	u3181
  7056     0AC3  2AC5               	goto	u3180
  7057     0AC4                     u3181:
  7058     0AC4  2AE9               	goto	l2370
  7059     0AC5                     u3180:
  7060     0AC5                     l2336:
  7061     0AC5  1F78               	btfss	___fladd@signs,6
  7062     0AC6  2AC8               	goto	u3191
  7063     0AC7  2AC9               	goto	u3190
  7064     0AC8                     u3191:
  7065     0AC8  2ACB               	goto	l2340
  7066     0AC9                     u3190:
  7067     0AC9                     l2338:
  7068     0AC9  3080               	movlw	128
  7069     0ACA  06F8               	xorwf	___fladd@signs,f
  7070     0ACB                     l2340:
  7071     0ACB  087A               	movf	___fladd@bexp,w
  7072     0ACC  00FB               	movwf	___fladd@grs
  7073     0ACD                     l2342:
  7074     0ACD  0879               	movf	___fladd@aexp,w
  7075     0ACE  00FA               	movwf	___fladd@bexp
  7076     0ACF                     l2344:
  7077     0ACF  087B               	movf	___fladd@grs,w
  7078     0AD0  00F9               	movwf	___fladd@aexp
  7079     0AD1                     l2346:
  7080     0AD1  0870               	movf	___fladd@b,w
  7081     0AD2  00FB               	movwf	___fladd@grs
  7082     0AD3                     l2348:
  7083     0AD3  0874               	movf	___fladd@a,w
  7084     0AD4  00F0               	movwf	___fladd@b
  7085     0AD5                     l2350:
  7086     0AD5  087B               	movf	___fladd@grs,w
  7087     0AD6  00F4               	movwf	___fladd@a
  7088     0AD7                     l2352:
  7089     0AD7  0871               	movf	___fladd@b+1,w
  7090     0AD8  00FB               	movwf	___fladd@grs
  7091     0AD9                     l2354:
  7092     0AD9  0875               	movf	___fladd@a+1,w
  7093     0ADA  00F1               	movwf	___fladd@b+1
  7094     0ADB                     l2356:
  7095     0ADB  087B               	movf	___fladd@grs,w
  7096     0ADC  00F5               	movwf	___fladd@a+1
  7097     0ADD                     l2358:
  7098     0ADD  0872               	movf	___fladd@b+2,w
  7099     0ADE  00FB               	movwf	___fladd@grs
  7100     0ADF                     l2360:
  7101     0ADF  0876               	movf	___fladd@a+2,w
  7102     0AE0  00F2               	movwf	___fladd@b+2
  7103     0AE1                     l2362:
  7104     0AE1  087B               	movf	___fladd@grs,w
  7105     0AE2  00F6               	movwf	___fladd@a+2
  7106     0AE3                     l2364:
  7107     0AE3  0873               	movf	___fladd@b+3,w
  7108     0AE4  00FB               	movwf	___fladd@grs
  7109     0AE5                     l2366:
  7110     0AE5  0877               	movf	___fladd@a+3,w
  7111     0AE6  00F3               	movwf	___fladd@b+3
  7112     0AE7                     l2368:
  7113     0AE7  087B               	movf	___fladd@grs,w
  7114     0AE8  00F7               	movwf	___fladd@a+3
  7115     0AE9                     l2370:
  7116     0AE9  01FB               	clrf	___fladd@grs
  7117     0AEA                     l2372:
  7118     0AEA  0879               	movf	___fladd@aexp,w
  7119     0AEB  00A0               	movwf	??___fladd
  7120     0AEC  01A1               	clrf	??___fladd+1
  7121     0AED  0821               	movf	??___fladd+1,w
  7122     0AEE  00A3               	movwf	??___fladd+3
  7123     0AEF  087A               	movf	___fladd@bexp,w
  7124     0AF0  0220               	subwf	??___fladd,w
  7125     0AF1  00A2               	movwf	??___fladd+2
  7126     0AF2  1C03               	skipc
  7127     0AF3  03A3               	decf	??___fladd+3,f
  7128     0AF4  0823               	movf	??___fladd+3,w
  7129     0AF5  3A80               	xorlw	128
  7130     0AF6  00FF               	movwf	btemp+1
  7131     0AF7  3080               	movlw	128
  7132     0AF8  027F               	subwf	btemp+1,w
  7133     0AF9  1D03               	skipz
  7134     0AFA  2AFD               	goto	u3205
  7135     0AFB  301A               	movlw	26
  7136     0AFC  0222               	subwf	??___fladd+2,w
  7137     0AFD                     u3205:
  7138     0AFD  1C03               	skipc
  7139     0AFE  2B00               	goto	u3201
  7140     0AFF  2B01               	goto	u3200
  7141     0B00                     u3201:
  7142     0B00  2B38               	goto	l2388
  7143     0B01                     u3200:
  7144     0B01                     l2374:
  7145     0B01  0873               	movf	___fladd@b+3,w
  7146     0B02  0472               	iorwf	___fladd@b+2,w
  7147     0B03  0471               	iorwf	___fladd@b+1,w
  7148     0B04  0470               	iorwf	___fladd@b,w
  7149     0B05  1D03               	skipz
  7150     0B06  2B08               	goto	u3211
  7151     0B07  2B0A               	goto	u3210
  7152     0B08                     u3211:
  7153     0B08  3001               	movlw	1
  7154     0B09  2B0B               	goto	u3220
  7155     0B0A                     u3210:
  7156     0B0A  3000               	movlw	0
  7157     0B0B                     u3220:
  7158     0B0B  00FB               	movwf	___fladd@grs
  7159     0B0C  3000               	movlw	0
  7160     0B0D  00F3               	movwf	___fladd@b+3
  7161     0B0E  3000               	movlw	0
  7162     0B0F  00F2               	movwf	___fladd@b+2
  7163     0B10  3000               	movlw	0
  7164     0B11  00F1               	movwf	___fladd@b+1
  7165     0B12  3000               	movlw	0
  7166     0B13  00F0               	movwf	___fladd@b
  7167     0B14  0879               	movf	___fladd@aexp,w
  7168     0B15  00FA               	movwf	___fladd@bexp
  7169     0B16  2B3E               	goto	l546
  7170     0B17                     l548:
  7171     0B17  1C7B               	btfss	___fladd@grs,0
  7172     0B18  2B1A               	goto	u3231
  7173     0B19  2B1B               	goto	u3230
  7174     0B1A                     u3231:
  7175     0B1A  2B24               	goto	l2378
  7176     0B1B                     u3230:
  7177     0B1B                     l2376:
  7178     0B1B  087B               	movf	___fladd@grs,w
  7179     0B1C  1283               	bcf	3,5	;RP0=0, select bank0
  7180     0B1D  1303               	bcf	3,6	;RP1=0, select bank0
  7181     0B1E  00A0               	movwf	??___fladd
  7182     0B1F  1003               	clrc
  7183     0B20  0C20               	rrf	??___fladd,w
  7184     0B21  3801               	iorlw	1
  7185     0B22  00FB               	movwf	___fladd@grs
  7186     0B23  2B26               	goto	l2380
  7187     0B24                     l2378:
  7188     0B24  1003               	clrc
  7189     0B25  0CFB               	rrf	___fladd@grs,f
  7190     0B26                     l2380:
  7191     0B26  1C70               	btfss	___fladd@b,0
  7192     0B27  2B29               	goto	u3241
  7193     0B28  2B2A               	goto	u3240
  7194     0B29                     u3241:
  7195     0B29  2B2B               	goto	l2384
  7196     0B2A                     u3240:
  7197     0B2A                     l2382:
  7198     0B2A  17FB               	bsf	___fladd@grs,7
  7199     0B2B                     l2384:
  7200     0B2B  3001               	movlw	1
  7201     0B2C  1283               	bcf	3,5	;RP0=0, select bank0
  7202     0B2D  1303               	bcf	3,6	;RP1=0, select bank0
  7203     0B2E  00A0               	movwf	??___fladd
  7204     0B2F                     u3255:
  7205     0B2F  0D73               	rlf	___fladd@b+3,w
  7206     0B30  0CF3               	rrf	___fladd@b+3,f
  7207     0B31  0CF2               	rrf	___fladd@b+2,f
  7208     0B32  0CF1               	rrf	___fladd@b+1,f
  7209     0B33  0CF0               	rrf	___fladd@b,f
  7210     0B34  0BA0               	decfsz	??___fladd& (0+127),f
  7211     0B35  2B2F               	goto	u3255
  7212     0B36                     l2386:
  7213     0B36  3001               	movlw	1
  7214     0B37  07FA               	addwf	___fladd@bexp,f
  7215     0B38                     l2388:
  7216     0B38  0879               	movf	___fladd@aexp,w
  7217     0B39  027A               	subwf	___fladd@bexp,w
  7218     0B3A  1C03               	skipc
  7219     0B3B  2B3D               	goto	u3261
  7220     0B3C  2B3E               	goto	u3260
  7221     0B3D                     u3261:
  7222     0B3D  2B17               	goto	l548
  7223     0B3E                     u3260:
  7224     0B3E                     l546:
  7225     0B3E  1B78               	btfsc	___fladd@signs,6
  7226     0B3F  2B41               	goto	u3271
  7227     0B40  2B42               	goto	u3270
  7228     0B41                     u3271:
  7229     0B41  2B8D               	goto	l2414
  7230     0B42                     u3270:
  7231     0B42                     l2390:
  7232     0B42  087A               	movf	___fladd@bexp,w
  7233     0B43  1D03               	btfss	3,2
  7234     0B44  2B46               	goto	u3281
  7235     0B45  2B47               	goto	u3280
  7236     0B46                     u3281:
  7237     0B46  2B50               	goto	l2396
  7238     0B47                     u3280:
  7239     0B47                     l2392:
  7240     0B47  3000               	movlw	0
  7241     0B48  00F3               	movwf	?___fladd+3
  7242     0B49  3000               	movlw	0
  7243     0B4A  00F2               	movwf	?___fladd+2
  7244     0B4B  3000               	movlw	0
  7245     0B4C  00F1               	movwf	?___fladd+1
  7246     0B4D  3000               	movlw	0
  7247     0B4E  00F0               	movwf	?___fladd
  7248     0B4F  2CBD               	goto	l555
  7249     0B50                     l2396:
  7250     0B50  0874               	movf	___fladd@a,w
  7251     0B51  07F0               	addwf	___fladd@b,f
  7252     0B52  0875               	movf	___fladd@a+1,w
  7253     0B53  1103               	clrz
  7254     0B54  1803               	skipnc
  7255     0B55  3E01               	addlw	1
  7256     0B56  1903               	skipnz
  7257     0B57  2B59               	goto	u3291
  7258     0B58  07F1               	addwf	___fladd@b+1,f
  7259     0B59                     u3291:
  7260     0B59  0876               	movf	___fladd@a+2,w
  7261     0B5A  1103               	clrz
  7262     0B5B  1803               	skipnc
  7263     0B5C  3E01               	addlw	1
  7264     0B5D  1903               	skipnz
  7265     0B5E  2B60               	goto	u3292
  7266     0B5F  07F2               	addwf	___fladd@b+2,f
  7267     0B60                     u3292:
  7268     0B60  0877               	movf	___fladd@a+3,w
  7269     0B61  1103               	clrz
  7270     0B62  1803               	skipnc
  7271     0B63  3E01               	addlw	1
  7272     0B64  1903               	skipnz
  7273     0B65  2B67               	goto	u3293
  7274     0B66  07F3               	addwf	___fladd@b+3,f
  7275     0B67                     u3293:
  7276     0B67                     l2398:
  7277     0B67  1C73               	btfss	___fladd@b+3,0
  7278     0B68  2B6A               	goto	u3301
  7279     0B69  2B6B               	goto	u3300
  7280     0B6A                     u3301:
  7281     0B6A  2C45               	goto	l2450
  7282     0B6B                     u3300:
  7283     0B6B                     l2400:
  7284     0B6B  1C7B               	btfss	___fladd@grs,0
  7285     0B6C  2B6E               	goto	u3311
  7286     0B6D  2B6F               	goto	u3310
  7287     0B6E                     u3311:
  7288     0B6E  2B78               	goto	l2404
  7289     0B6F                     u3310:
  7290     0B6F                     l2402:
  7291     0B6F  087B               	movf	___fladd@grs,w
  7292     0B70  1283               	bcf	3,5	;RP0=0, select bank0
  7293     0B71  1303               	bcf	3,6	;RP1=0, select bank0
  7294     0B72  00A0               	movwf	??___fladd
  7295     0B73  1003               	clrc
  7296     0B74  0C20               	rrf	??___fladd,w
  7297     0B75  3801               	iorlw	1
  7298     0B76  00FB               	movwf	___fladd@grs
  7299     0B77  2B7A               	goto	l2406
  7300     0B78                     l2404:
  7301     0B78  1003               	clrc
  7302     0B79  0CFB               	rrf	___fladd@grs,f
  7303     0B7A                     l2406:
  7304     0B7A  1C70               	btfss	___fladd@b,0
  7305     0B7B  2B7D               	goto	u3321
  7306     0B7C  2B7E               	goto	u3320
  7307     0B7D                     u3321:
  7308     0B7D  2B7F               	goto	l2410
  7309     0B7E                     u3320:
  7310     0B7E                     l2408:
  7311     0B7E  17FB               	bsf	___fladd@grs,7
  7312     0B7F                     l2410:
  7313     0B7F  3001               	movlw	1
  7314     0B80  1283               	bcf	3,5	;RP0=0, select bank0
  7315     0B81  1303               	bcf	3,6	;RP1=0, select bank0
  7316     0B82  00A0               	movwf	??___fladd
  7317     0B83                     u3335:
  7318     0B83  0D73               	rlf	___fladd@b+3,w
  7319     0B84  0CF3               	rrf	___fladd@b+3,f
  7320     0B85  0CF2               	rrf	___fladd@b+2,f
  7321     0B86  0CF1               	rrf	___fladd@b+1,f
  7322     0B87  0CF0               	rrf	___fladd@b,f
  7323     0B88  0BA0               	decfsz	??___fladd& (0+127),f
  7324     0B89  2B83               	goto	u3335
  7325     0B8A                     l2412:
  7326     0B8A  3001               	movlw	1
  7327     0B8B  07FA               	addwf	___fladd@bexp,f
  7328     0B8C  2C45               	goto	l2450
  7329     0B8D                     l2414:
  7330     0B8D  0873               	movf	___fladd@b+3,w
  7331     0B8E  3A80               	xorlw	128
  7332     0B8F  00FF               	movwf	btemp+1
  7333     0B90  0877               	movf	___fladd@a+3,w
  7334     0B91  3A80               	xorlw	128
  7335     0B92  027F               	subwf	btemp+1,w
  7336     0B93  1D03               	skipz
  7337     0B94  2B9F               	goto	u3343
  7338     0B95  0876               	movf	___fladd@a+2,w
  7339     0B96  0272               	subwf	___fladd@b+2,w
  7340     0B97  1D03               	skipz
  7341     0B98  2B9F               	goto	u3343
  7342     0B99  0875               	movf	___fladd@a+1,w
  7343     0B9A  0271               	subwf	___fladd@b+1,w
  7344     0B9B  1D03               	skipz
  7345     0B9C  2B9F               	goto	u3343
  7346     0B9D  0874               	movf	___fladd@a,w
  7347     0B9E  0270               	subwf	___fladd@b,w
  7348     0B9F                     u3343:
  7349     0B9F  1803               	skipnc
  7350     0BA0  2BA2               	goto	u3341
  7351     0BA1  2BA3               	goto	u3340
  7352     0BA2                     u3341:
  7353     0BA2  2BFC               	goto	l2426
  7354     0BA3                     u3340:
  7355     0BA3                     l2416:
  7356     0BA3  30FF               	movlw	255
  7357     0BA4  1283               	bcf	3,5	;RP0=0, select bank0
  7358     0BA5  1303               	bcf	3,6	;RP1=0, select bank0
  7359     0BA6  00A0               	movwf	??___fladd
  7360     0BA7  30FF               	movlw	255
  7361     0BA8  00A1               	movwf	??___fladd+1
  7362     0BA9  30FF               	movlw	255
  7363     0BAA  00A2               	movwf	??___fladd+2
  7364     0BAB  30FF               	movlw	255
  7365     0BAC  00A3               	movwf	??___fladd+3
  7366     0BAD  0874               	movf	___fladd@a,w
  7367     0BAE  00A4               	movwf	??___fladd+4
  7368     0BAF  0875               	movf	___fladd@a+1,w
  7369     0BB0  00A5               	movwf	??___fladd+5
  7370     0BB1  0876               	movf	___fladd@a+2,w
  7371     0BB2  00A6               	movwf	??___fladd+6
  7372     0BB3  0877               	movf	___fladd@a+3,w
  7373     0BB4  00A7               	movwf	??___fladd+7
  7374     0BB5  0870               	movf	___fladd@b,w
  7375     0BB6  02A4               	subwf	??___fladd+4,f
  7376     0BB7  0871               	movf	___fladd@b+1,w
  7377     0BB8  1C03               	skipc
  7378     0BB9  0F71               	incfsz	___fladd@b+1,w
  7379     0BBA  2BBC               	goto	u3351
  7380     0BBB  2BBD               	goto	u3352
  7381     0BBC                     u3351:
  7382     0BBC  02A5               	subwf	??___fladd+5,f
  7383     0BBD                     u3352:
  7384     0BBD  0872               	movf	___fladd@b+2,w
  7385     0BBE  1C03               	skipc
  7386     0BBF  0F72               	incfsz	___fladd@b+2,w
  7387     0BC0  2BC2               	goto	u3353
  7388     0BC1  2BC3               	goto	u3354
  7389     0BC2                     u3353:
  7390     0BC2  02A6               	subwf	??___fladd+6,f
  7391     0BC3                     u3354:
  7392     0BC3  0873               	movf	___fladd@b+3,w
  7393     0BC4  1C03               	skipc
  7394     0BC5  0F73               	incfsz	___fladd@b+3,w
  7395     0BC6  2BC8               	goto	u3355
  7396     0BC7  2BC9               	goto	u3356
  7397     0BC8                     u3355:
  7398     0BC8  02A7               	subwf	??___fladd+7,f
  7399     0BC9                     u3356:
  7400     0BC9  0824               	movf	??___fladd+4,w
  7401     0BCA  07A0               	addwf	??___fladd,f
  7402     0BCB  0825               	movf	??___fladd+5,w
  7403     0BCC  1803               	skipnc
  7404     0BCD  0F25               	incfsz	??___fladd+5,w
  7405     0BCE  2BD0               	goto	u3360
  7406     0BCF  2BD1               	goto	u3361
  7407     0BD0                     u3360:
  7408     0BD0  07A1               	addwf	??___fladd+1,f
  7409     0BD1                     u3361:
  7410     0BD1  0826               	movf	??___fladd+6,w
  7411     0BD2  1803               	skipnc
  7412     0BD3  0F26               	incfsz	??___fladd+6,w
  7413     0BD4  2BD6               	goto	u3362
  7414     0BD5  2BD7               	goto	u3363
  7415     0BD6                     u3362:
  7416     0BD6  07A2               	addwf	??___fladd+2,f
  7417     0BD7                     u3363:
  7418     0BD7  0827               	movf	??___fladd+7,w
  7419     0BD8  1803               	skipnc
  7420     0BD9  0A27               	incf	??___fladd+7,w
  7421     0BDA  07A3               	addwf	??___fladd+3,f
  7422     0BDB  0823               	movf	??___fladd+3,w
  7423     0BDC  00F3               	movwf	___fladd@b+3
  7424     0BDD  0822               	movf	??___fladd+2,w
  7425     0BDE  00F2               	movwf	___fladd@b+2
  7426     0BDF  0821               	movf	??___fladd+1,w
  7427     0BE0  00F1               	movwf	___fladd@b+1
  7428     0BE1  0820               	movf	??___fladd,w
  7429     0BE2  00F0               	movwf	___fladd@b
  7430     0BE3                     l2418:
  7431     0BE3  3080               	movlw	128
  7432     0BE4  06F8               	xorwf	___fladd@signs,f
  7433     0BE5                     l2420:
  7434     0BE5  037B               	decf	___fladd@grs,w
  7435     0BE6  3AFF               	xorlw	255
  7436     0BE7  00FB               	movwf	___fladd@grs
  7437     0BE8                     l2422:
  7438     0BE8  087B               	movf	___fladd@grs,w
  7439     0BE9  1D03               	btfss	3,2
  7440     0BEA  2BEC               	goto	u3371
  7441     0BEB  2BED               	goto	u3370
  7442     0BEC                     u3371:
  7443     0BEC  2C0A               	goto	l563
  7444     0BED                     u3370:
  7445     0BED                     l2424:
  7446     0BED  3001               	movlw	1
  7447     0BEE  07F0               	addwf	___fladd@b,f
  7448     0BEF  3000               	movlw	0
  7449     0BF0  1803               	skipnc
  7450     0BF1  3001               	movlw	1
  7451     0BF2  07F1               	addwf	___fladd@b+1,f
  7452     0BF3  3000               	movlw	0
  7453     0BF4  1803               	skipnc
  7454     0BF5  3001               	movlw	1
  7455     0BF6  07F2               	addwf	___fladd@b+2,f
  7456     0BF7  3000               	movlw	0
  7457     0BF8  1803               	skipnc
  7458     0BF9  3001               	movlw	1
  7459     0BFA  07F3               	addwf	___fladd@b+3,f
  7460     0BFB  2C0A               	goto	l563
  7461     0BFC                     l2426:
  7462     0BFC  0874               	movf	___fladd@a,w
  7463     0BFD  02F0               	subwf	___fladd@b,f
  7464     0BFE  0875               	movf	___fladd@a+1,w
  7465     0BFF  1C03               	skipc
  7466     0C00  0F75               	incfsz	___fladd@a+1,w
  7467     0C01  02F1               	subwf	___fladd@b+1,f
  7468     0C02  0876               	movf	___fladd@a+2,w
  7469     0C03  1C03               	skipc
  7470     0C04  0F76               	incfsz	___fladd@a+2,w
  7471     0C05  02F2               	subwf	___fladd@b+2,f
  7472     0C06  0877               	movf	___fladd@a+3,w
  7473     0C07  1C03               	skipc
  7474     0C08  0F77               	incfsz	___fladd@a+3,w
  7475     0C09  02F3               	subwf	___fladd@b+3,f
  7476     0C0A                     l563:
  7477     0C0A  0873               	movf	___fladd@b+3,w
  7478     0C0B  0472               	iorwf	___fladd@b+2,w
  7479     0C0C  0471               	iorwf	___fladd@b+1,w
  7480     0C0D  0470               	iorwf	___fladd@b,w
  7481     0C0E  1D03               	skipz
  7482     0C0F  2C11               	goto	u3381
  7483     0C10  2C12               	goto	u3380
  7484     0C11                     u3381:
  7485     0C11  2C41               	goto	l2448
  7486     0C12                     u3380:
  7487     0C12                     l2428:
  7488     0C12  087B               	movf	___fladd@grs,w
  7489     0C13  1D03               	btfss	3,2
  7490     0C14  2C16               	goto	u3391
  7491     0C15  2C17               	goto	u3390
  7492     0C16                     u3391:
  7493     0C16  2C41               	goto	l2448
  7494     0C17                     u3390:
  7495     0C17                     l2430:
  7496     0C17  3000               	movlw	0
  7497     0C18  00F3               	movwf	?___fladd+3
  7498     0C19  3000               	movlw	0
  7499     0C1A  00F2               	movwf	?___fladd+2
  7500     0C1B  3000               	movlw	0
  7501     0C1C  00F1               	movwf	?___fladd+1
  7502     0C1D  3000               	movlw	0
  7503     0C1E  00F0               	movwf	?___fladd
  7504     0C1F  2CBD               	goto	l555
  7505     0C20                     l2434:
  7506     0C20  3001               	movlw	1
  7507     0C21  1283               	bcf	3,5	;RP0=0, select bank0
  7508     0C22  1303               	bcf	3,6	;RP1=0, select bank0
  7509     0C23  00A0               	movwf	??___fladd
  7510     0C24                     u3405:
  7511     0C24  1003               	clrc
  7512     0C25  0DF0               	rlf	___fladd@b,f
  7513     0C26  0DF1               	rlf	___fladd@b+1,f
  7514     0C27  0DF2               	rlf	___fladd@b+2,f
  7515     0C28  0DF3               	rlf	___fladd@b+3,f
  7516     0C29  0BA0               	decfsz	??___fladd,f
  7517     0C2A  2C24               	goto	u3405
  7518     0C2B                     l2436:
  7519     0C2B  1FFB               	btfss	___fladd@grs,7
  7520     0C2C  2C2E               	goto	u3411
  7521     0C2D  2C2F               	goto	u3410
  7522     0C2E                     u3411:
  7523     0C2E  2C30               	goto	l567
  7524     0C2F                     u3410:
  7525     0C2F                     l2438:
  7526     0C2F  1470               	bsf	___fladd@b,0
  7527     0C30                     l567:
  7528     0C30  1C7B               	btfss	___fladd@grs,0
  7529     0C31  2C33               	goto	u3421
  7530     0C32  2C34               	goto	u3420
  7531     0C33                     u3421:
  7532     0C33  2C38               	goto	l2442
  7533     0C34                     u3420:
  7534     0C34                     l2440:
  7535     0C34  1403               	setc
  7536     0C35  0D7B               	rlf	___fladd@grs,w
  7537     0C36  00FB               	movwf	___fladd@grs
  7538     0C37  2C3A               	goto	l2444
  7539     0C38                     l2442:
  7540     0C38  1003               	clrc
  7541     0C39  0DFB               	rlf	___fladd@grs,f
  7542     0C3A                     l2444:
  7543     0C3A  087A               	movf	___fladd@bexp,w
  7544     0C3B  1903               	btfsc	3,2
  7545     0C3C  2C3E               	goto	u3431
  7546     0C3D  2C3F               	goto	u3430
  7547     0C3E                     u3431:
  7548     0C3E  2C41               	goto	l2448
  7549     0C3F                     u3430:
  7550     0C3F                     l2446:
  7551     0C3F  3001               	movlw	1
  7552     0C40  02FA               	subwf	___fladd@bexp,f
  7553     0C41                     l2448:
  7554     0C41  1FF2               	btfss	___fladd@b+2,7
  7555     0C42  2C44               	goto	u3441
  7556     0C43  2C45               	goto	u3440
  7557     0C44                     u3441:
  7558     0C44  2C20               	goto	l2434
  7559     0C45                     u3440:
  7560     0C45                     l2450:
  7561     0C45  01F9               	clrf	___fladd@aexp
  7562     0C46                     l2452:
  7563     0C46  1FFB               	btfss	___fladd@grs,7
  7564     0C47  2C49               	goto	u3451
  7565     0C48  2C4A               	goto	u3450
  7566     0C49                     u3451:
  7567     0C49  2C58               	goto	l2460
  7568     0C4A                     u3450:
  7569     0C4A                     l2454:
  7570     0C4A  087B               	movf	___fladd@grs,w
  7571     0C4B  397F               	andlw	127
  7572     0C4C  1903               	btfsc	3,2
  7573     0C4D  2C4F               	goto	u3461
  7574     0C4E  2C50               	goto	u3460
  7575     0C4F                     u3461:
  7576     0C4F  2C53               	goto	l573
  7577     0C50                     u3460:
  7578     0C50                     l2456:
  7579     0C50  3001               	movlw	1
  7580     0C51  00F9               	movwf	___fladd@aexp
  7581     0C52  2C58               	goto	l2460
  7582     0C53                     l573:
  7583     0C53  1C70               	btfss	___fladd@b,0
  7584     0C54  2C56               	goto	u3471
  7585     0C55  2C57               	goto	u3470
  7586     0C56                     u3471:
  7587     0C56  2C58               	goto	l2460
  7588     0C57                     u3470:
  7589     0C57  2C50               	goto	l2456
  7590     0C58                     l2460:
  7591     0C58  0879               	movf	___fladd@aexp,w
  7592     0C59  1903               	btfsc	3,2
  7593     0C5A  2C5C               	goto	u3481
  7594     0C5B  2C5D               	goto	u3480
  7595     0C5C                     u3481:
  7596     0C5C  2C91               	goto	l576
  7597     0C5D                     u3480:
  7598     0C5D                     l2462:
  7599     0C5D  3001               	movlw	1
  7600     0C5E  07F0               	addwf	___fladd@b,f
  7601     0C5F  3000               	movlw	0
  7602     0C60  1803               	skipnc
  7603     0C61  3001               	movlw	1
  7604     0C62  07F1               	addwf	___fladd@b+1,f
  7605     0C63  3000               	movlw	0
  7606     0C64  1803               	skipnc
  7607     0C65  3001               	movlw	1
  7608     0C66  07F2               	addwf	___fladd@b+2,f
  7609     0C67  3000               	movlw	0
  7610     0C68  1803               	skipnc
  7611     0C69  3001               	movlw	1
  7612     0C6A  07F3               	addwf	___fladd@b+3,f
  7613     0C6B                     l2464:
  7614     0C6B  1C73               	btfss	___fladd@b+3,0
  7615     0C6C  2C6E               	goto	u3491
  7616     0C6D  2C6F               	goto	u3490
  7617     0C6E                     u3491:
  7618     0C6E  2C91               	goto	l576
  7619     0C6F                     u3490:
  7620     0C6F                     l2466:
  7621     0C6F  0870               	movf	___fladd@b,w
  7622     0C70  1283               	bcf	3,5	;RP0=0, select bank0
  7623     0C71  1303               	bcf	3,6	;RP1=0, select bank0
  7624     0C72  00A0               	movwf	??___fladd
  7625     0C73  0871               	movf	___fladd@b+1,w
  7626     0C74  00A1               	movwf	??___fladd+1
  7627     0C75  0872               	movf	___fladd@b+2,w
  7628     0C76  00A2               	movwf	??___fladd+2
  7629     0C77  0873               	movf	___fladd@b+3,w
  7630     0C78  00A3               	movwf	??___fladd+3
  7631     0C79  3001               	movlw	1
  7632     0C7A  00A4               	movwf	??___fladd+4
  7633     0C7B                     u3505:
  7634     0C7B  0D23               	rlf	??___fladd+3,w
  7635     0C7C  0CA3               	rrf	??___fladd+3,f
  7636     0C7D  0CA2               	rrf	??___fladd+2,f
  7637     0C7E  0CA1               	rrf	??___fladd+1,f
  7638     0C7F  0CA0               	rrf	??___fladd,f
  7639     0C80                     u3500:
  7640     0C80  0BA4               	decfsz	??___fladd+4,f
  7641     0C81  2C7B               	goto	u3505
  7642     0C82  0823               	movf	??___fladd+3,w
  7643     0C83  00F3               	movwf	___fladd@b+3
  7644     0C84  0822               	movf	??___fladd+2,w
  7645     0C85  00F2               	movwf	___fladd@b+2
  7646     0C86  0821               	movf	??___fladd+1,w
  7647     0C87  00F1               	movwf	___fladd@b+1
  7648     0C88  0820               	movf	??___fladd,w
  7649     0C89  00F0               	movwf	___fladd@b
  7650     0C8A  0A7A               	incf	___fladd@bexp,w
  7651     0C8B  1903               	btfsc	3,2
  7652     0C8C  2C8E               	goto	u3511
  7653     0C8D  2C8F               	goto	u3510
  7654     0C8E                     u3511:
  7655     0C8E  2C91               	goto	l576
  7656     0C8F                     u3510:
  7657     0C8F                     l2468:
  7658     0C8F  3001               	movlw	1
  7659     0C90  07FA               	addwf	___fladd@bexp,f
  7660     0C91                     l576:
  7661     0C91  0A7A               	incf	___fladd@bexp,w
  7662     0C92  1903               	btfsc	3,2
  7663     0C93  2C95               	goto	u3521
  7664     0C94  2C96               	goto	u3520
  7665     0C95                     u3521:
  7666     0C95  2C9B               	goto	l2472
  7667     0C96                     u3520:
  7668     0C96                     l2470:
  7669     0C96  087A               	movf	___fladd@bexp,w
  7670     0C97  1D03               	btfss	3,2
  7671     0C98  2C9A               	goto	u3531
  7672     0C99  2C9B               	goto	u3530
  7673     0C9A                     u3531:
  7674     0C9A  2CA9               	goto	l2478
  7675     0C9B                     u3530:
  7676     0C9B                     l2472:
  7677     0C9B  3000               	movlw	0
  7678     0C9C  00F3               	movwf	___fladd@b+3
  7679     0C9D  3000               	movlw	0
  7680     0C9E  00F2               	movwf	___fladd@b+2
  7681     0C9F  3000               	movlw	0
  7682     0CA0  00F1               	movwf	___fladd@b+1
  7683     0CA1  3000               	movlw	0
  7684     0CA2  00F0               	movwf	___fladd@b
  7685     0CA3                     l2474:
  7686     0CA3  087A               	movf	___fladd@bexp,w
  7687     0CA4  1D03               	btfss	3,2
  7688     0CA5  2CA7               	goto	u3541
  7689     0CA6  2CA8               	goto	u3540
  7690     0CA7                     u3541:
  7691     0CA7  2CA9               	goto	l2478
  7692     0CA8                     u3540:
  7693     0CA8                     l2476:
  7694     0CA8  01F8               	clrf	___fladd@signs
  7695     0CA9                     l2478:
  7696     0CA9  1C7A               	btfss	___fladd@bexp,0
  7697     0CAA  2CAC               	goto	u3551
  7698     0CAB  2CAD               	goto	u3550
  7699     0CAC                     u3551:
  7700     0CAC  2CAF               	goto	l2482
  7701     0CAD                     u3550:
  7702     0CAD                     l2480:
  7703     0CAD  17F2               	bsf	___fladd@b+2,7
  7704     0CAE  2CB1               	goto	l584
  7705     0CAF                     l2482:
  7706     0CAF  307F               	movlw	127
  7707     0CB0  05F2               	andwf	___fladd@b+2,f
  7708     0CB1                     l584:
  7709     0CB1  087A               	movf	___fladd@bexp,w
  7710     0CB2  1283               	bcf	3,5	;RP0=0, select bank0
  7711     0CB3  1303               	bcf	3,6	;RP1=0, select bank0
  7712     0CB4  00A0               	movwf	??___fladd
  7713     0CB5  1003               	clrc
  7714     0CB6  0C20               	rrf	??___fladd,w
  7715     0CB7  00F3               	movwf	___fladd@b+3
  7716     0CB8                     l2484:
  7717     0CB8  1FF8               	btfss	___fladd@signs,7
  7718     0CB9  2CBB               	goto	u3561
  7719     0CBA  2CBC               	goto	u3560
  7720     0CBB                     u3561:
  7721     0CBB  2CBD               	goto	l585
  7722     0CBC                     u3560:
  7723     0CBC                     l2486:
  7724     0CBC  17F3               	bsf	___fladd@b+3,7
  7725     0CBD                     l585:
  7726     0CBD                     l555:
  7727     0CBD  0008               	return
  7728     0CBE                     __end_of___fladd:
  7729                           
  7730                           	psect	text35
  7731     195D                     __ptext35:	
  7732 ;; *************** function ___flneg *****************
  7733 ;; Defined at:
  7734 ;;		line 15 in file "C:\Program Files\Microchip\xc8\v3.00\pic\sources\c99\common\flneg.c"
  7735 ;; Parameters:    Size  Location     Type
  7736 ;;  f1              4    0[COMMON] unsigned char 
  7737 ;; Auto vars:     Size  Location     Type
  7738 ;;		None
  7739 ;; Return value:  Size  Location     Type
  7740 ;;                  4    0[COMMON] unsigned char 
  7741 ;; Registers used:
  7742 ;;		wreg
  7743 ;; Tracked objects:
  7744 ;;		On entry : 0/0
  7745 ;;		On exit  : 0/0
  7746 ;;		Unchanged: 0/0
  7747 ;; Data sizes:     COMMON   BANK0   BANK1   BANK3   BANK2
  7748 ;;      Params:         4       0       0       0       0
  7749 ;;      Locals:         0       0       0       0       0
  7750 ;;      Temps:          0       0       0       0       0
  7751 ;;      Totals:         4       0       0       0       0
  7752 ;;Total ram usage:        4 bytes
  7753 ;; Hardware stack levels used: 1
  7754 ;; This function calls:
  7755 ;;		Nothing
  7756 ;; This function is called by:
  7757 ;;		_efgtoa
  7758 ;; This function uses a non-reentrant model
  7759 ;;
  7760                           
  7761     195D                     ___flneg:	
  7762                           ;psect for function ___flneg
  7763                           
  7764     195D                     l2556:	
  7765                           ;incstack = 0
  7766                           ; Regs used in ___flneg: [wreg]
  7767                           
  7768     195D  0873               	movf	___flneg@f1+3,w
  7769     195E  0472               	iorwf	___flneg@f1+2,w
  7770     195F  0471               	iorwf	___flneg@f1+1,w
  7771     1960  0470               	iorwf	___flneg@f1,w
  7772     1961  1903               	skipnz
  7773     1962  2964               	goto	u3751
  7774     1963  2965               	goto	u3750
  7775     1964                     u3751:
  7776     1964  2967               	goto	l2560
  7777     1965                     u3750:
  7778     1965                     l2558:
  7779     1965  3080               	movlw	128
  7780     1966  06F3               	xorwf	___flneg@f1+3,f
  7781     1967                     l2560:
  7782     1967                     l431:
  7783     1967  0008               	return
  7784     1968                     __end_of___flneg:
  7785                           
  7786                           	psect	text36
  7787     0CBE                     __ptext36:	
  7788 ;; *************** function ___flmul *****************
  7789 ;; Defined at:
  7790 ;;		line 8 in file "C:\Program Files\Microchip\xc8\v3.00\pic\sources\c99\common\sprcmul.c"
  7791 ;; Parameters:    Size  Location     Type
  7792 ;;  b               4    0[BANK0 ] unsigned char 
  7793 ;;  a               4    4[BANK0 ] unsigned char 
  7794 ;; Auto vars:     Size  Location     Type
  7795 ;;  prod            4   15[BANK0 ] struct .
  7796 ;;  grs             4    9[BANK0 ] unsigned long 
  7797 ;;  temp            2   19[BANK0 ] struct .
  7798 ;;  bexp            1   14[BANK0 ] unsigned char 
  7799 ;;  aexp            1   13[BANK0 ] unsigned char 
  7800 ;;  sign            1    8[BANK0 ] unsigned char 
  7801 ;; Return value:  Size  Location     Type
  7802 ;;                  4    0[BANK0 ] unsigned char 
  7803 ;; Registers used:
  7804 ;;		wreg, status,2, status,0, btemp+1, pclath, cstack
  7805 ;; Tracked objects:
  7806 ;;		On entry : 0/0
  7807 ;;		On exit  : 0/0
  7808 ;;		Unchanged: 0/0
  7809 ;; Data sizes:     COMMON   BANK0   BANK1   BANK3   BANK2
  7810 ;;      Params:         0       8       0       0       0
  7811 ;;      Locals:         0      13       0       0       0
  7812 ;;      Temps:          5       0       0       0       0
  7813 ;;      Totals:         5      21       0       0       0
  7814 ;;Total ram usage:       26 bytes
  7815 ;; Hardware stack levels used: 1
  7816 ;; Hardware stack levels required when called: 1
  7817 ;; This function calls:
  7818 ;;		__Umul8_16
  7819 ;; This function is called by:
  7820 ;;		_efgtoa
  7821 ;; This function uses a non-reentrant model
  7822 ;;
  7823                           
  7824     0CBE                     ___flmul:	
  7825                           ;psect for function ___flmul
  7826                           
  7827     0CBE                     l2798:	
  7828                           ;incstack = 0
  7829                           ; Regs used in ___flmul: [wreg+status,2+status,0+btemp+1+pclath+cstack]
  7830                           
  7831     0CBE  1283               	bcf	3,5	;RP0=0, select bank0
  7832     0CBF  1303               	bcf	3,6	;RP1=0, select bank0
  7833     0CC0  0823               	movf	___flmul@b+3,w
  7834     0CC1  00A8               	movwf	___flmul@sign
  7835     0CC2                     l2800:
  7836     0CC2  3080               	movlw	128
  7837     0CC3  05A8               	andwf	___flmul@sign,f
  7838     0CC4                     l2802:
  7839     0CC4  0823               	movf	___flmul@b+3,w
  7840     0CC5  00F9               	movwf	??___flmul
  7841     0CC6  0779               	addwf	??___flmul,w
  7842     0CC7  00AE               	movwf	___flmul@bexp
  7843     0CC8                     l2804:
  7844     0CC8  1FA2               	btfss	___flmul@b+2,7
  7845     0CC9  2CCB               	goto	u4281
  7846     0CCA  2CCC               	goto	u4280
  7847     0CCB                     u4281:
  7848     0CCB  2CCD               	goto	l2808
  7849     0CCC                     u4280:
  7850     0CCC                     l2806:
  7851     0CCC  142E               	bsf	___flmul@bexp,0
  7852     0CCD                     l2808:
  7853     0CCD  082E               	movf	___flmul@bexp,w
  7854     0CCE  1903               	btfsc	3,2
  7855     0CCF  2CD1               	goto	u4291
  7856     0CD0  2CD2               	goto	u4290
  7857     0CD1                     u4291:
  7858     0CD1  2CE1               	goto	l2816
  7859     0CD2                     u4290:
  7860     0CD2                     l2810:
  7861     0CD2  0A2E               	incf	___flmul@bexp,w
  7862     0CD3  1D03               	btfss	3,2
  7863     0CD4  2CD6               	goto	u4301
  7864     0CD5  2CD7               	goto	u4300
  7865     0CD6                     u4301:
  7866     0CD6  2CDF               	goto	l2814
  7867     0CD7                     u4300:
  7868     0CD7                     l2812:
  7869     0CD7  3000               	movlw	0
  7870     0CD8  00A3               	movwf	___flmul@b+3
  7871     0CD9  3000               	movlw	0
  7872     0CDA  00A2               	movwf	___flmul@b+2
  7873     0CDB  3000               	movlw	0
  7874     0CDC  00A1               	movwf	___flmul@b+1
  7875     0CDD  3000               	movlw	0
  7876     0CDE  00A0               	movwf	___flmul@b
  7877     0CDF                     l2814:
  7878     0CDF  17A2               	bsf	___flmul@b+2,7
  7879     0CE0  2CE9               	goto	l2818
  7880     0CE1                     l2816:
  7881     0CE1  3000               	movlw	0
  7882     0CE2  00A3               	movwf	___flmul@b+3
  7883     0CE3  3000               	movlw	0
  7884     0CE4  00A2               	movwf	___flmul@b+2
  7885     0CE5  3000               	movlw	0
  7886     0CE6  00A1               	movwf	___flmul@b+1
  7887     0CE7  3000               	movlw	0
  7888     0CE8  00A0               	movwf	___flmul@b
  7889     0CE9                     l2818:
  7890     0CE9  0827               	movf	___flmul@a+3,w
  7891     0CEA  3980               	andlw	128
  7892     0CEB  06A8               	xorwf	___flmul@sign,f
  7893     0CEC                     l2820:
  7894     0CEC  0827               	movf	___flmul@a+3,w
  7895     0CED  00F9               	movwf	??___flmul
  7896     0CEE  0779               	addwf	??___flmul,w
  7897     0CEF  00AD               	movwf	___flmul@aexp
  7898     0CF0                     l2822:
  7899     0CF0  1FA6               	btfss	___flmul@a+2,7
  7900     0CF1  2CF3               	goto	u4311
  7901     0CF2  2CF4               	goto	u4310
  7902     0CF3                     u4311:
  7903     0CF3  2CF5               	goto	l2826
  7904     0CF4                     u4310:
  7905     0CF4                     l2824:
  7906     0CF4  142D               	bsf	___flmul@aexp,0
  7907     0CF5                     l2826:
  7908     0CF5  082D               	movf	___flmul@aexp,w
  7909     0CF6  1903               	btfsc	3,2
  7910     0CF7  2CF9               	goto	u4321
  7911     0CF8  2CFA               	goto	u4320
  7912     0CF9                     u4321:
  7913     0CF9  2D09               	goto	l2834
  7914     0CFA                     u4320:
  7915     0CFA                     l2828:
  7916     0CFA  0A2D               	incf	___flmul@aexp,w
  7917     0CFB  1D03               	btfss	3,2
  7918     0CFC  2CFE               	goto	u4331
  7919     0CFD  2CFF               	goto	u4330
  7920     0CFE                     u4331:
  7921     0CFE  2D07               	goto	l2832
  7922     0CFF                     u4330:
  7923     0CFF                     l2830:
  7924     0CFF  3000               	movlw	0
  7925     0D00  00A7               	movwf	___flmul@a+3
  7926     0D01  3000               	movlw	0
  7927     0D02  00A6               	movwf	___flmul@a+2
  7928     0D03  3000               	movlw	0
  7929     0D04  00A5               	movwf	___flmul@a+1
  7930     0D05  3000               	movlw	0
  7931     0D06  00A4               	movwf	___flmul@a
  7932     0D07                     l2832:
  7933     0D07  17A6               	bsf	___flmul@a+2,7
  7934     0D08  2D11               	goto	l2836
  7935     0D09                     l2834:
  7936     0D09  3000               	movlw	0
  7937     0D0A  00A7               	movwf	___flmul@a+3
  7938     0D0B  3000               	movlw	0
  7939     0D0C  00A6               	movwf	___flmul@a+2
  7940     0D0D  3000               	movlw	0
  7941     0D0E  00A5               	movwf	___flmul@a+1
  7942     0D0F  3000               	movlw	0
  7943     0D10  00A4               	movwf	___flmul@a
  7944     0D11                     l2836:
  7945     0D11  082D               	movf	___flmul@aexp,w
  7946     0D12  1903               	btfsc	3,2
  7947     0D13  2D15               	goto	u4341
  7948     0D14  2D16               	goto	u4340
  7949     0D15                     u4341:
  7950     0D15  2D1B               	goto	l2840
  7951     0D16                     u4340:
  7952     0D16                     l2838:
  7953     0D16  082E               	movf	___flmul@bexp,w
  7954     0D17  1D03               	btfss	3,2
  7955     0D18  2D1A               	goto	u4351
  7956     0D19  2D1B               	goto	u4350
  7957     0D1A                     u4351:
  7958     0D1A  2D24               	goto	l2844
  7959     0D1B                     u4350:
  7960     0D1B                     l2840:
  7961     0D1B  3000               	movlw	0
  7962     0D1C  00A3               	movwf	?___flmul+3
  7963     0D1D  3000               	movlw	0
  7964     0D1E  00A2               	movwf	?___flmul+2
  7965     0D1F  3000               	movlw	0
  7966     0D20  00A1               	movwf	?___flmul+1
  7967     0D21  3000               	movlw	0
  7968     0D22  00A0               	movwf	?___flmul
  7969     0D23  2FFF               	goto	l638
  7970     0D24                     l2844:
  7971     0D24  0820               	movf	___flmul@b,w
  7972     0D25  00F0               	movwf	__Umul8_16@multiplicand
  7973     0D26  0826               	movf	___flmul@a+2,w
  7974     0D27  160A  158A  22C2  120A  158A  	fcall	__Umul8_16
  7975     0D2C  0871               	movf	?__Umul8_16+1,w
  7976     0D2D  1283               	bcf	3,5	;RP0=0, select bank0
  7977     0D2E  1303               	bcf	3,6	;RP1=0, select bank0
  7978     0D2F  00B4               	movwf	___flmul@temp+1
  7979     0D30  0870               	movf	?__Umul8_16,w
  7980     0D31  00B3               	movwf	___flmul@temp
  7981     0D32                     l2846:
  7982     0D32  0833               	movf	___flmul@temp,w
  7983     0D33  00F9               	movwf	??___flmul
  7984     0D34  01FA               	clrf	??___flmul+1
  7985     0D35  01FB               	clrf	??___flmul+2
  7986     0D36  01FC               	clrf	??___flmul+3
  7987     0D37  087C               	movf	??___flmul+3,w
  7988     0D38  00AC               	movwf	___flmul@grs+3
  7989     0D39  087B               	movf	??___flmul+2,w
  7990     0D3A  00AB               	movwf	___flmul@grs+2
  7991     0D3B  087A               	movf	??___flmul+1,w
  7992     0D3C  00AA               	movwf	___flmul@grs+1
  7993     0D3D  0879               	movf	??___flmul,w
  7994     0D3E  00A9               	movwf	___flmul@grs
  7995     0D3F                     l2848:
  7996     0D3F  0834               	movf	___flmul@temp+1,w
  7997     0D40  00F9               	movwf	??___flmul
  7998     0D41  01FA               	clrf	??___flmul+1
  7999     0D42  01FB               	clrf	??___flmul+2
  8000     0D43  01FC               	clrf	??___flmul+3
  8001     0D44  087C               	movf	??___flmul+3,w
  8002     0D45  00B2               	movwf	___flmul@prod+3
  8003     0D46  087B               	movf	??___flmul+2,w
  8004     0D47  00B1               	movwf	___flmul@prod+2
  8005     0D48  087A               	movf	??___flmul+1,w
  8006     0D49  00B0               	movwf	___flmul@prod+1
  8007     0D4A  0879               	movf	??___flmul,w
  8008     0D4B  00AF               	movwf	___flmul@prod
  8009     0D4C  0821               	movf	___flmul@b+1,w
  8010     0D4D  00F0               	movwf	__Umul8_16@multiplicand
  8011     0D4E  0825               	movf	___flmul@a+1,w
  8012     0D4F  160A  158A  22C2  120A  158A  	fcall	__Umul8_16
  8013     0D54  0871               	movf	?__Umul8_16+1,w
  8014     0D55  1283               	bcf	3,5	;RP0=0, select bank0
  8015     0D56  1303               	bcf	3,6	;RP1=0, select bank0
  8016     0D57  00B4               	movwf	___flmul@temp+1
  8017     0D58  0870               	movf	?__Umul8_16,w
  8018     0D59  00B3               	movwf	___flmul@temp
  8019     0D5A                     l2850:
  8020     0D5A  0833               	movf	___flmul@temp,w
  8021     0D5B  00F9               	movwf	??___flmul
  8022     0D5C  01FA               	clrf	??___flmul+1
  8023     0D5D  01FB               	clrf	??___flmul+2
  8024     0D5E  01FC               	clrf	??___flmul+3
  8025     0D5F  0879               	movf	??___flmul,w
  8026     0D60  07A9               	addwf	___flmul@grs,f
  8027     0D61  087A               	movf	??___flmul+1,w
  8028     0D62  1103               	clrz
  8029     0D63  1803               	skipnc
  8030     0D64  3E01               	addlw	1
  8031     0D65  1903               	skipnz
  8032     0D66  2D68               	goto	u4361
  8033     0D67  07AA               	addwf	___flmul@grs+1,f
  8034     0D68                     u4361:
  8035     0D68  087B               	movf	??___flmul+2,w
  8036     0D69  1103               	clrz
  8037     0D6A  1803               	skipnc
  8038     0D6B  3E01               	addlw	1
  8039     0D6C  1903               	skipnz
  8040     0D6D  2D6F               	goto	u4362
  8041     0D6E  07AB               	addwf	___flmul@grs+2,f
  8042     0D6F                     u4362:
  8043     0D6F  087C               	movf	??___flmul+3,w
  8044     0D70  1103               	clrz
  8045     0D71  1803               	skipnc
  8046     0D72  3E01               	addlw	1
  8047     0D73  1903               	skipnz
  8048     0D74  2D76               	goto	u4363
  8049     0D75  07AC               	addwf	___flmul@grs+3,f
  8050     0D76                     u4363:
  8051     0D76                     l2852:
  8052     0D76  0834               	movf	___flmul@temp+1,w
  8053     0D77  00F9               	movwf	??___flmul
  8054     0D78  01FA               	clrf	??___flmul+1
  8055     0D79  01FB               	clrf	??___flmul+2
  8056     0D7A  01FC               	clrf	??___flmul+3
  8057     0D7B  0879               	movf	??___flmul,w
  8058     0D7C  07AF               	addwf	___flmul@prod,f
  8059     0D7D  087A               	movf	??___flmul+1,w
  8060     0D7E  1103               	clrz
  8061     0D7F  1803               	skipnc
  8062     0D80  3E01               	addlw	1
  8063     0D81  1903               	skipnz
  8064     0D82  2D84               	goto	u4371
  8065     0D83  07B0               	addwf	___flmul@prod+1,f
  8066     0D84                     u4371:
  8067     0D84  087B               	movf	??___flmul+2,w
  8068     0D85  1103               	clrz
  8069     0D86  1803               	skipnc
  8070     0D87  3E01               	addlw	1
  8071     0D88  1903               	skipnz
  8072     0D89  2D8B               	goto	u4372
  8073     0D8A  07B1               	addwf	___flmul@prod+2,f
  8074     0D8B                     u4372:
  8075     0D8B  087C               	movf	??___flmul+3,w
  8076     0D8C  1103               	clrz
  8077     0D8D  1803               	skipnc
  8078     0D8E  3E01               	addlw	1
  8079     0D8F  1903               	skipnz
  8080     0D90  2D92               	goto	u4373
  8081     0D91  07B2               	addwf	___flmul@prod+3,f
  8082     0D92                     u4373:
  8083     0D92  0822               	movf	___flmul@b+2,w
  8084     0D93  00F0               	movwf	__Umul8_16@multiplicand
  8085     0D94  0824               	movf	___flmul@a,w
  8086     0D95  160A  158A  22C2  120A  158A  	fcall	__Umul8_16
  8087     0D9A  0871               	movf	?__Umul8_16+1,w
  8088     0D9B  1283               	bcf	3,5	;RP0=0, select bank0
  8089     0D9C  1303               	bcf	3,6	;RP1=0, select bank0
  8090     0D9D  00B4               	movwf	___flmul@temp+1
  8091     0D9E  0870               	movf	?__Umul8_16,w
  8092     0D9F  00B3               	movwf	___flmul@temp
  8093     0DA0                     l2854:
  8094     0DA0  0833               	movf	___flmul@temp,w
  8095     0DA1  00F9               	movwf	??___flmul
  8096     0DA2  01FA               	clrf	??___flmul+1
  8097     0DA3  01FB               	clrf	??___flmul+2
  8098     0DA4  01FC               	clrf	??___flmul+3
  8099     0DA5  0879               	movf	??___flmul,w
  8100     0DA6  07A9               	addwf	___flmul@grs,f
  8101     0DA7  087A               	movf	??___flmul+1,w
  8102     0DA8  1103               	clrz
  8103     0DA9  1803               	skipnc
  8104     0DAA  3E01               	addlw	1
  8105     0DAB  1903               	skipnz
  8106     0DAC  2DAE               	goto	u4381
  8107     0DAD  07AA               	addwf	___flmul@grs+1,f
  8108     0DAE                     u4381:
  8109     0DAE  087B               	movf	??___flmul+2,w
  8110     0DAF  1103               	clrz
  8111     0DB0  1803               	skipnc
  8112     0DB1  3E01               	addlw	1
  8113     0DB2  1903               	skipnz
  8114     0DB3  2DB5               	goto	u4382
  8115     0DB4  07AB               	addwf	___flmul@grs+2,f
  8116     0DB5                     u4382:
  8117     0DB5  087C               	movf	??___flmul+3,w
  8118     0DB6  1103               	clrz
  8119     0DB7  1803               	skipnc
  8120     0DB8  3E01               	addlw	1
  8121     0DB9  1903               	skipnz
  8122     0DBA  2DBC               	goto	u4383
  8123     0DBB  07AC               	addwf	___flmul@grs+3,f
  8124     0DBC                     u4383:
  8125     0DBC                     l2856:
  8126     0DBC  0834               	movf	___flmul@temp+1,w
  8127     0DBD  00F9               	movwf	??___flmul
  8128     0DBE  01FA               	clrf	??___flmul+1
  8129     0DBF  01FB               	clrf	??___flmul+2
  8130     0DC0  01FC               	clrf	??___flmul+3
  8131     0DC1  0879               	movf	??___flmul,w
  8132     0DC2  07AF               	addwf	___flmul@prod,f
  8133     0DC3  087A               	movf	??___flmul+1,w
  8134     0DC4  1103               	clrz
  8135     0DC5  1803               	skipnc
  8136     0DC6  3E01               	addlw	1
  8137     0DC7  1903               	skipnz
  8138     0DC8  2DCA               	goto	u4391
  8139     0DC9  07B0               	addwf	___flmul@prod+1,f
  8140     0DCA                     u4391:
  8141     0DCA  087B               	movf	??___flmul+2,w
  8142     0DCB  1103               	clrz
  8143     0DCC  1803               	skipnc
  8144     0DCD  3E01               	addlw	1
  8145     0DCE  1903               	skipnz
  8146     0DCF  2DD1               	goto	u4392
  8147     0DD0  07B1               	addwf	___flmul@prod+2,f
  8148     0DD1                     u4392:
  8149     0DD1  087C               	movf	??___flmul+3,w
  8150     0DD2  1103               	clrz
  8151     0DD3  1803               	skipnc
  8152     0DD4  3E01               	addlw	1
  8153     0DD5  1903               	skipnz
  8154     0DD6  2DD8               	goto	u4393
  8155     0DD7  07B2               	addwf	___flmul@prod+3,f
  8156     0DD8                     u4393:
  8157     0DD8                     l2858:
  8158     0DD8  3008               	movlw	8
  8159     0DD9  00F9               	movwf	??___flmul
  8160     0DDA                     u4405:
  8161     0DDA  1003               	clrc
  8162     0DDB  0DA9               	rlf	___flmul@grs,f
  8163     0DDC  0DAA               	rlf	___flmul@grs+1,f
  8164     0DDD  0DAB               	rlf	___flmul@grs+2,f
  8165     0DDE  0DAC               	rlf	___flmul@grs+3,f
  8166     0DDF  0BF9               	decfsz	??___flmul,f
  8167     0DE0  2DDA               	goto	u4405
  8168     0DE1                     l2860:
  8169     0DE1  0821               	movf	___flmul@b+1,w
  8170     0DE2  00F0               	movwf	__Umul8_16@multiplicand
  8171     0DE3  0824               	movf	___flmul@a,w
  8172     0DE4  160A  158A  22C2  120A  158A  	fcall	__Umul8_16
  8173     0DE9  0871               	movf	?__Umul8_16+1,w
  8174     0DEA  1283               	bcf	3,5	;RP0=0, select bank0
  8175     0DEB  1303               	bcf	3,6	;RP1=0, select bank0
  8176     0DEC  00B4               	movwf	___flmul@temp+1
  8177     0DED  0870               	movf	?__Umul8_16,w
  8178     0DEE  00B3               	movwf	___flmul@temp
  8179     0DEF                     l2862:
  8180     0DEF  0833               	movf	___flmul@temp,w
  8181     0DF0  00F9               	movwf	??___flmul
  8182     0DF1  0834               	movf	___flmul@temp+1,w
  8183     0DF2  00FA               	movwf	??___flmul+1
  8184     0DF3  01FB               	clrf	??___flmul+2
  8185     0DF4  01FC               	clrf	??___flmul+3
  8186     0DF5  0879               	movf	??___flmul,w
  8187     0DF6  07A9               	addwf	___flmul@grs,f
  8188     0DF7  087A               	movf	??___flmul+1,w
  8189     0DF8  1103               	clrz
  8190     0DF9  1803               	skipnc
  8191     0DFA  3E01               	addlw	1
  8192     0DFB  1903               	skipnz
  8193     0DFC  2DFE               	goto	u4411
  8194     0DFD  07AA               	addwf	___flmul@grs+1,f
  8195     0DFE                     u4411:
  8196     0DFE  087B               	movf	??___flmul+2,w
  8197     0DFF  1103               	clrz
  8198     0E00  1803               	skipnc
  8199     0E01  3E01               	addlw	1
  8200     0E02  1903               	skipnz
  8201     0E03  2E05               	goto	u4412
  8202     0E04  07AB               	addwf	___flmul@grs+2,f
  8203     0E05                     u4412:
  8204     0E05  087C               	movf	??___flmul+3,w
  8205     0E06  1103               	clrz
  8206     0E07  1803               	skipnc
  8207     0E08  3E01               	addlw	1
  8208     0E09  1903               	skipnz
  8209     0E0A  2E0C               	goto	u4413
  8210     0E0B  07AC               	addwf	___flmul@grs+3,f
  8211     0E0C                     u4413:
  8212     0E0C                     l2864:
  8213     0E0C  0820               	movf	___flmul@b,w
  8214     0E0D  00F0               	movwf	__Umul8_16@multiplicand
  8215     0E0E  0825               	movf	___flmul@a+1,w
  8216     0E0F  160A  158A  22C2  120A  158A  	fcall	__Umul8_16
  8217     0E14  0871               	movf	?__Umul8_16+1,w
  8218     0E15  1283               	bcf	3,5	;RP0=0, select bank0
  8219     0E16  1303               	bcf	3,6	;RP1=0, select bank0
  8220     0E17  00B4               	movwf	___flmul@temp+1
  8221     0E18  0870               	movf	?__Umul8_16,w
  8222     0E19  00B3               	movwf	___flmul@temp
  8223     0E1A                     l2866:
  8224     0E1A  0833               	movf	___flmul@temp,w
  8225     0E1B  00F9               	movwf	??___flmul
  8226     0E1C  0834               	movf	___flmul@temp+1,w
  8227     0E1D  00FA               	movwf	??___flmul+1
  8228     0E1E  01FB               	clrf	??___flmul+2
  8229     0E1F  01FC               	clrf	??___flmul+3
  8230     0E20  0879               	movf	??___flmul,w
  8231     0E21  07A9               	addwf	___flmul@grs,f
  8232     0E22  087A               	movf	??___flmul+1,w
  8233     0E23  1103               	clrz
  8234     0E24  1803               	skipnc
  8235     0E25  3E01               	addlw	1
  8236     0E26  1903               	skipnz
  8237     0E27  2E29               	goto	u4421
  8238     0E28  07AA               	addwf	___flmul@grs+1,f
  8239     0E29                     u4421:
  8240     0E29  087B               	movf	??___flmul+2,w
  8241     0E2A  1103               	clrz
  8242     0E2B  1803               	skipnc
  8243     0E2C  3E01               	addlw	1
  8244     0E2D  1903               	skipnz
  8245     0E2E  2E30               	goto	u4422
  8246     0E2F  07AB               	addwf	___flmul@grs+2,f
  8247     0E30                     u4422:
  8248     0E30  087C               	movf	??___flmul+3,w
  8249     0E31  1103               	clrz
  8250     0E32  1803               	skipnc
  8251     0E33  3E01               	addlw	1
  8252     0E34  1903               	skipnz
  8253     0E35  2E37               	goto	u4423
  8254     0E36  07AC               	addwf	___flmul@grs+3,f
  8255     0E37                     u4423:
  8256     0E37                     l2868:
  8257     0E37  3008               	movlw	8
  8258     0E38  00F9               	movwf	??___flmul
  8259     0E39                     u4435:
  8260     0E39  1003               	clrc
  8261     0E3A  0DA9               	rlf	___flmul@grs,f
  8262     0E3B  0DAA               	rlf	___flmul@grs+1,f
  8263     0E3C  0DAB               	rlf	___flmul@grs+2,f
  8264     0E3D  0DAC               	rlf	___flmul@grs+3,f
  8265     0E3E  0BF9               	decfsz	??___flmul,f
  8266     0E3F  2E39               	goto	u4435
  8267     0E40  0820               	movf	___flmul@b,w
  8268     0E41  00F0               	movwf	__Umul8_16@multiplicand
  8269     0E42  0824               	movf	___flmul@a,w
  8270     0E43  160A  158A  22C2  120A  158A  	fcall	__Umul8_16
  8271     0E48  0871               	movf	?__Umul8_16+1,w
  8272     0E49  1283               	bcf	3,5	;RP0=0, select bank0
  8273     0E4A  1303               	bcf	3,6	;RP1=0, select bank0
  8274     0E4B  00B4               	movwf	___flmul@temp+1
  8275     0E4C  0870               	movf	?__Umul8_16,w
  8276     0E4D  00B3               	movwf	___flmul@temp
  8277     0E4E                     l2870:
  8278     0E4E  0833               	movf	___flmul@temp,w
  8279     0E4F  00F9               	movwf	??___flmul
  8280     0E50  0834               	movf	___flmul@temp+1,w
  8281     0E51  00FA               	movwf	??___flmul+1
  8282     0E52  01FB               	clrf	??___flmul+2
  8283     0E53  01FC               	clrf	??___flmul+3
  8284     0E54  0879               	movf	??___flmul,w
  8285     0E55  07A9               	addwf	___flmul@grs,f
  8286     0E56  087A               	movf	??___flmul+1,w
  8287     0E57  1103               	clrz
  8288     0E58  1803               	skipnc
  8289     0E59  3E01               	addlw	1
  8290     0E5A  1903               	skipnz
  8291     0E5B  2E5D               	goto	u4441
  8292     0E5C  07AA               	addwf	___flmul@grs+1,f
  8293     0E5D                     u4441:
  8294     0E5D  087B               	movf	??___flmul+2,w
  8295     0E5E  1103               	clrz
  8296     0E5F  1803               	skipnc
  8297     0E60  3E01               	addlw	1
  8298     0E61  1903               	skipnz
  8299     0E62  2E64               	goto	u4442
  8300     0E63  07AB               	addwf	___flmul@grs+2,f
  8301     0E64                     u4442:
  8302     0E64  087C               	movf	??___flmul+3,w
  8303     0E65  1103               	clrz
  8304     0E66  1803               	skipnc
  8305     0E67  3E01               	addlw	1
  8306     0E68  1903               	skipnz
  8307     0E69  2E6B               	goto	u4443
  8308     0E6A  07AC               	addwf	___flmul@grs+3,f
  8309     0E6B                     u4443:
  8310     0E6B                     l2872:
  8311     0E6B  0821               	movf	___flmul@b+1,w
  8312     0E6C  00F0               	movwf	__Umul8_16@multiplicand
  8313     0E6D  0826               	movf	___flmul@a+2,w
  8314     0E6E  160A  158A  22C2  120A  158A  	fcall	__Umul8_16
  8315     0E73  0871               	movf	?__Umul8_16+1,w
  8316     0E74  1283               	bcf	3,5	;RP0=0, select bank0
  8317     0E75  1303               	bcf	3,6	;RP1=0, select bank0
  8318     0E76  00B4               	movwf	___flmul@temp+1
  8319     0E77  0870               	movf	?__Umul8_16,w
  8320     0E78  00B3               	movwf	___flmul@temp
  8321     0E79  0833               	movf	___flmul@temp,w
  8322     0E7A  00F9               	movwf	??___flmul
  8323     0E7B  0834               	movf	___flmul@temp+1,w
  8324     0E7C  00FA               	movwf	??___flmul+1
  8325     0E7D  01FB               	clrf	??___flmul+2
  8326     0E7E  01FC               	clrf	??___flmul+3
  8327     0E7F  0879               	movf	??___flmul,w
  8328     0E80  07AF               	addwf	___flmul@prod,f
  8329     0E81  087A               	movf	??___flmul+1,w
  8330     0E82  1103               	clrz
  8331     0E83  1803               	skipnc
  8332     0E84  3E01               	addlw	1
  8333     0E85  1903               	skipnz
  8334     0E86  2E88               	goto	u4451
  8335     0E87  07B0               	addwf	___flmul@prod+1,f
  8336     0E88                     u4451:
  8337     0E88  087B               	movf	??___flmul+2,w
  8338     0E89  1103               	clrz
  8339     0E8A  1803               	skipnc
  8340     0E8B  3E01               	addlw	1
  8341     0E8C  1903               	skipnz
  8342     0E8D  2E8F               	goto	u4452
  8343     0E8E  07B1               	addwf	___flmul@prod+2,f
  8344     0E8F                     u4452:
  8345     0E8F  087C               	movf	??___flmul+3,w
  8346     0E90  1103               	clrz
  8347     0E91  1803               	skipnc
  8348     0E92  3E01               	addlw	1
  8349     0E93  1903               	skipnz
  8350     0E94  2E96               	goto	u4453
  8351     0E95  07B2               	addwf	___flmul@prod+3,f
  8352     0E96                     u4453:
  8353     0E96                     l2874:
  8354     0E96  0822               	movf	___flmul@b+2,w
  8355     0E97  00F0               	movwf	__Umul8_16@multiplicand
  8356     0E98  0825               	movf	___flmul@a+1,w
  8357     0E99  160A  158A  22C2  120A  158A  	fcall	__Umul8_16
  8358     0E9E  0871               	movf	?__Umul8_16+1,w
  8359     0E9F  1283               	bcf	3,5	;RP0=0, select bank0
  8360     0EA0  1303               	bcf	3,6	;RP1=0, select bank0
  8361     0EA1  00B4               	movwf	___flmul@temp+1
  8362     0EA2  0870               	movf	?__Umul8_16,w
  8363     0EA3  00B3               	movwf	___flmul@temp
  8364     0EA4                     l2876:
  8365     0EA4  0833               	movf	___flmul@temp,w
  8366     0EA5  00F9               	movwf	??___flmul
  8367     0EA6  0834               	movf	___flmul@temp+1,w
  8368     0EA7  00FA               	movwf	??___flmul+1
  8369     0EA8  01FB               	clrf	??___flmul+2
  8370     0EA9  01FC               	clrf	??___flmul+3
  8371     0EAA  0879               	movf	??___flmul,w
  8372     0EAB  07AF               	addwf	___flmul@prod,f
  8373     0EAC  087A               	movf	??___flmul+1,w
  8374     0EAD  1103               	clrz
  8375     0EAE  1803               	skipnc
  8376     0EAF  3E01               	addlw	1
  8377     0EB0  1903               	skipnz
  8378     0EB1  2EB3               	goto	u4461
  8379     0EB2  07B0               	addwf	___flmul@prod+1,f
  8380     0EB3                     u4461:
  8381     0EB3  087B               	movf	??___flmul+2,w
  8382     0EB4  1103               	clrz
  8383     0EB5  1803               	skipnc
  8384     0EB6  3E01               	addlw	1
  8385     0EB7  1903               	skipnz
  8386     0EB8  2EBA               	goto	u4462
  8387     0EB9  07B1               	addwf	___flmul@prod+2,f
  8388     0EBA                     u4462:
  8389     0EBA  087C               	movf	??___flmul+3,w
  8390     0EBB  1103               	clrz
  8391     0EBC  1803               	skipnc
  8392     0EBD  3E01               	addlw	1
  8393     0EBE  1903               	skipnz
  8394     0EBF  2EC1               	goto	u4463
  8395     0EC0  07B2               	addwf	___flmul@prod+3,f
  8396     0EC1                     u4463:
  8397     0EC1  0822               	movf	___flmul@b+2,w
  8398     0EC2  00F0               	movwf	__Umul8_16@multiplicand
  8399     0EC3  0826               	movf	___flmul@a+2,w
  8400     0EC4  160A  158A  22C2  120A  158A  	fcall	__Umul8_16
  8401     0EC9  0871               	movf	?__Umul8_16+1,w
  8402     0ECA  1283               	bcf	3,5	;RP0=0, select bank0
  8403     0ECB  1303               	bcf	3,6	;RP1=0, select bank0
  8404     0ECC  00B4               	movwf	___flmul@temp+1
  8405     0ECD  0870               	movf	?__Umul8_16,w
  8406     0ECE  00B3               	movwf	___flmul@temp
  8407     0ECF                     l2878:
  8408     0ECF  0833               	movf	___flmul@temp,w
  8409     0ED0  00F9               	movwf	??___flmul
  8410     0ED1  0834               	movf	___flmul@temp+1,w
  8411     0ED2  00FA               	movwf	??___flmul+1
  8412     0ED3  01FB               	clrf	??___flmul+2
  8413     0ED4  01FC               	clrf	??___flmul+3
  8414     0ED5  3008               	movlw	8
  8415     0ED6                     u4475:
  8416     0ED6  1003               	clrc
  8417     0ED7  0DF9               	rlf	??___flmul,f
  8418     0ED8  0DFA               	rlf	??___flmul+1,f
  8419     0ED9  0DFB               	rlf	??___flmul+2,f
  8420     0EDA  0DFC               	rlf	??___flmul+3,f
  8421     0EDB                     u4470:
  8422     0EDB  3EFF               	addlw	-1
  8423     0EDC  1D03               	skipz
  8424     0EDD  2ED6               	goto	u4475
  8425     0EDE  0879               	movf	??___flmul,w
  8426     0EDF  07AF               	addwf	___flmul@prod,f
  8427     0EE0  087A               	movf	??___flmul+1,w
  8428     0EE1  1103               	clrz
  8429     0EE2  1803               	skipnc
  8430     0EE3  3E01               	addlw	1
  8431     0EE4  1903               	skipnz
  8432     0EE5  2EE7               	goto	u4481
  8433     0EE6  07B0               	addwf	___flmul@prod+1,f
  8434     0EE7                     u4481:
  8435     0EE7  087B               	movf	??___flmul+2,w
  8436     0EE8  1103               	clrz
  8437     0EE9  1803               	skipnc
  8438     0EEA  3E01               	addlw	1
  8439     0EEB  1903               	skipnz
  8440     0EEC  2EEE               	goto	u4482
  8441     0EED  07B1               	addwf	___flmul@prod+2,f
  8442     0EEE                     u4482:
  8443     0EEE  087C               	movf	??___flmul+3,w
  8444     0EEF  1103               	clrz
  8445     0EF0  1803               	skipnc
  8446     0EF1  3E01               	addlw	1
  8447     0EF2  1903               	skipnz
  8448     0EF3  2EF5               	goto	u4483
  8449     0EF4  07B2               	addwf	___flmul@prod+3,f
  8450     0EF5                     u4483:
  8451     0EF5                     l2880:
  8452     0EF5  0829               	movf	___flmul@grs,w
  8453     0EF6  00F9               	movwf	??___flmul
  8454     0EF7  082A               	movf	___flmul@grs+1,w
  8455     0EF8  00FA               	movwf	??___flmul+1
  8456     0EF9  082B               	movf	___flmul@grs+2,w
  8457     0EFA  00FB               	movwf	??___flmul+2
  8458     0EFB  082C               	movf	___flmul@grs+3,w
  8459     0EFC  00FC               	movwf	??___flmul+3
  8460     0EFD  3018               	movlw	24
  8461     0EFE                     u4495:
  8462     0EFE  1003               	clrc
  8463     0EFF  0CFC               	rrf	??___flmul+3,f
  8464     0F00  0CFB               	rrf	??___flmul+2,f
  8465     0F01  0CFA               	rrf	??___flmul+1,f
  8466     0F02  0CF9               	rrf	??___flmul,f
  8467     0F03                     u4490:
  8468     0F03  3EFF               	addlw	-1
  8469     0F04  1D03               	skipz
  8470     0F05  2EFE               	goto	u4495
  8471     0F06  0879               	movf	??___flmul,w
  8472     0F07  07AF               	addwf	___flmul@prod,f
  8473     0F08  087A               	movf	??___flmul+1,w
  8474     0F09  1103               	clrz
  8475     0F0A  1803               	skipnc
  8476     0F0B  3E01               	addlw	1
  8477     0F0C  1903               	skipnz
  8478     0F0D  2F0F               	goto	u4501
  8479     0F0E  07B0               	addwf	___flmul@prod+1,f
  8480     0F0F                     u4501:
  8481     0F0F  087B               	movf	??___flmul+2,w
  8482     0F10  1103               	clrz
  8483     0F11  1803               	skipnc
  8484     0F12  3E01               	addlw	1
  8485     0F13  1903               	skipnz
  8486     0F14  2F16               	goto	u4502
  8487     0F15  07B1               	addwf	___flmul@prod+2,f
  8488     0F16                     u4502:
  8489     0F16  087C               	movf	??___flmul+3,w
  8490     0F17  1103               	clrz
  8491     0F18  1803               	skipnc
  8492     0F19  3E01               	addlw	1
  8493     0F1A  1903               	skipnz
  8494     0F1B  2F1D               	goto	u4503
  8495     0F1C  07B2               	addwf	___flmul@prod+3,f
  8496     0F1D                     u4503:
  8497     0F1D                     l2882:
  8498     0F1D  3008               	movlw	8
  8499     0F1E  00F9               	movwf	??___flmul
  8500     0F1F                     u4515:
  8501     0F1F  1003               	clrc
  8502     0F20  0DA9               	rlf	___flmul@grs,f
  8503     0F21  0DAA               	rlf	___flmul@grs+1,f
  8504     0F22  0DAB               	rlf	___flmul@grs+2,f
  8505     0F23  0DAC               	rlf	___flmul@grs+3,f
  8506     0F24  0BF9               	decfsz	??___flmul,f
  8507     0F25  2F1F               	goto	u4515
  8508     0F26                     l2884:
  8509     0F26  082E               	movf	___flmul@bexp,w
  8510     0F27  072D               	addwf	___flmul@aexp,w
  8511     0F28  00F9               	movwf	??___flmul
  8512     0F29  01FA               	clrf	??___flmul+1
  8513     0F2A  0DFA               	rlf	??___flmul+1,f
  8514     0F2B  0879               	movf	??___flmul,w
  8515     0F2C  3E82               	addlw	130
  8516     0F2D  00B3               	movwf	___flmul@temp
  8517     0F2E  087A               	movf	??___flmul+1,w
  8518     0F2F  1803               	skipnc
  8519     0F30  3E01               	addlw	1
  8520     0F31  3EFF               	addlw	255
  8521     0F32  00B4               	movwf	___flmul@temp+1
  8522     0F33  2F51               	goto	l2896
  8523     0F34                     l2886:
  8524     0F34  3001               	movlw	1
  8525     0F35  00F9               	movwf	??___flmul
  8526     0F36                     u4525:
  8527     0F36  1003               	clrc
  8528     0F37  0DAF               	rlf	___flmul@prod,f
  8529     0F38  0DB0               	rlf	___flmul@prod+1,f
  8530     0F39  0DB1               	rlf	___flmul@prod+2,f
  8531     0F3A  0DB2               	rlf	___flmul@prod+3,f
  8532     0F3B  0BF9               	decfsz	??___flmul,f
  8533     0F3C  2F36               	goto	u4525
  8534     0F3D                     l2888:
  8535     0F3D  1FAC               	btfss	___flmul@grs+3,7
  8536     0F3E  2F40               	goto	u4531
  8537     0F3F  2F41               	goto	u4530
  8538     0F40                     u4531:
  8539     0F40  2F42               	goto	l2892
  8540     0F41                     u4530:
  8541     0F41                     l2890:
  8542     0F41  142F               	bsf	___flmul@prod,0
  8543     0F42                     l2892:
  8544     0F42  3001               	movlw	1
  8545     0F43  00F9               	movwf	??___flmul
  8546     0F44                     u4545:
  8547     0F44  1003               	clrc
  8548     0F45  0DA9               	rlf	___flmul@grs,f
  8549     0F46  0DAA               	rlf	___flmul@grs+1,f
  8550     0F47  0DAB               	rlf	___flmul@grs+2,f
  8551     0F48  0DAC               	rlf	___flmul@grs+3,f
  8552     0F49  0BF9               	decfsz	??___flmul,f
  8553     0F4A  2F44               	goto	u4545
  8554     0F4B                     l2894:
  8555     0F4B  30FF               	movlw	255
  8556     0F4C  07B3               	addwf	___flmul@temp,f
  8557     0F4D  1803               	skipnc
  8558     0F4E  0AB4               	incf	___flmul@temp+1,f
  8559     0F4F  30FF               	movlw	255
  8560     0F50  07B4               	addwf	___flmul@temp+1,f
  8561     0F51                     l2896:
  8562     0F51  1FB1               	btfss	___flmul@prod+2,7
  8563     0F52  2F54               	goto	u4551
  8564     0F53  2F55               	goto	u4550
  8565     0F54                     u4551:
  8566     0F54  2F34               	goto	l2886
  8567     0F55                     u4550:
  8568     0F55                     l2898:
  8569     0F55  01AD               	clrf	___flmul@aexp
  8570     0F56                     l2900:
  8571     0F56  1FAC               	btfss	___flmul@grs+3,7
  8572     0F57  2F59               	goto	u4561
  8573     0F58  2F5A               	goto	u4560
  8574     0F59                     u4561:
  8575     0F59  2F76               	goto	l2908
  8576     0F5A                     u4560:
  8577     0F5A                     l2902:
  8578     0F5A  30FF               	movlw	255
  8579     0F5B  0529               	andwf	___flmul@grs,w
  8580     0F5C  00F9               	movwf	??___flmul
  8581     0F5D  30FF               	movlw	255
  8582     0F5E  052A               	andwf	___flmul@grs+1,w
  8583     0F5F  00FA               	movwf	??___flmul+1
  8584     0F60  30FF               	movlw	255
  8585     0F61  052B               	andwf	___flmul@grs+2,w
  8586     0F62  00FB               	movwf	??___flmul+2
  8587     0F63  307F               	movlw	127
  8588     0F64  052C               	andwf	___flmul@grs+3,w
  8589     0F65  00FC               	movwf	??___flmul+3
  8590     0F66  087C               	movf	??___flmul+3,w
  8591     0F67  047B               	iorwf	??___flmul+2,w
  8592     0F68  047A               	iorwf	??___flmul+1,w
  8593     0F69  0479               	iorwf	??___flmul,w
  8594     0F6A  1903               	skipnz
  8595     0F6B  2F6D               	goto	u4571
  8596     0F6C  2F6E               	goto	u4570
  8597     0F6D                     u4571:
  8598     0F6D  2F71               	goto	l644
  8599     0F6E                     u4570:
  8600     0F6E                     l2904:
  8601     0F6E  3001               	movlw	1
  8602     0F6F  00AD               	movwf	___flmul@aexp
  8603     0F70  2F76               	goto	l2908
  8604     0F71                     l644:
  8605     0F71  1C2F               	btfss	___flmul@prod,0
  8606     0F72  2F74               	goto	u4581
  8607     0F73  2F75               	goto	u4580
  8608     0F74                     u4581:
  8609     0F74  2F76               	goto	l2908
  8610     0F75                     u4580:
  8611     0F75  2F6E               	goto	l2904
  8612     0F76                     l2908:
  8613     0F76  082D               	movf	___flmul@aexp,w
  8614     0F77  1903               	btfsc	3,2
  8615     0F78  2F7A               	goto	u4591
  8616     0F79  2F7B               	goto	u4590
  8617     0F7A                     u4591:
  8618     0F7A  2FAC               	goto	l2918
  8619     0F7B                     u4590:
  8620     0F7B                     l2910:
  8621     0F7B  3001               	movlw	1
  8622     0F7C  07AF               	addwf	___flmul@prod,f
  8623     0F7D  3000               	movlw	0
  8624     0F7E  1803               	skipnc
  8625     0F7F  3001               	movlw	1
  8626     0F80  07B0               	addwf	___flmul@prod+1,f
  8627     0F81  3000               	movlw	0
  8628     0F82  1803               	skipnc
  8629     0F83  3001               	movlw	1
  8630     0F84  07B1               	addwf	___flmul@prod+2,f
  8631     0F85  3000               	movlw	0
  8632     0F86  1803               	skipnc
  8633     0F87  3001               	movlw	1
  8634     0F88  07B2               	addwf	___flmul@prod+3,f
  8635     0F89                     l2912:
  8636     0F89  1C32               	btfss	___flmul@prod+3,0
  8637     0F8A  2F8C               	goto	u4601
  8638     0F8B  2F8D               	goto	u4600
  8639     0F8C                     u4601:
  8640     0F8C  2FAC               	goto	l2918
  8641     0F8D                     u4600:
  8642     0F8D                     l2914:
  8643     0F8D  082F               	movf	___flmul@prod,w
  8644     0F8E  00F9               	movwf	??___flmul
  8645     0F8F  0830               	movf	___flmul@prod+1,w
  8646     0F90  00FA               	movwf	??___flmul+1
  8647     0F91  0831               	movf	___flmul@prod+2,w
  8648     0F92  00FB               	movwf	??___flmul+2
  8649     0F93  0832               	movf	___flmul@prod+3,w
  8650     0F94  00FC               	movwf	??___flmul+3
  8651     0F95  3001               	movlw	1
  8652     0F96  00FD               	movwf	??___flmul+4
  8653     0F97                     u4615:
  8654     0F97  0D7C               	rlf	??___flmul+3,w
  8655     0F98  0CFC               	rrf	??___flmul+3,f
  8656     0F99  0CFB               	rrf	??___flmul+2,f
  8657     0F9A  0CFA               	rrf	??___flmul+1,f
  8658     0F9B  0CF9               	rrf	??___flmul,f
  8659     0F9C                     u4610:
  8660     0F9C  0BFD               	decfsz	??___flmul+4,f
  8661     0F9D  2F97               	goto	u4615
  8662     0F9E  087C               	movf	??___flmul+3,w
  8663     0F9F  00B2               	movwf	___flmul@prod+3
  8664     0FA0  087B               	movf	??___flmul+2,w
  8665     0FA1  00B1               	movwf	___flmul@prod+2
  8666     0FA2  087A               	movf	??___flmul+1,w
  8667     0FA3  00B0               	movwf	___flmul@prod+1
  8668     0FA4  0879               	movf	??___flmul,w
  8669     0FA5  00AF               	movwf	___flmul@prod
  8670     0FA6                     l2916:
  8671     0FA6  3001               	movlw	1
  8672     0FA7  07B3               	addwf	___flmul@temp,f
  8673     0FA8  1803               	skipnc
  8674     0FA9  0AB4               	incf	___flmul@temp+1,f
  8675     0FAA  3000               	movlw	0
  8676     0FAB  07B4               	addwf	___flmul@temp+1,f
  8677     0FAC                     l2918:
  8678     0FAC  0834               	movf	___flmul@temp+1,w
  8679     0FAD  3A80               	xorlw	128
  8680     0FAE  00FF               	movwf	btemp+1
  8681     0FAF  3080               	movlw	128
  8682     0FB0  027F               	subwf	btemp+1,w
  8683     0FB1  1D03               	skipz
  8684     0FB2  2FB5               	goto	u4625
  8685     0FB3  30FF               	movlw	255
  8686     0FB4  0233               	subwf	___flmul@temp,w
  8687     0FB5                     u4625:
  8688     0FB5  1C03               	skipc
  8689     0FB6  2FB8               	goto	u4621
  8690     0FB7  2FB9               	goto	u4620
  8691     0FB8                     u4621:
  8692     0FB8  2FC4               	goto	l2922
  8693     0FB9                     u4620:
  8694     0FB9                     l2920:
  8695     0FB9  307F               	movlw	127
  8696     0FBA  1283               	bcf	3,5	;RP0=0, select bank0
  8697     0FBB  1303               	bcf	3,6	;RP1=0, select bank0
  8698     0FBC  00B2               	movwf	___flmul@prod+3
  8699     0FBD  3080               	movlw	128
  8700     0FBE  00B1               	movwf	___flmul@prod+2
  8701     0FBF  3000               	movlw	0
  8702     0FC0  00B0               	movwf	___flmul@prod+1
  8703     0FC1  3000               	movlw	0
  8704     0FC2  00AF               	movwf	___flmul@prod
  8705     0FC3  2FF5               	goto	l650
  8706     0FC4                     l2922:
  8707     0FC4  1283               	bcf	3,5	;RP0=0, select bank0
  8708     0FC5  1303               	bcf	3,6	;RP1=0, select bank0
  8709     0FC6  0834               	movf	___flmul@temp+1,w
  8710     0FC7  3A80               	xorlw	128
  8711     0FC8  00FF               	movwf	btemp+1
  8712     0FC9  3080               	movlw	128
  8713     0FCA  027F               	subwf	btemp+1,w
  8714     0FCB  1D03               	skipz
  8715     0FCC  2FCF               	goto	u4635
  8716     0FCD  3001               	movlw	1
  8717     0FCE  0233               	subwf	___flmul@temp,w
  8718     0FCF                     u4635:
  8719     0FCF  1803               	skipnc
  8720     0FD0  2FD2               	goto	u4631
  8721     0FD1  2FD3               	goto	u4630
  8722     0FD2                     u4631:
  8723     0FD2  2FDF               	goto	l2928
  8724     0FD3                     u4630:
  8725     0FD3                     l2924:
  8726     0FD3  3000               	movlw	0
  8727     0FD4  1283               	bcf	3,5	;RP0=0, select bank0
  8728     0FD5  1303               	bcf	3,6	;RP1=0, select bank0
  8729     0FD6  00B2               	movwf	___flmul@prod+3
  8730     0FD7  3000               	movlw	0
  8731     0FD8  00B1               	movwf	___flmul@prod+2
  8732     0FD9  3000               	movlw	0
  8733     0FDA  00B0               	movwf	___flmul@prod+1
  8734     0FDB  3000               	movlw	0
  8735     0FDC  00AF               	movwf	___flmul@prod
  8736     0FDD                     l2926:
  8737     0FDD  01A8               	clrf	___flmul@sign
  8738     0FDE  2FF5               	goto	l650
  8739     0FDF                     l2928:
  8740     0FDF  1283               	bcf	3,5	;RP0=0, select bank0
  8741     0FE0  1303               	bcf	3,6	;RP1=0, select bank0
  8742     0FE1  0833               	movf	___flmul@temp,w
  8743     0FE2  00AE               	movwf	___flmul@bexp
  8744     0FE3  30FF               	movlw	255
  8745     0FE4  05AF               	andwf	___flmul@prod,f
  8746     0FE5  30FF               	movlw	255
  8747     0FE6  05B0               	andwf	___flmul@prod+1,f
  8748     0FE7  307F               	movlw	127
  8749     0FE8  05B1               	andwf	___flmul@prod+2,f
  8750     0FE9  3000               	movlw	0
  8751     0FEA  05B2               	andwf	___flmul@prod+3,f
  8752     0FEB                     l2930:
  8753     0FEB  1C2E               	btfss	___flmul@bexp,0
  8754     0FEC  2FEE               	goto	u4641
  8755     0FED  2FEF               	goto	u4640
  8756     0FEE                     u4641:
  8757     0FEE  2FF0               	goto	l2934
  8758     0FEF                     u4640:
  8759     0FEF                     l2932:
  8760     0FEF  17B1               	bsf	___flmul@prod+2,7
  8761     0FF0                     l2934:
  8762     0FF0  082E               	movf	___flmul@bexp,w
  8763     0FF1  00F9               	movwf	??___flmul
  8764     0FF2  1003               	clrc
  8765     0FF3  0C79               	rrf	??___flmul,w
  8766     0FF4  00B2               	movwf	___flmul@prod+3
  8767     0FF5                     l650:
  8768     0FF5  0828               	movf	___flmul@sign,w
  8769     0FF6  04B2               	iorwf	___flmul@prod+3,f
  8770     0FF7                     l2936:
  8771     0FF7  0832               	movf	___flmul@prod+3,w
  8772     0FF8  00A3               	movwf	?___flmul+3
  8773     0FF9  0831               	movf	___flmul@prod+2,w
  8774     0FFA  00A2               	movwf	?___flmul+2
  8775     0FFB  0830               	movf	___flmul@prod+1,w
  8776     0FFC  00A1               	movwf	?___flmul+1
  8777     0FFD  082F               	movf	___flmul@prod,w
  8778     0FFE  00A0               	movwf	?___flmul
  8779     0FFF                     l638:
  8780     0FFF  0008               	return
  8781     1000                     __end_of___flmul:
  8782                           
  8783                           	psect	text37
  8784     1AC2                     __ptext37:	
  8785 ;; *************** function __Umul8_16 *****************
  8786 ;; Defined at:
  8787 ;;		line 4 in file "C:\Program Files\Microchip\xc8\v3.00\pic\sources\c99\common\Umul8_16.c"
  8788 ;; Parameters:    Size  Location     Type
  8789 ;;  multiplier      1    wreg     unsigned char 
  8790 ;;  multiplicand    1    0[COMMON] unsigned char 
  8791 ;; Auto vars:     Size  Location     Type
  8792 ;;  multiplier      1    8[COMMON] unsigned char 
  8793 ;;  word_mpld       2    6[COMMON] unsigned short 
  8794 ;;  product         2    4[COMMON] unsigned short 
  8795 ;; Return value:  Size  Location     Type
  8796 ;;                  2    0[COMMON] unsigned int 
  8797 ;; Registers used:
  8798 ;;		wreg, status,2, status,0
  8799 ;; Tracked objects:
  8800 ;;		On entry : 0/0
  8801 ;;		On exit  : 0/0
  8802 ;;		Unchanged: 0/0
  8803 ;; Data sizes:     COMMON   BANK0   BANK1   BANK3   BANK2
  8804 ;;      Params:         2       0       0       0       0
  8805 ;;      Locals:         5       0       0       0       0
  8806 ;;      Temps:          2       0       0       0       0
  8807 ;;      Totals:         9       0       0       0       0
  8808 ;;Total ram usage:        9 bytes
  8809 ;; Hardware stack levels used: 1
  8810 ;; This function calls:
  8811 ;;		Nothing
  8812 ;; This function is called by:
  8813 ;;		___flmul
  8814 ;; This function uses a non-reentrant model
  8815 ;;
  8816                           
  8817     1AC2                     __Umul8_16:	
  8818                           ;psect for function __Umul8_16
  8819                           
  8820                           
  8821                           ;incstack = 0
  8822                           ; Regs used in __Umul8_16: [wreg+status,2+status,0]
  8823                           ;__Umul8_16@multiplier stored from wreg
  8824     1AC2  00F8               	movwf	__Umul8_16@multiplier
  8825     1AC3                     l2488:
  8826     1AC3  01F4               	clrf	__Umul8_16@product
  8827     1AC4  01F5               	clrf	__Umul8_16@product+1
  8828     1AC5                     l2490:
  8829     1AC5  0870               	movf	__Umul8_16@multiplicand,w
  8830     1AC6  00F2               	movwf	??__Umul8_16
  8831     1AC7  01F3               	clrf	??__Umul8_16+1
  8832     1AC8  0872               	movf	??__Umul8_16,w
  8833     1AC9  00F6               	movwf	__Umul8_16@word_mpld
  8834     1ACA  0873               	movf	??__Umul8_16+1,w
  8835     1ACB  00F7               	movwf	__Umul8_16@word_mpld+1
  8836     1ACC                     l2492:
  8837     1ACC  1C78               	btfss	__Umul8_16@multiplier,0
  8838     1ACD  2ACF               	goto	u3571
  8839     1ACE  2AD0               	goto	u3570
  8840     1ACF                     u3571:
  8841     1ACF  2AD6               	goto	l657
  8842     1AD0                     u3570:
  8843     1AD0                     l2494:
  8844     1AD0  0876               	movf	__Umul8_16@word_mpld,w
  8845     1AD1  07F4               	addwf	__Umul8_16@product,f
  8846     1AD2  1803               	skipnc
  8847     1AD3  0AF5               	incf	__Umul8_16@product+1,f
  8848     1AD4  0877               	movf	__Umul8_16@word_mpld+1,w
  8849     1AD5  07F5               	addwf	__Umul8_16@product+1,f
  8850     1AD6                     l657:
  8851     1AD6  3001               	movlw	1
  8852     1AD7                     u3585:
  8853     1AD7  1003               	clrc
  8854     1AD8  0DF6               	rlf	__Umul8_16@word_mpld,f
  8855     1AD9  0DF7               	rlf	__Umul8_16@word_mpld+1,f
  8856     1ADA  3EFF               	addlw	-1
  8857     1ADB  1D03               	skipz
  8858     1ADC  2AD7               	goto	u3585
  8859     1ADD  1003               	clrc
  8860     1ADE  0CF8               	rrf	__Umul8_16@multiplier,f
  8861     1ADF                     l2496:
  8862     1ADF  0878               	movf	__Umul8_16@multiplier,w
  8863     1AE0  1D03               	btfss	3,2
  8864     1AE1  2AE3               	goto	u3591
  8865     1AE2  2AE4               	goto	u3590
  8866     1AE3                     u3591:
  8867     1AE3  2ACC               	goto	l2492
  8868     1AE4                     u3590:
  8869     1AE4                     l2498:
  8870     1AE4  0875               	movf	__Umul8_16@product+1,w
  8871     1AE5  00F1               	movwf	?__Umul8_16+1
  8872     1AE6  0874               	movf	__Umul8_16@product,w
  8873     1AE7  00F0               	movwf	?__Umul8_16
  8874     1AE8                     l659:
  8875     1AE8  0008               	return
  8876     1AE9                     __end_of__Umul8_16:
  8877                           
  8878                           	psect	text38
  8879     1EB8                     __ptext38:	
  8880 ;; *************** function ___flge *****************
  8881 ;; Defined at:
  8882 ;;		line 4 in file "C:\Program Files\Microchip\xc8\v3.00\pic\sources\c99\common\flge.c"
  8883 ;; Parameters:    Size  Location     Type
  8884 ;;  ff1             4   21[BANK0 ] unsigned int 
  8885 ;;  ff2             4   25[BANK0 ] unsigned int 
  8886 ;; Auto vars:     Size  Location     Type
  8887 ;;		None
  8888 ;; Return value:  Size  Location     Type
  8889 ;;		None               void
  8890 ;; Registers used:
  8891 ;;		wreg, status,2, status,0
  8892 ;; Tracked objects:
  8893 ;;		On entry : 0/0
  8894 ;;		On exit  : 0/0
  8895 ;;		Unchanged: 0/0
  8896 ;; Data sizes:     COMMON   BANK0   BANK1   BANK3   BANK2
  8897 ;;      Params:         0       8       0       0       0
  8898 ;;      Locals:         0       0       0       0       0
  8899 ;;      Temps:          0       4       0       0       0
  8900 ;;      Totals:         0      12       0       0       0
  8901 ;;Total ram usage:       12 bytes
  8902 ;; Hardware stack levels used: 1
  8903 ;; This function calls:
  8904 ;;		Nothing
  8905 ;; This function is called by:
  8906 ;;		_main
  8907 ;;		_efgtoa
  8908 ;; This function uses a non-reentrant model
  8909 ;;
  8910                           
  8911     1EB8                     ___flge:	
  8912                           ;psect for function ___flge
  8913                           
  8914     1EB8                     l2536:	
  8915                           ;incstack = 0
  8916                           ; Regs used in ___flge: [wreg+status,2+status,0]
  8917                           
  8918     1EB8  3000               	movlw	0
  8919     1EB9  1283               	bcf	3,5	;RP0=0, select bank0
  8920     1EBA  1303               	bcf	3,6	;RP1=0, select bank0
  8921     1EBB  0535               	andwf	___flge@ff1,w
  8922     1EBC  00BD               	movwf	??___flge
  8923     1EBD  3000               	movlw	0
  8924     1EBE  0536               	andwf	___flge@ff1+1,w
  8925     1EBF  00BE               	movwf	??___flge+1
  8926     1EC0  3080               	movlw	128
  8927     1EC1  0537               	andwf	___flge@ff1+2,w
  8928     1EC2  00BF               	movwf	??___flge+2
  8929     1EC3  307F               	movlw	127
  8930     1EC4  0538               	andwf	___flge@ff1+3,w
  8931     1EC5  00C0               	movwf	??___flge+3
  8932     1EC6  0840               	movf	??___flge+3,w
  8933     1EC7  043F               	iorwf	??___flge+2,w
  8934     1EC8  043E               	iorwf	??___flge+1,w
  8935     1EC9  043D               	iorwf	??___flge,w
  8936     1ECA  1D03               	skipz
  8937     1ECB  2ECD               	goto	u3681
  8938     1ECC  2ECE               	goto	u3680
  8939     1ECD                     u3681:
  8940     1ECD  2ED6               	goto	l419
  8941     1ECE                     u3680:
  8942     1ECE                     l2538:
  8943     1ECE  3000               	movlw	0
  8944     1ECF  00B8               	movwf	___flge@ff1+3
  8945     1ED0  3000               	movlw	0
  8946     1ED1  00B7               	movwf	___flge@ff1+2
  8947     1ED2  3000               	movlw	0
  8948     1ED3  00B6               	movwf	___flge@ff1+1
  8949     1ED4  3000               	movlw	0
  8950     1ED5  00B5               	movwf	___flge@ff1
  8951     1ED6                     l419:
  8952     1ED6  3000               	movlw	0
  8953     1ED7  0539               	andwf	___flge@ff2,w
  8954     1ED8  00BD               	movwf	??___flge
  8955     1ED9  3000               	movlw	0
  8956     1EDA  053A               	andwf	___flge@ff2+1,w
  8957     1EDB  00BE               	movwf	??___flge+1
  8958     1EDC  3080               	movlw	128
  8959     1EDD  053B               	andwf	___flge@ff2+2,w
  8960     1EDE  00BF               	movwf	??___flge+2
  8961     1EDF  307F               	movlw	127
  8962     1EE0  053C               	andwf	___flge@ff2+3,w
  8963     1EE1  00C0               	movwf	??___flge+3
  8964     1EE2  0840               	movf	??___flge+3,w
  8965     1EE3  043F               	iorwf	??___flge+2,w
  8966     1EE4  043E               	iorwf	??___flge+1,w
  8967     1EE5  043D               	iorwf	??___flge,w
  8968     1EE6  1D03               	skipz
  8969     1EE7  2EE9               	goto	u3691
  8970     1EE8  2EEA               	goto	u3690
  8971     1EE9                     u3691:
  8972     1EE9  2EF2               	goto	l2542
  8973     1EEA                     u3690:
  8974     1EEA                     l2540:
  8975     1EEA  3000               	movlw	0
  8976     1EEB  00BC               	movwf	___flge@ff2+3
  8977     1EEC  3000               	movlw	0
  8978     1EED  00BB               	movwf	___flge@ff2+2
  8979     1EEE  3000               	movlw	0
  8980     1EEF  00BA               	movwf	___flge@ff2+1
  8981     1EF0  3000               	movlw	0
  8982     1EF1  00B9               	movwf	___flge@ff2
  8983     1EF2                     l2542:
  8984     1EF2  1FB8               	btfss	___flge@ff1+3,7
  8985     1EF3  2EF5               	goto	u3701
  8986     1EF4  2EF6               	goto	u3700
  8987     1EF5                     u3701:
  8988     1EF5  2F1A               	goto	l2546
  8989     1EF6                     u3700:
  8990     1EF6                     l2544:
  8991     1EF6  3000               	movlw	0
  8992     1EF7  00BD               	movwf	??___flge
  8993     1EF8  3000               	movlw	0
  8994     1EF9  00BE               	movwf	??___flge+1
  8995     1EFA  3000               	movlw	0
  8996     1EFB  00BF               	movwf	??___flge+2
  8997     1EFC  3080               	movlw	128
  8998     1EFD  00C0               	movwf	??___flge+3
  8999     1EFE  0835               	movf	___flge@ff1,w
  9000     1EFF  02BD               	subwf	??___flge,f
  9001     1F00  0836               	movf	___flge@ff1+1,w
  9002     1F01  1C03               	skipc
  9003     1F02  0F36               	incfsz	___flge@ff1+1,w
  9004     1F03  2F05               	goto	u3711
  9005     1F04  2F06               	goto	u3712
  9006     1F05                     u3711:
  9007     1F05  02BE               	subwf	??___flge+1,f
  9008     1F06                     u3712:
  9009     1F06  0837               	movf	___flge@ff1+2,w
  9010     1F07  1C03               	skipc
  9011     1F08  0F37               	incfsz	___flge@ff1+2,w
  9012     1F09  2F0B               	goto	u3713
  9013     1F0A  2F0C               	goto	u3714
  9014     1F0B                     u3713:
  9015     1F0B  02BF               	subwf	??___flge+2,f
  9016     1F0C                     u3714:
  9017     1F0C  0838               	movf	___flge@ff1+3,w
  9018     1F0D  1C03               	skipc
  9019     1F0E  0F38               	incfsz	___flge@ff1+3,w
  9020     1F0F  2F11               	goto	u3715
  9021     1F10  2F12               	goto	u3716
  9022     1F11                     u3715:
  9023     1F11  02C0               	subwf	??___flge+3,f
  9024     1F12                     u3716:
  9025     1F12  0840               	movf	??___flge+3,w
  9026     1F13  00B8               	movwf	___flge@ff1+3
  9027     1F14  083F               	movf	??___flge+2,w
  9028     1F15  00B7               	movwf	___flge@ff1+2
  9029     1F16  083E               	movf	??___flge+1,w
  9030     1F17  00B6               	movwf	___flge@ff1+1
  9031     1F18  083D               	movf	??___flge,w
  9032     1F19  00B5               	movwf	___flge@ff1
  9033     1F1A                     l2546:
  9034     1F1A  1FBC               	btfss	___flge@ff2+3,7
  9035     1F1B  2F1D               	goto	u3721
  9036     1F1C  2F1E               	goto	u3720
  9037     1F1D                     u3721:
  9038     1F1D  2F42               	goto	l422
  9039     1F1E                     u3720:
  9040     1F1E                     l2548:
  9041     1F1E  3000               	movlw	0
  9042     1F1F  00BD               	movwf	??___flge
  9043     1F20  3000               	movlw	0
  9044     1F21  00BE               	movwf	??___flge+1
  9045     1F22  3000               	movlw	0
  9046     1F23  00BF               	movwf	??___flge+2
  9047     1F24  3080               	movlw	128
  9048     1F25  00C0               	movwf	??___flge+3
  9049     1F26  0839               	movf	___flge@ff2,w
  9050     1F27  02BD               	subwf	??___flge,f
  9051     1F28  083A               	movf	___flge@ff2+1,w
  9052     1F29  1C03               	skipc
  9053     1F2A  0F3A               	incfsz	___flge@ff2+1,w
  9054     1F2B  2F2D               	goto	u3731
  9055     1F2C  2F2E               	goto	u3732
  9056     1F2D                     u3731:
  9057     1F2D  02BE               	subwf	??___flge+1,f
  9058     1F2E                     u3732:
  9059     1F2E  083B               	movf	___flge@ff2+2,w
  9060     1F2F  1C03               	skipc
  9061     1F30  0F3B               	incfsz	___flge@ff2+2,w
  9062     1F31  2F33               	goto	u3733
  9063     1F32  2F34               	goto	u3734
  9064     1F33                     u3733:
  9065     1F33  02BF               	subwf	??___flge+2,f
  9066     1F34                     u3734:
  9067     1F34  083C               	movf	___flge@ff2+3,w
  9068     1F35  1C03               	skipc
  9069     1F36  0F3C               	incfsz	___flge@ff2+3,w
  9070     1F37  2F39               	goto	u3735
  9071     1F38  2F3A               	goto	u3736
  9072     1F39                     u3735:
  9073     1F39  02C0               	subwf	??___flge+3,f
  9074     1F3A                     u3736:
  9075     1F3A  0840               	movf	??___flge+3,w
  9076     1F3B  00BC               	movwf	___flge@ff2+3
  9077     1F3C  083F               	movf	??___flge+2,w
  9078     1F3D  00BB               	movwf	___flge@ff2+2
  9079     1F3E  083E               	movf	??___flge+1,w
  9080     1F3F  00BA               	movwf	___flge@ff2+1
  9081     1F40  083D               	movf	??___flge,w
  9082     1F41  00B9               	movwf	___flge@ff2
  9083     1F42                     l422:
  9084     1F42  3080               	movlw	128
  9085     1F43  06B8               	xorwf	___flge@ff1+3,f
  9086     1F44  3080               	movlw	128
  9087     1F45  06BC               	xorwf	___flge@ff2+3,f
  9088     1F46  083C               	movf	___flge@ff2+3,w
  9089     1F47  0238               	subwf	___flge@ff1+3,w
  9090     1F48  1D03               	skipz
  9091     1F49  2F54               	goto	u3745
  9092     1F4A  083B               	movf	___flge@ff2+2,w
  9093     1F4B  0237               	subwf	___flge@ff1+2,w
  9094     1F4C  1D03               	skipz
  9095     1F4D  2F54               	goto	u3745
  9096     1F4E  083A               	movf	___flge@ff2+1,w
  9097     1F4F  0236               	subwf	___flge@ff1+1,w
  9098     1F50  1D03               	skipz
  9099     1F51  2F54               	goto	u3745
  9100     1F52  0839               	movf	___flge@ff2,w
  9101     1F53  0235               	subwf	___flge@ff1,w
  9102     1F54                     u3745:
  9103     1F54  1803               	skipnc
  9104     1F55  2F57               	goto	u3741
  9105     1F56  2F58               	goto	u3740
  9106     1F57                     u3741:
  9107     1F57  2F5A               	goto	l2552
  9108     1F58                     u3740:
  9109     1F58                     l2550:
  9110     1F58  1003               	clrc
  9111     1F59  2F5B               	goto	l427
  9112     1F5A                     l2552:
  9113     1F5A  1403               	setc
  9114     1F5B                     l427:
  9115     1F5B  0008               	return
  9116     1F5C                     __end_of___flge:
  9117                           
  9118                           	psect	text39
  9119     1C2F                     __ptext39:	
  9120 ;; *************** function ___fleq *****************
  9121 ;; Defined at:
  9122 ;;		line 4 in file "C:\Program Files\Microchip\xc8\v3.00\pic\sources\c99\common\fleq.c"
  9123 ;; Parameters:    Size  Location     Type
  9124 ;;  ff1             4    0[COMMON] unsigned int 
  9125 ;;  ff2             4    4[COMMON] unsigned int 
  9126 ;; Auto vars:     Size  Location     Type
  9127 ;;		None
  9128 ;; Return value:  Size  Location     Type
  9129 ;;		None               void
  9130 ;; Registers used:
  9131 ;;		wreg, status,2, status,0
  9132 ;; Tracked objects:
  9133 ;;		On entry : 0/0
  9134 ;;		On exit  : 0/0
  9135 ;;		Unchanged: 0/0
  9136 ;; Data sizes:     COMMON   BANK0   BANK1   BANK3   BANK2
  9137 ;;      Params:         8       0       0       0       0
  9138 ;;      Locals:         0       0       0       0       0
  9139 ;;      Temps:          4       0       0       0       0
  9140 ;;      Totals:        12       0       0       0       0
  9141 ;;Total ram usage:       12 bytes
  9142 ;; Hardware stack levels used: 1
  9143 ;; This function calls:
  9144 ;;		Nothing
  9145 ;; This function is called by:
  9146 ;;		_efgtoa
  9147 ;; This function uses a non-reentrant model
  9148 ;;
  9149                           
  9150     1C2F                     ___fleq:	
  9151                           ;psect for function ___fleq
  9152                           
  9153     1C2F                     l2524:	
  9154                           ;incstack = 0
  9155                           ; Regs used in ___fleq: [wreg+status,2+status,0]
  9156                           
  9157     1C2F  3000               	movlw	0
  9158     1C30  0570               	andwf	___fleq@ff1,w
  9159     1C31  00F8               	movwf	??___fleq
  9160     1C32  3000               	movlw	0
  9161     1C33  0571               	andwf	___fleq@ff1+1,w
  9162     1C34  00F9               	movwf	??___fleq+1
  9163     1C35  3080               	movlw	128
  9164     1C36  0572               	andwf	___fleq@ff1+2,w
  9165     1C37  00FA               	movwf	??___fleq+2
  9166     1C38  307F               	movlw	127
  9167     1C39  0573               	andwf	___fleq@ff1+3,w
  9168     1C3A  00FB               	movwf	??___fleq+3
  9169     1C3B  087B               	movf	??___fleq+3,w
  9170     1C3C  047A               	iorwf	??___fleq+2,w
  9171     1C3D  0479               	iorwf	??___fleq+1,w
  9172     1C3E  0478               	iorwf	??___fleq,w
  9173     1C3F  1D03               	skipz
  9174     1C40  2C42               	goto	u3651
  9175     1C41  2C43               	goto	u3650
  9176     1C42                     u3651:
  9177     1C42  2C4B               	goto	l410
  9178     1C43                     u3650:
  9179     1C43                     l2526:
  9180     1C43  3000               	movlw	0
  9181     1C44  00F3               	movwf	___fleq@ff1+3
  9182     1C45  3000               	movlw	0
  9183     1C46  00F2               	movwf	___fleq@ff1+2
  9184     1C47  3000               	movlw	0
  9185     1C48  00F1               	movwf	___fleq@ff1+1
  9186     1C49  3000               	movlw	0
  9187     1C4A  00F0               	movwf	___fleq@ff1
  9188     1C4B                     l410:
  9189     1C4B  3000               	movlw	0
  9190     1C4C  0574               	andwf	___fleq@ff2,w
  9191     1C4D  00F8               	movwf	??___fleq
  9192     1C4E  3000               	movlw	0
  9193     1C4F  0575               	andwf	___fleq@ff2+1,w
  9194     1C50  00F9               	movwf	??___fleq+1
  9195     1C51  3080               	movlw	128
  9196     1C52  0576               	andwf	___fleq@ff2+2,w
  9197     1C53  00FA               	movwf	??___fleq+2
  9198     1C54  307F               	movlw	127
  9199     1C55  0577               	andwf	___fleq@ff2+3,w
  9200     1C56  00FB               	movwf	??___fleq+3
  9201     1C57  087B               	movf	??___fleq+3,w
  9202     1C58  047A               	iorwf	??___fleq+2,w
  9203     1C59  0479               	iorwf	??___fleq+1,w
  9204     1C5A  0478               	iorwf	??___fleq,w
  9205     1C5B  1D03               	skipz
  9206     1C5C  2C5E               	goto	u3661
  9207     1C5D  2C5F               	goto	u3660
  9208     1C5E                     u3661:
  9209     1C5E  2C67               	goto	l411
  9210     1C5F                     u3660:
  9211     1C5F                     l2528:
  9212     1C5F  3000               	movlw	0
  9213     1C60  00F7               	movwf	___fleq@ff2+3
  9214     1C61  3000               	movlw	0
  9215     1C62  00F6               	movwf	___fleq@ff2+2
  9216     1C63  3000               	movlw	0
  9217     1C64  00F5               	movwf	___fleq@ff2+1
  9218     1C65  3000               	movlw	0
  9219     1C66  00F4               	movwf	___fleq@ff2
  9220     1C67                     l411:
  9221     1C67  0877               	movf	___fleq@ff2+3,w
  9222     1C68  0673               	xorwf	___fleq@ff1+3,w
  9223     1C69  1D03               	skipz
  9224     1C6A  2C75               	goto	u3675
  9225     1C6B  0876               	movf	___fleq@ff2+2,w
  9226     1C6C  0672               	xorwf	___fleq@ff1+2,w
  9227     1C6D  1D03               	skipz
  9228     1C6E  2C75               	goto	u3675
  9229     1C6F  0875               	movf	___fleq@ff2+1,w
  9230     1C70  0671               	xorwf	___fleq@ff1+1,w
  9231     1C71  1D03               	skipz
  9232     1C72  2C75               	goto	u3675
  9233     1C73  0874               	movf	___fleq@ff2,w
  9234     1C74  0670               	xorwf	___fleq@ff1,w
  9235     1C75                     u3675:
  9236     1C75  1903               	skipnz
  9237     1C76  2C78               	goto	u3671
  9238     1C77  2C79               	goto	u3670
  9239     1C78                     u3671:
  9240     1C78  2C7B               	goto	l2532
  9241     1C79                     u3670:
  9242     1C79                     l2530:
  9243     1C79  1003               	clrc
  9244     1C7A  2C7C               	goto	l416
  9245     1C7B                     l2532:
  9246     1C7B  1403               	setc
  9247     1C7C                     l416:
  9248     1C7C  0008               	return
  9249     1C7D                     __end_of___fleq:
  9250                           
  9251                           	psect	text40
  9252     0898                     __ptext40:	
  9253 ;; *************** function ___fldiv *****************
  9254 ;; Defined at:
  9255 ;;		line 8 in file "C:\Program Files\Microchip\xc8\v3.00\pic\sources\c99\common\sprcdiv.c"
  9256 ;; Parameters:    Size  Location     Type
  9257 ;;  a               4    0[BANK0 ] unsigned int 
  9258 ;;  b               4    4[BANK0 ] unsigned int 
  9259 ;; Auto vars:     Size  Location     Type
  9260 ;;  grs             4   20[BANK0 ] unsigned long 
  9261 ;;  rem             4   13[BANK0 ] unsigned long 
  9262 ;;  new_exp         2   18[BANK0 ] short 
  9263 ;;  aexp            1   25[BANK0 ] unsigned char 
  9264 ;;  bexp            1   24[BANK0 ] unsigned char 
  9265 ;;  sign            1   17[BANK0 ] unsigned char 
  9266 ;; Return value:  Size  Location     Type
  9267 ;;                  4    0[BANK0 ] unsigned char 
  9268 ;; Registers used:
  9269 ;;		wreg, status,2, status,0, btemp+1
  9270 ;; Tracked objects:
  9271 ;;		On entry : 0/0
  9272 ;;		On exit  : 0/0
  9273 ;;		Unchanged: 0/0
  9274 ;; Data sizes:     COMMON   BANK0   BANK1   BANK3   BANK2
  9275 ;;      Params:         0       8       0       0       0
  9276 ;;      Locals:         0      13       0       0       0
  9277 ;;      Temps:          0       5       0       0       0
  9278 ;;      Totals:         0      26       0       0       0
  9279 ;;Total ram usage:       26 bytes
  9280 ;; Hardware stack levels used: 1
  9281 ;; This function calls:
  9282 ;;		Nothing
  9283 ;; This function is called by:
  9284 ;;		_main
  9285 ;;		_efgtoa
  9286 ;; This function uses a non-reentrant model
  9287 ;;
  9288                           
  9289     0898                     ___fldiv:	
  9290                           ;psect for function ___fldiv
  9291                           
  9292     0898                     l2654:	
  9293                           ;incstack = 0
  9294                           ; Regs used in ___fldiv: [wreg+status,2+status,0+btemp+1]
  9295                           
  9296     0898  1283               	bcf	3,5	;RP0=0, select bank0
  9297     0899  1303               	bcf	3,6	;RP1=0, select bank0
  9298     089A  0827               	movf	___fldiv@b+3,w
  9299     089B  00B1               	movwf	___fldiv@sign
  9300     089C                     l2656:
  9301     089C  3080               	movlw	128
  9302     089D  05B1               	andwf	___fldiv@sign,f
  9303     089E                     l2658:
  9304     089E  0827               	movf	___fldiv@b+3,w
  9305     089F  00A8               	movwf	??___fldiv
  9306     08A0  0728               	addwf	??___fldiv,w
  9307     08A1  00B8               	movwf	___fldiv@bexp
  9308     08A2                     l2660:
  9309     08A2  1FA6               	btfss	___fldiv@b+2,7
  9310     08A3  28A5               	goto	u3991
  9311     08A4  28A6               	goto	u3990
  9312     08A5                     u3991:
  9313     08A5  28A7               	goto	l2664
  9314     08A6                     u3990:
  9315     08A6                     l2662:
  9316     08A6  1438               	bsf	___fldiv@bexp,0
  9317     08A7                     l2664:
  9318     08A7  0838               	movf	___fldiv@bexp,w
  9319     08A8  1903               	btfsc	3,2
  9320     08A9  28AB               	goto	u4001
  9321     08AA  28AC               	goto	u4000
  9322     08AB                     u4001:
  9323     08AB  28BC               	goto	l2674
  9324     08AC                     u4000:
  9325     08AC                     l2666:
  9326     08AC  0A38               	incf	___fldiv@bexp,w
  9327     08AD  1D03               	btfss	3,2
  9328     08AE  28B0               	goto	u4011
  9329     08AF  28B1               	goto	u4010
  9330     08B0                     u4011:
  9331     08B0  28B9               	goto	l2670
  9332     08B1                     u4010:
  9333     08B1                     l2668:
  9334     08B1  3000               	movlw	0
  9335     08B2  00A7               	movwf	___fldiv@b+3
  9336     08B3  3000               	movlw	0
  9337     08B4  00A6               	movwf	___fldiv@b+2
  9338     08B5  3000               	movlw	0
  9339     08B6  00A5               	movwf	___fldiv@b+1
  9340     08B7  3000               	movlw	0
  9341     08B8  00A4               	movwf	___fldiv@b
  9342     08B9                     l2670:
  9343     08B9  17A6               	bsf	___fldiv@b+2,7
  9344     08BA                     l2672:
  9345     08BA  01A7               	clrf	___fldiv@b+3
  9346     08BB  28C4               	goto	l2676
  9347     08BC                     l2674:
  9348     08BC  3000               	movlw	0
  9349     08BD  00A7               	movwf	___fldiv@b+3
  9350     08BE  3000               	movlw	0
  9351     08BF  00A6               	movwf	___fldiv@b+2
  9352     08C0  3000               	movlw	0
  9353     08C1  00A5               	movwf	___fldiv@b+1
  9354     08C2  3000               	movlw	0
  9355     08C3  00A4               	movwf	___fldiv@b
  9356     08C4                     l2676:
  9357     08C4  0823               	movf	___fldiv@a+3,w
  9358     08C5  3980               	andlw	128
  9359     08C6  06B1               	xorwf	___fldiv@sign,f
  9360     08C7                     l2678:
  9361     08C7  0823               	movf	___fldiv@a+3,w
  9362     08C8  00A8               	movwf	??___fldiv
  9363     08C9  0728               	addwf	??___fldiv,w
  9364     08CA  00B9               	movwf	___fldiv@aexp
  9365     08CB                     l2680:
  9366     08CB  1FA2               	btfss	___fldiv@a+2,7
  9367     08CC  28CE               	goto	u4021
  9368     08CD  28CF               	goto	u4020
  9369     08CE                     u4021:
  9370     08CE  28D0               	goto	l2684
  9371     08CF                     u4020:
  9372     08CF                     l2682:
  9373     08CF  1439               	bsf	___fldiv@aexp,0
  9374     08D0                     l2684:
  9375     08D0  0839               	movf	___fldiv@aexp,w
  9376     08D1  1903               	btfsc	3,2
  9377     08D2  28D4               	goto	u4031
  9378     08D3  28D5               	goto	u4030
  9379     08D4                     u4031:
  9380     08D4  28E5               	goto	l2694
  9381     08D5                     u4030:
  9382     08D5                     l2686:
  9383     08D5  0A39               	incf	___fldiv@aexp,w
  9384     08D6  1D03               	btfss	3,2
  9385     08D7  28D9               	goto	u4041
  9386     08D8  28DA               	goto	u4040
  9387     08D9                     u4041:
  9388     08D9  28E2               	goto	l2690
  9389     08DA                     u4040:
  9390     08DA                     l2688:
  9391     08DA  3000               	movlw	0
  9392     08DB  00A3               	movwf	___fldiv@a+3
  9393     08DC  3000               	movlw	0
  9394     08DD  00A2               	movwf	___fldiv@a+2
  9395     08DE  3000               	movlw	0
  9396     08DF  00A1               	movwf	___fldiv@a+1
  9397     08E0  3000               	movlw	0
  9398     08E1  00A0               	movwf	___fldiv@a
  9399     08E2                     l2690:
  9400     08E2  17A2               	bsf	___fldiv@a+2,7
  9401     08E3                     l2692:
  9402     08E3  01A3               	clrf	___fldiv@a+3
  9403     08E4  28ED               	goto	l598
  9404     08E5                     l2694:
  9405     08E5  3000               	movlw	0
  9406     08E6  00A3               	movwf	___fldiv@a+3
  9407     08E7  3000               	movlw	0
  9408     08E8  00A2               	movwf	___fldiv@a+2
  9409     08E9  3000               	movlw	0
  9410     08EA  00A1               	movwf	___fldiv@a+1
  9411     08EB  3000               	movlw	0
  9412     08EC  00A0               	movwf	___fldiv@a
  9413     08ED                     l598:
  9414     08ED  0823               	movf	___fldiv@a+3,w
  9415     08EE  0422               	iorwf	___fldiv@a+2,w
  9416     08EF  0421               	iorwf	___fldiv@a+1,w
  9417     08F0  0420               	iorwf	___fldiv@a,w
  9418     08F1  1D03               	skipz
  9419     08F2  28F4               	goto	u4051
  9420     08F3  28F5               	goto	u4050
  9421     08F4                     u4051:
  9422     08F4  290C               	goto	l2704
  9423     08F5                     u4050:
  9424     08F5                     l2696:
  9425     08F5  3000               	movlw	0
  9426     08F6  00A7               	movwf	___fldiv@b+3
  9427     08F7  3000               	movlw	0
  9428     08F8  00A6               	movwf	___fldiv@b+2
  9429     08F9  3000               	movlw	0
  9430     08FA  00A5               	movwf	___fldiv@b+1
  9431     08FB  3000               	movlw	0
  9432     08FC  00A4               	movwf	___fldiv@b
  9433     08FD  3080               	movlw	128
  9434     08FE  04A6               	iorwf	___fldiv@b+2,f
  9435     08FF  307F               	movlw	127
  9436     0900  04A7               	iorwf	___fldiv@b+3,f
  9437     0901                     l2698:
  9438     0901  0831               	movf	___fldiv@sign,w
  9439     0902  04A7               	iorwf	___fldiv@b+3,f
  9440     0903                     l2700:
  9441     0903  0827               	movf	___fldiv@b+3,w
  9442     0904  00A3               	movwf	?___fldiv+3
  9443     0905  0826               	movf	___fldiv@b+2,w
  9444     0906  00A2               	movwf	?___fldiv+2
  9445     0907  0825               	movf	___fldiv@b+1,w
  9446     0908  00A1               	movwf	?___fldiv+1
  9447     0909  0824               	movf	___fldiv@b,w
  9448     090A  00A0               	movwf	?___fldiv
  9449     090B  2A61               	goto	l600
  9450     090C                     l2704:
  9451     090C  0838               	movf	___fldiv@bexp,w
  9452     090D  1D03               	btfss	3,2
  9453     090E  2910               	goto	u4061
  9454     090F  2911               	goto	u4060
  9455     0910                     u4061:
  9456     0910  291A               	goto	l2710
  9457     0911                     u4060:
  9458     0911                     l2706:
  9459     0911  3000               	movlw	0
  9460     0912  00A3               	movwf	?___fldiv+3
  9461     0913  3000               	movlw	0
  9462     0914  00A2               	movwf	?___fldiv+2
  9463     0915  3000               	movlw	0
  9464     0916  00A1               	movwf	?___fldiv+1
  9465     0917  3000               	movlw	0
  9466     0918  00A0               	movwf	?___fldiv
  9467     0919  2A61               	goto	l600
  9468     091A                     l2710:
  9469     091A  0838               	movf	___fldiv@bexp,w
  9470     091B  00A8               	movwf	??___fldiv
  9471     091C  01A9               	clrf	??___fldiv+1
  9472     091D  0829               	movf	??___fldiv+1,w
  9473     091E  00AB               	movwf	??___fldiv+3
  9474     091F  0839               	movf	___fldiv@aexp,w
  9475     0920  0228               	subwf	??___fldiv,w
  9476     0921  00AA               	movwf	??___fldiv+2
  9477     0922  1C03               	skipc
  9478     0923  03AB               	decf	??___fldiv+3,f
  9479     0924  082A               	movf	??___fldiv+2,w
  9480     0925  3E7F               	addlw	127
  9481     0926  00B2               	movwf	___fldiv@new_exp
  9482     0927  082B               	movf	??___fldiv+3,w
  9483     0928  1803               	skipnc
  9484     0929  3E01               	addlw	1
  9485     092A  3E00               	addlw	0
  9486     092B  00B3               	movwf	___fldiv@new_exp+1
  9487     092C                     l2712:
  9488     092C  0827               	movf	___fldiv@b+3,w
  9489     092D  00B0               	movwf	___fldiv@rem+3
  9490     092E  0826               	movf	___fldiv@b+2,w
  9491     092F  00AF               	movwf	___fldiv@rem+2
  9492     0930  0825               	movf	___fldiv@b+1,w
  9493     0931  00AE               	movwf	___fldiv@rem+1
  9494     0932  0824               	movf	___fldiv@b,w
  9495     0933  00AD               	movwf	___fldiv@rem
  9496     0934                     l2714:
  9497     0934  3000               	movlw	0
  9498     0935  00A7               	movwf	___fldiv@b+3
  9499     0936  3000               	movlw	0
  9500     0937  00A6               	movwf	___fldiv@b+2
  9501     0938  3000               	movlw	0
  9502     0939  00A5               	movwf	___fldiv@b+1
  9503     093A  3000               	movlw	0
  9504     093B  00A4               	movwf	___fldiv@b
  9505     093C                     l2716:
  9506     093C  3000               	movlw	0
  9507     093D  00B7               	movwf	___fldiv@grs+3
  9508     093E  3000               	movlw	0
  9509     093F  00B6               	movwf	___fldiv@grs+2
  9510     0940  3000               	movlw	0
  9511     0941  00B5               	movwf	___fldiv@grs+1
  9512     0942  3000               	movlw	0
  9513     0943  00B4               	movwf	___fldiv@grs
  9514     0944                     l2718:
  9515     0944  01B9               	clrf	___fldiv@aexp
  9516     0945  298E               	goto	l2738
  9517     0946                     l2720:
  9518     0946  0839               	movf	___fldiv@aexp,w
  9519     0947  1903               	btfsc	3,2
  9520     0948  294A               	goto	u4071
  9521     0949  294B               	goto	u4070
  9522     094A                     u4071:
  9523     094A  296B               	goto	l2730
  9524     094B                     u4070:
  9525     094B                     l2722:
  9526     094B  3001               	movlw	1
  9527     094C  00A8               	movwf	??___fldiv
  9528     094D                     u4085:
  9529     094D  1003               	clrc
  9530     094E  0DAD               	rlf	___fldiv@rem,f
  9531     094F  0DAE               	rlf	___fldiv@rem+1,f
  9532     0950  0DAF               	rlf	___fldiv@rem+2,f
  9533     0951  0DB0               	rlf	___fldiv@rem+3,f
  9534     0952  0BA8               	decfsz	??___fldiv,f
  9535     0953  294D               	goto	u4085
  9536     0954  3001               	movlw	1
  9537     0955  00A8               	movwf	??___fldiv
  9538     0956                     u4095:
  9539     0956  1003               	clrc
  9540     0957  0DA4               	rlf	___fldiv@b,f
  9541     0958  0DA5               	rlf	___fldiv@b+1,f
  9542     0959  0DA6               	rlf	___fldiv@b+2,f
  9543     095A  0DA7               	rlf	___fldiv@b+3,f
  9544     095B  0BA8               	decfsz	??___fldiv,f
  9545     095C  2956               	goto	u4095
  9546     095D                     l2724:
  9547     095D  1FB7               	btfss	___fldiv@grs+3,7
  9548     095E  2960               	goto	u4101
  9549     095F  2961               	goto	u4100
  9550     0960                     u4101:
  9551     0960  2962               	goto	l2728
  9552     0961                     u4100:
  9553     0961                     l2726:
  9554     0961  1424               	bsf	___fldiv@b,0
  9555     0962                     l2728:
  9556     0962  3001               	movlw	1
  9557     0963  00A8               	movwf	??___fldiv
  9558     0964                     u4115:
  9559     0964  1003               	clrc
  9560     0965  0DB4               	rlf	___fldiv@grs,f
  9561     0966  0DB5               	rlf	___fldiv@grs+1,f
  9562     0967  0DB6               	rlf	___fldiv@grs+2,f
  9563     0968  0DB7               	rlf	___fldiv@grs+3,f
  9564     0969  0BA8               	decfsz	??___fldiv,f
  9565     096A  2964               	goto	u4115
  9566     096B                     l2730:
  9567     096B  0823               	movf	___fldiv@a+3,w
  9568     096C  0230               	subwf	___fldiv@rem+3,w
  9569     096D  1D03               	skipz
  9570     096E  2979               	goto	u4125
  9571     096F  0822               	movf	___fldiv@a+2,w
  9572     0970  022F               	subwf	___fldiv@rem+2,w
  9573     0971  1D03               	skipz
  9574     0972  2979               	goto	u4125
  9575     0973  0821               	movf	___fldiv@a+1,w
  9576     0974  022E               	subwf	___fldiv@rem+1,w
  9577     0975  1D03               	skipz
  9578     0976  2979               	goto	u4125
  9579     0977  0820               	movf	___fldiv@a,w
  9580     0978  022D               	subwf	___fldiv@rem,w
  9581     0979                     u4125:
  9582     0979  1C03               	skipc
  9583     097A  297C               	goto	u4121
  9584     097B  297D               	goto	u4120
  9585     097C                     u4121:
  9586     097C  298C               	goto	l2736
  9587     097D                     u4120:
  9588     097D                     l2732:
  9589     097D  1737               	bsf	___fldiv@grs+3,6
  9590     097E                     l2734:
  9591     097E  0820               	movf	___fldiv@a,w
  9592     097F  02AD               	subwf	___fldiv@rem,f
  9593     0980  0821               	movf	___fldiv@a+1,w
  9594     0981  1C03               	skipc
  9595     0982  0F21               	incfsz	___fldiv@a+1,w
  9596     0983  02AE               	subwf	___fldiv@rem+1,f
  9597     0984  0822               	movf	___fldiv@a+2,w
  9598     0985  1C03               	skipc
  9599     0986  0F22               	incfsz	___fldiv@a+2,w
  9600     0987  02AF               	subwf	___fldiv@rem+2,f
  9601     0988  0823               	movf	___fldiv@a+3,w
  9602     0989  1C03               	skipc
  9603     098A  0F23               	incfsz	___fldiv@a+3,w
  9604     098B  02B0               	subwf	___fldiv@rem+3,f
  9605     098C                     l2736:
  9606     098C  3001               	movlw	1
  9607     098D  07B9               	addwf	___fldiv@aexp,f
  9608     098E                     l2738:
  9609     098E  301A               	movlw	26
  9610     098F  0239               	subwf	___fldiv@aexp,w
  9611     0990  1C03               	skipc
  9612     0991  2993               	goto	u4131
  9613     0992  2994               	goto	u4130
  9614     0993                     u4131:
  9615     0993  2946               	goto	l2720
  9616     0994                     u4130:
  9617     0994                     l2740:
  9618     0994  0830               	movf	___fldiv@rem+3,w
  9619     0995  042F               	iorwf	___fldiv@rem+2,w
  9620     0996  042E               	iorwf	___fldiv@rem+1,w
  9621     0997  042D               	iorwf	___fldiv@rem,w
  9622     0998  1903               	skipnz
  9623     0999  299B               	goto	u4141
  9624     099A  299C               	goto	u4140
  9625     099B                     u4141:
  9626     099B  29BB               	goto	l2754
  9627     099C                     u4140:
  9628     099C                     l2742:
  9629     099C  1434               	bsf	___fldiv@grs,0
  9630     099D  29BB               	goto	l2754
  9631     099E                     l2744:
  9632     099E  3001               	movlw	1
  9633     099F  00A8               	movwf	??___fldiv
  9634     09A0                     u4155:
  9635     09A0  1003               	clrc
  9636     09A1  0DA4               	rlf	___fldiv@b,f
  9637     09A2  0DA5               	rlf	___fldiv@b+1,f
  9638     09A3  0DA6               	rlf	___fldiv@b+2,f
  9639     09A4  0DA7               	rlf	___fldiv@b+3,f
  9640     09A5  0BA8               	decfsz	??___fldiv,f
  9641     09A6  29A0               	goto	u4155
  9642     09A7                     l2746:
  9643     09A7  1FB7               	btfss	___fldiv@grs+3,7
  9644     09A8  29AA               	goto	u4161
  9645     09A9  29AB               	goto	u4160
  9646     09AA                     u4161:
  9647     09AA  29AC               	goto	l2750
  9648     09AB                     u4160:
  9649     09AB                     l2748:
  9650     09AB  1424               	bsf	___fldiv@b,0
  9651     09AC                     l2750:
  9652     09AC  3001               	movlw	1
  9653     09AD  00A8               	movwf	??___fldiv
  9654     09AE                     u4175:
  9655     09AE  1003               	clrc
  9656     09AF  0DB4               	rlf	___fldiv@grs,f
  9657     09B0  0DB5               	rlf	___fldiv@grs+1,f
  9658     09B1  0DB6               	rlf	___fldiv@grs+2,f
  9659     09B2  0DB7               	rlf	___fldiv@grs+3,f
  9660     09B3  0BA8               	decfsz	??___fldiv,f
  9661     09B4  29AE               	goto	u4175
  9662     09B5                     l2752:
  9663     09B5  30FF               	movlw	255
  9664     09B6  07B2               	addwf	___fldiv@new_exp,f
  9665     09B7  1803               	skipnc
  9666     09B8  0AB3               	incf	___fldiv@new_exp+1,f
  9667     09B9  30FF               	movlw	255
  9668     09BA  07B3               	addwf	___fldiv@new_exp+1,f
  9669     09BB                     l2754:
  9670     09BB  1FA6               	btfss	___fldiv@b+2,7
  9671     09BC  29BE               	goto	u4181
  9672     09BD  29BF               	goto	u4180
  9673     09BE                     u4181:
  9674     09BE  299E               	goto	l2744
  9675     09BF                     u4180:
  9676     09BF                     l2756:
  9677     09BF  01B9               	clrf	___fldiv@aexp
  9678     09C0                     l2758:
  9679     09C0  1FB7               	btfss	___fldiv@grs+3,7
  9680     09C1  29C3               	goto	u4191
  9681     09C2  29C4               	goto	u4190
  9682     09C3                     u4191:
  9683     09C3  29E0               	goto	l2766
  9684     09C4                     u4190:
  9685     09C4                     l2760:
  9686     09C4  30FF               	movlw	255
  9687     09C5  0534               	andwf	___fldiv@grs,w
  9688     09C6  00A8               	movwf	??___fldiv
  9689     09C7  30FF               	movlw	255
  9690     09C8  0535               	andwf	___fldiv@grs+1,w
  9691     09C9  00A9               	movwf	??___fldiv+1
  9692     09CA  30FF               	movlw	255
  9693     09CB  0536               	andwf	___fldiv@grs+2,w
  9694     09CC  00AA               	movwf	??___fldiv+2
  9695     09CD  307F               	movlw	127
  9696     09CE  0537               	andwf	___fldiv@grs+3,w
  9697     09CF  00AB               	movwf	??___fldiv+3
  9698     09D0  082B               	movf	??___fldiv+3,w
  9699     09D1  042A               	iorwf	??___fldiv+2,w
  9700     09D2  0429               	iorwf	??___fldiv+1,w
  9701     09D3  0428               	iorwf	??___fldiv,w
  9702     09D4  1903               	skipnz
  9703     09D5  29D7               	goto	u4201
  9704     09D6  29D8               	goto	u4200
  9705     09D7                     u4201:
  9706     09D7  29DB               	goto	l614
  9707     09D8                     u4200:
  9708     09D8                     l2762:
  9709     09D8  3001               	movlw	1
  9710     09D9  00B9               	movwf	___fldiv@aexp
  9711     09DA  29E0               	goto	l2766
  9712     09DB                     l614:
  9713     09DB  1C24               	btfss	___fldiv@b,0
  9714     09DC  29DE               	goto	u4211
  9715     09DD  29DF               	goto	u4210
  9716     09DE                     u4211:
  9717     09DE  29E0               	goto	l2766
  9718     09DF                     u4210:
  9719     09DF  29D8               	goto	l2762
  9720     09E0                     l2766:
  9721     09E0  0839               	movf	___fldiv@aexp,w
  9722     09E1  1903               	btfsc	3,2
  9723     09E2  29E4               	goto	u4221
  9724     09E3  29E5               	goto	u4220
  9725     09E4                     u4221:
  9726     09E4  2A16               	goto	l2776
  9727     09E5                     u4220:
  9728     09E5                     l2768:
  9729     09E5  3001               	movlw	1
  9730     09E6  07A4               	addwf	___fldiv@b,f
  9731     09E7  3000               	movlw	0
  9732     09E8  1803               	skipnc
  9733     09E9  3001               	movlw	1
  9734     09EA  07A5               	addwf	___fldiv@b+1,f
  9735     09EB  3000               	movlw	0
  9736     09EC  1803               	skipnc
  9737     09ED  3001               	movlw	1
  9738     09EE  07A6               	addwf	___fldiv@b+2,f
  9739     09EF  3000               	movlw	0
  9740     09F0  1803               	skipnc
  9741     09F1  3001               	movlw	1
  9742     09F2  07A7               	addwf	___fldiv@b+3,f
  9743     09F3                     l2770:
  9744     09F3  1C27               	btfss	___fldiv@b+3,0
  9745     09F4  29F6               	goto	u4231
  9746     09F5  29F7               	goto	u4230
  9747     09F6                     u4231:
  9748     09F6  2A16               	goto	l2776
  9749     09F7                     u4230:
  9750     09F7                     l2772:
  9751     09F7  0824               	movf	___fldiv@b,w
  9752     09F8  00A8               	movwf	??___fldiv
  9753     09F9  0825               	movf	___fldiv@b+1,w
  9754     09FA  00A9               	movwf	??___fldiv+1
  9755     09FB  0826               	movf	___fldiv@b+2,w
  9756     09FC  00AA               	movwf	??___fldiv+2
  9757     09FD  0827               	movf	___fldiv@b+3,w
  9758     09FE  00AB               	movwf	??___fldiv+3
  9759     09FF  3001               	movlw	1
  9760     0A00  00AC               	movwf	??___fldiv+4
  9761     0A01                     u4245:
  9762     0A01  0D2B               	rlf	??___fldiv+3,w
  9763     0A02  0CAB               	rrf	??___fldiv+3,f
  9764     0A03  0CAA               	rrf	??___fldiv+2,f
  9765     0A04  0CA9               	rrf	??___fldiv+1,f
  9766     0A05  0CA8               	rrf	??___fldiv,f
  9767     0A06                     u4240:
  9768     0A06  0BAC               	decfsz	??___fldiv+4,f
  9769     0A07  2A01               	goto	u4245
  9770     0A08  082B               	movf	??___fldiv+3,w
  9771     0A09  00A7               	movwf	___fldiv@b+3
  9772     0A0A  082A               	movf	??___fldiv+2,w
  9773     0A0B  00A6               	movwf	___fldiv@b+2
  9774     0A0C  0829               	movf	??___fldiv+1,w
  9775     0A0D  00A5               	movwf	___fldiv@b+1
  9776     0A0E  0828               	movf	??___fldiv,w
  9777     0A0F  00A4               	movwf	___fldiv@b
  9778     0A10                     l2774:
  9779     0A10  3001               	movlw	1
  9780     0A11  07B2               	addwf	___fldiv@new_exp,f
  9781     0A12  1803               	skipnc
  9782     0A13  0AB3               	incf	___fldiv@new_exp+1,f
  9783     0A14  3000               	movlw	0
  9784     0A15  07B3               	addwf	___fldiv@new_exp+1,f
  9785     0A16                     l2776:
  9786     0A16  0833               	movf	___fldiv@new_exp+1,w
  9787     0A17  3A80               	xorlw	128
  9788     0A18  00FF               	movwf	btemp+1
  9789     0A19  3080               	movlw	128
  9790     0A1A  027F               	subwf	btemp+1,w
  9791     0A1B  1D03               	skipz
  9792     0A1C  2A1F               	goto	u4255
  9793     0A1D  30FF               	movlw	255
  9794     0A1E  0232               	subwf	___fldiv@new_exp,w
  9795     0A1F                     u4255:
  9796     0A1F  1C03               	skipc
  9797     0A20  2A22               	goto	u4251
  9798     0A21  2A23               	goto	u4250
  9799     0A22                     u4251:
  9800     0A22  2A31               	goto	l2780
  9801     0A23                     u4250:
  9802     0A23                     l2778:
  9803     0A23  30FF               	movlw	255
  9804     0A24  1283               	bcf	3,5	;RP0=0, select bank0
  9805     0A25  1303               	bcf	3,6	;RP1=0, select bank0
  9806     0A26  00B2               	movwf	___fldiv@new_exp
  9807     0A27  3000               	movlw	0
  9808     0A28  00B3               	movwf	___fldiv@new_exp+1
  9809     0A29  3000               	movlw	0
  9810     0A2A  00A7               	movwf	___fldiv@b+3
  9811     0A2B  3000               	movlw	0
  9812     0A2C  00A6               	movwf	___fldiv@b+2
  9813     0A2D  3000               	movlw	0
  9814     0A2E  00A5               	movwf	___fldiv@b+1
  9815     0A2F  3000               	movlw	0
  9816     0A30  00A4               	movwf	___fldiv@b
  9817     0A31                     l2780:
  9818     0A31  1283               	bcf	3,5	;RP0=0, select bank0
  9819     0A32  1303               	bcf	3,6	;RP1=0, select bank0
  9820     0A33  0833               	movf	___fldiv@new_exp+1,w
  9821     0A34  3A80               	xorlw	128
  9822     0A35  00FF               	movwf	btemp+1
  9823     0A36  3080               	movlw	128
  9824     0A37  027F               	subwf	btemp+1,w
  9825     0A38  1D03               	skipz
  9826     0A39  2A3C               	goto	u4265
  9827     0A3A  3001               	movlw	1
  9828     0A3B  0232               	subwf	___fldiv@new_exp,w
  9829     0A3C                     u4265:
  9830     0A3C  1803               	skipnc
  9831     0A3D  2A3F               	goto	u4261
  9832     0A3E  2A40               	goto	u4260
  9833     0A3F                     u4261:
  9834     0A3F  2A4D               	goto	l620
  9835     0A40                     u4260:
  9836     0A40                     l2782:
  9837     0A40  1283               	bcf	3,5	;RP0=0, select bank0
  9838     0A41  1303               	bcf	3,6	;RP1=0, select bank0
  9839     0A42  01B2               	clrf	___fldiv@new_exp
  9840     0A43  01B3               	clrf	___fldiv@new_exp+1
  9841     0A44                     l2784:
  9842     0A44  3000               	movlw	0
  9843     0A45  00A7               	movwf	___fldiv@b+3
  9844     0A46  3000               	movlw	0
  9845     0A47  00A6               	movwf	___fldiv@b+2
  9846     0A48  3000               	movlw	0
  9847     0A49  00A5               	movwf	___fldiv@b+1
  9848     0A4A  3000               	movlw	0
  9849     0A4B  00A4               	movwf	___fldiv@b
  9850     0A4C                     l2786:
  9851     0A4C  01B1               	clrf	___fldiv@sign
  9852     0A4D                     l620:
  9853     0A4D  1283               	bcf	3,5	;RP0=0, select bank0
  9854     0A4E  1303               	bcf	3,6	;RP1=0, select bank0
  9855     0A4F  0832               	movf	___fldiv@new_exp,w
  9856     0A50  00B8               	movwf	___fldiv@bexp
  9857     0A51                     l2788:
  9858     0A51  1C38               	btfss	___fldiv@bexp,0
  9859     0A52  2A54               	goto	u4271
  9860     0A53  2A55               	goto	u4270
  9861     0A54                     u4271:
  9862     0A54  2A57               	goto	l2792
  9863     0A55                     u4270:
  9864     0A55                     l2790:
  9865     0A55  17A6               	bsf	___fldiv@b+2,7
  9866     0A56  2A59               	goto	l622
  9867     0A57                     l2792:
  9868     0A57  307F               	movlw	127
  9869     0A58  05A6               	andwf	___fldiv@b+2,f
  9870     0A59                     l622:
  9871     0A59  0838               	movf	___fldiv@bexp,w
  9872     0A5A  00A8               	movwf	??___fldiv
  9873     0A5B  1003               	clrc
  9874     0A5C  0C28               	rrf	??___fldiv,w
  9875     0A5D  00A7               	movwf	___fldiv@b+3
  9876     0A5E  0831               	movf	___fldiv@sign,w
  9877     0A5F  04A7               	iorwf	___fldiv@b+3,f
  9878     0A60  2903               	goto	l2700
  9879     0A61                     l600:
  9880     0A61  0008               	return
  9881     0A62                     __end_of___fldiv:
  9882                           
  9883                           	psect	text41
  9884     1A76                     __ptext41:	
  9885 ;; *************** function _UART_WriteString *****************
  9886 ;; Defined at:
  9887 ;;		line 113 in file "PROY3FINAL.c"
  9888 ;; Parameters:    Size  Location     Type
  9889 ;;  s               2    1[COMMON] PTR const unsigned char 
  9890 ;;		 -> STR_16(14), STR_15(3), STR_14(9), STR_13(18), 
  9891 ;;		 -> STR_12(21), STR_11(3), STR_10(12), ESP_SendToThingSpeak@num(10), 
  9892 ;;		 -> STR_3(44), STR_2(29), STR_1(14), 
  9893 ;; Auto vars:     Size  Location     Type
  9894 ;;		None
  9895 ;; Return value:  Size  Location     Type
  9896 ;;                  1    wreg      void 
  9897 ;; Registers used:
  9898 ;;		wreg, fsr0l, fsr0h, status,2, status,0, btemp+1, pclath, cstack
  9899 ;; Tracked objects:
  9900 ;;		On entry : 0/0
  9901 ;;		On exit  : 0/0
  9902 ;;		Unchanged: 0/0
  9903 ;; Data sizes:     COMMON   BANK0   BANK1   BANK3   BANK2
  9904 ;;      Params:         2       0       0       0       0
  9905 ;;      Locals:         0       0       0       0       0
  9906 ;;      Temps:          0       0       0       0       0
  9907 ;;      Totals:         2       0       0       0       0
  9908 ;;Total ram usage:        2 bytes
  9909 ;; Hardware stack levels used: 1
  9910 ;; Hardware stack levels required when called: 1
  9911 ;; This function calls:
  9912 ;;		_UART_WriteChar
  9913 ;; This function is called by:
  9914 ;;		_ESP_SendToThingSpeak
  9915 ;; This function uses a non-reentrant model
  9916 ;;
  9917                           
  9918     1A76                     _UART_WriteString:	
  9919                           ;psect for function _UART_WriteString
  9920                           
  9921     1A76                     l3408:	
  9922                           ;incstack = 0
  9923                           ; Regs used in _UART_WriteString: [wreg-fsr0h+status,2+status,0+btemp+1+pclath+cstack]
  9924                           
  9925     1A76  2A8B               	goto	l3414
  9926     1A77                     l3410:
  9927     1A77  0872               	movf	UART_WriteString@s+1,w
  9928     1A78  00FF               	movwf	btemp+1
  9929     1A79  0871               	movf	UART_WriteString@s,w
  9930     1A7A  0084               	movwf	4
  9931     1A7B  160A  118A  2000  160A  158A  	fcall	stringtab
  9932     1A80  160A  158A  2153  160A  158A  	fcall	_UART_WriteChar
  9933     1A85                     l3412:
  9934     1A85  3001               	movlw	1
  9935     1A86  07F1               	addwf	UART_WriteString@s,f
  9936     1A87  1803               	skipnc
  9937     1A88  0AF2               	incf	UART_WriteString@s+1,f
  9938     1A89  3000               	movlw	0
  9939     1A8A  07F2               	addwf	UART_WriteString@s+1,f
  9940     1A8B                     l3414:
  9941     1A8B  0872               	movf	UART_WriteString@s+1,w
  9942     1A8C  1283               	bcf	3,5	;RP0=0, select bank0
  9943     1A8D  1303               	bcf	3,6	;RP1=0, select bank0
  9944     1A8E  00FF               	movwf	btemp+1
  9945     1A8F  0871               	movf	UART_WriteString@s,w
  9946     1A90  0084               	movwf	4
  9947     1A91  160A  118A  2000  160A  158A  	fcall	stringtab
  9948     1A96  3A00               	xorlw	0
  9949     1A97  1D03               	skipz
  9950     1A98  2A9A               	goto	u5831
  9951     1A99  2A9B               	goto	u5830
  9952     1A9A                     u5831:
  9953     1A9A  2A77               	goto	l3410
  9954     1A9B                     u5830:
  9955     1A9B                     l128:
  9956     1A9B  0008               	return
  9957     1A9C                     __end_of_UART_WriteString:
  9958                           
  9959                           	psect	text42
  9960     1953                     __ptext42:	
  9961 ;; *************** function _UART_WriteChar *****************
  9962 ;; Defined at:
  9963 ;;		line 112 in file "PROY3FINAL.c"
  9964 ;; Parameters:    Size  Location     Type
  9965 ;;  c               1    wreg     unsigned char 
  9966 ;; Auto vars:     Size  Location     Type
  9967 ;;  c               1    0[COMMON] unsigned char 
  9968 ;; Return value:  Size  Location     Type
  9969 ;;                  1    wreg      void 
  9970 ;; Registers used:
  9971 ;;		wreg
  9972 ;; Tracked objects:
  9973 ;;		On entry : 0/0
  9974 ;;		On exit  : 0/0
  9975 ;;		Unchanged: 0/0
  9976 ;; Data sizes:     COMMON   BANK0   BANK1   BANK3   BANK2
  9977 ;;      Params:         0       0       0       0       0
  9978 ;;      Locals:         1       0       0       0       0
  9979 ;;      Temps:          0       0       0       0       0
  9980 ;;      Totals:         1       0       0       0       0
  9981 ;;Total ram usage:        1 bytes
  9982 ;; Hardware stack levels used: 1
  9983 ;; This function calls:
  9984 ;;		Nothing
  9985 ;; This function is called by:
  9986 ;;		_UART_WriteString
  9987 ;; This function uses a non-reentrant model
  9988 ;;
  9989                           
  9990     1953                     _UART_WriteChar:	
  9991                           ;psect for function _UART_WriteChar
  9992                           
  9993                           
  9994                           ;incstack = 0
  9995                           ; Regs used in _UART_WriteChar: [wreg]
  9996                           ;UART_WriteChar@c stored from wreg
  9997     1953  00F0               	movwf	UART_WriteChar@c
  9998     1954                     l3360:
  9999     1954                     l119:
 10000     1954  1283               	bcf	3,5	;RP0=0, select bank0
 10001     1955  1303               	bcf	3,6	;RP1=0, select bank0
 10002     1956  1E0C               	btfss	12,4	;volatile
 10003     1957  2959               	goto	u5351
 10004     1958  295A               	goto	u5350
 10005     1959                     u5351:
 10006     1959  2954               	goto	l119
 10007     195A                     u5350:
 10008     195A                     l3362:
 10009     195A  0870               	movf	UART_WriteChar@c,w
 10010     195B  0099               	movwf	25	;volatile
 10011     195C                     l122:
 10012     195C  0008               	return
 10013     195D                     __end_of_UART_WriteChar:
 10014     0002                     ___latbits      equ	2
 10015     007E                     btemp           set	126	;btemp
 10016     007E                     wtemp0          set	126
 10017                           
 10018                           	psect	config
 10019                           
 10020                           ;Config register CONFIG1 @ 0x2007
 10021                           ;	Oscillator Selection bits
 10022                           ;	FOSC = INTRC_NOCLKOUT, INTOSCIO oscillator: I/O function on RA6/OSC2/CLKOUT pin, I/O f
      +                          unction on RA7/OSC1/CLKIN
 10023                           ;	Watchdog Timer Enable bit
 10024                           ;	WDTE = OFF, WDT disabled and can be enabled by SWDTEN bit of the WDTCON register
 10025                           ;	Power-up Timer Enable bit
 10026                           ;	PWRTE = OFF, PWRT disabled
 10027                           ;	RE3/MCLR pin function select bit
 10028                           ;	MCLRE = OFF, RE3/MCLR pin function is digital input, MCLR internally tied to VDD
 10029                           ;	Code Protection bit
 10030                           ;	CP = OFF, Program memory code protection is disabled
 10031                           ;	Data Code Protection bit
 10032                           ;	CPD = OFF, Data memory code protection is disabled
 10033                           ;	Brown Out Reset Selection bits
 10034                           ;	BOREN = OFF, BOR disabled
 10035                           ;	Internal External Switchover bit
 10036                           ;	IESO = OFF, Internal/External Switchover mode is disabled
 10037                           ;	Fail-Safe Clock Monitor Enabled bit
 10038                           ;	FCMEN = OFF, Fail-Safe Clock Monitor is disabled
 10039                           ;	Low Voltage Programming Enable bit
 10040                           ;	LVP = OFF, RB3 pin has digital I/O, HV on MCLR must be used for programming
 10041                           ;	In-Circuit Debugger Mode bit
 10042                           ;	DEBUG = 0x1, unprogrammed default
 10043     2007                     	org	8199
 10044     2007  20D4               	dw	8404
 10045                           
 10046                           ;Config register CONFIG2 @ 0x2008
 10047                           ;	Brown-out Reset Selection bit
 10048                           ;	BOR4V = BOR40V, Brown-out Reset set to 4.0V
 10049                           ;	Flash Program Memory Self Write Enable bits
 10050                           ;	WRT = OFF, Write protection off
 10051     2008                     	org	8200
 10052     2008  3FFF               	dw	16383
 10053                           
 10054                           	psect	text22_split_1
 10055     0041                     l3076:
 10056                           
 10057                           ;C:\Program Files\Microchip\xc8\v3.00\pic\sources\c99\common\doprnt.c: 657:     u.f = 1.
      +                          0;
 10058     0041  303F               	movlw	63
 10059     0042  1683               	bsf	3,5	;RP0=1, select bank1
 10060     0043  1303               	bcf	3,6	;RP1=0, select bank1
 10061     0044  00CB               	movwf	(efgtoa@u+3)^(0+128)
 10062     0045  3080               	movlw	128
 10063     0046  00CA               	movwf	(efgtoa@u+2)^(0+128)
 10064     0047  3000               	movlw	0
 10065     0048  00C9               	movwf	(efgtoa@u+1)^(0+128)
 10066     0049  3000               	movlw	0
 10067     004A  00C8               	movwf	efgtoa@u^(0+128)
 10068     004B                     l3078:
 10069                           
 10070                           ;C:\Program Files\Microchip\xc8\v3.00\pic\sources\c99\common\doprnt.c: 658:     e = 0;
 10071     004B  01AF               	clrf	efgtoa@e^(0+128)
 10072     004C  01B0               	clrf	(efgtoa@e+1)^(0+128)
 10073     004D                     l3080:
 10074                           
 10075                           ;C:\Program Files\Microchip\xc8\v3.00\pic\sources\c99\common\doprnt.c: 659:  if (!(g.f =
      +                          = 0.0)) {
 10076     004D  0847               	movf	(efgtoa@g+3)^(0+128),w
 10077     004E  00F3               	movwf	___fleq@ff1+3
 10078     004F  0846               	movf	(efgtoa@g+2)^(0+128),w
 10079     0050  00F2               	movwf	___fleq@ff1+2
 10080     0051  0845               	movf	(efgtoa@g+1)^(0+128),w
 10081     0052  00F1               	movwf	___fleq@ff1+1
 10082     0053  0844               	movf	efgtoa@g^(0+128),w
 10083     0054  00F0               	movwf	___fleq@ff1
 10084     0055  3000               	movlw	0
 10085     0056  00F7               	movwf	___fleq@ff2+3
 10086     0057  3000               	movlw	0
 10087     0058  00F6               	movwf	___fleq@ff2+2
 10088     0059  3000               	movlw	0
 10089     005A  00F5               	movwf	___fleq@ff2+1
 10090     005B  3000               	movlw	0
 10091     005C  00F4               	movwf	___fleq@ff2
 10092     005D  160A  158A  242F  120A  118A  	fcall	___fleq
 10093     0062  1803               	btfsc	3,0
 10094     0063  2865               	goto	u4971
 10095     0064  2866               	goto	u4970
 10096     0065                     u4971:
 10097     0065  2A95               	goto	l3106
 10098     0066                     u4970:
 10099     0066  2877               	goto	l3086
 10100     0067                     l3084:
 10101                           
 10102                           ;C:\Program Files\Microchip\xc8\v3.00\pic\sources\c99\common\doprnt.c: 661:    u = ou;
 10103     0067  1683               	bsf	3,5	;RP0=1, select bank1
 10104     0068  1303               	bcf	3,6	;RP1=0, select bank1
 10105     0069  0836               	movf	(efgtoa@ou+3)^(0+128),w
 10106     006A  00CB               	movwf	(efgtoa@u+3)^(0+128)
 10107     006B  0835               	movf	(efgtoa@ou+2)^(0+128),w
 10108     006C  00CA               	movwf	(efgtoa@u+2)^(0+128)
 10109     006D  0834               	movf	(efgtoa@ou+1)^(0+128),w
 10110     006E  00C9               	movwf	(efgtoa@u+1)^(0+128)
 10111     006F  0833               	movf	efgtoa@ou^(0+128),w
 10112     0070  00C8               	movwf	efgtoa@u^(0+128)
 10113                           
 10114                           ;C:\Program Files\Microchip\xc8\v3.00\pic\sources\c99\common\doprnt.c: 662:    ++e;
 10115     0071  3001               	movlw	1
 10116     0072  07AF               	addwf	efgtoa@e^(0+128),f
 10117     0073  1803               	skipnc
 10118     0074  0AB0               	incf	(efgtoa@e+1)^(0+128),f
 10119     0075  3000               	movlw	0
 10120     0076  07B0               	addwf	(efgtoa@e+1)^(0+128),f
 10121     0077                     l3086:
 10122                           
 10123                           ;C:\Program Files\Microchip\xc8\v3.00\pic\sources\c99\common\doprnt.c: 660:   while ((la
      +                          bs((g).u-((ou.f = u.f*10.0,ou)).u) <= 1) || g.f > ou.f) {
 10124     0077  3041               	movlw	65
 10125     0078  1283               	bcf	3,5	;RP0=0, select bank0
 10126     0079  1303               	bcf	3,6	;RP1=0, select bank0
 10127     007A  00A3               	movwf	___flmul@b+3
 10128     007B  3020               	movlw	32
 10129     007C  00A2               	movwf	___flmul@b+2
 10130     007D  3000               	movlw	0
 10131     007E  00A1               	movwf	___flmul@b+1
 10132     007F  3000               	movlw	0
 10133     0080  00A0               	movwf	___flmul@b
 10134     0081  1683               	bsf	3,5	;RP0=1, select bank1
 10135     0082  1303               	bcf	3,6	;RP1=0, select bank1
 10136     0083  084B               	movf	(efgtoa@u+3)^(0+128),w
 10137     0084  1283               	bcf	3,5	;RP0=0, select bank0
 10138     0085  1303               	bcf	3,6	;RP1=0, select bank0
 10139     0086  00A7               	movwf	___flmul@a+3
 10140     0087  1683               	bsf	3,5	;RP0=1, select bank1
 10141     0088  1303               	bcf	3,6	;RP1=0, select bank1
 10142     0089  084A               	movf	(efgtoa@u+2)^(0+128),w
 10143     008A  1283               	bcf	3,5	;RP0=0, select bank0
 10144     008B  1303               	bcf	3,6	;RP1=0, select bank0
 10145     008C  00A6               	movwf	___flmul@a+2
 10146     008D  1683               	bsf	3,5	;RP0=1, select bank1
 10147     008E  1303               	bcf	3,6	;RP1=0, select bank1
 10148     008F  0849               	movf	(efgtoa@u+1)^(0+128),w
 10149     0090  1283               	bcf	3,5	;RP0=0, select bank0
 10150     0091  1303               	bcf	3,6	;RP1=0, select bank0
 10151     0092  00A5               	movwf	___flmul@a+1
 10152     0093  1683               	bsf	3,5	;RP0=1, select bank1
 10153     0094  1303               	bcf	3,6	;RP1=0, select bank1
 10154     0095  0848               	movf	efgtoa@u^(0+128),w
 10155     0096  1283               	bcf	3,5	;RP0=0, select bank0
 10156     0097  1303               	bcf	3,6	;RP1=0, select bank0
 10157     0098  00A4               	movwf	___flmul@a
 10158     0099  120A  158A  24BE  120A  118A  	fcall	___flmul
 10159     009E  1283               	bcf	3,5	;RP0=0, select bank0
 10160     009F  1303               	bcf	3,6	;RP1=0, select bank0
 10161     00A0  0823               	movf	?___flmul+3,w
 10162     00A1  1683               	bsf	3,5	;RP0=1, select bank1
 10163     00A2  1303               	bcf	3,6	;RP1=0, select bank1
 10164     00A3  00B6               	movwf	(efgtoa@ou+3)^(0+128)
 10165     00A4  1283               	bcf	3,5	;RP0=0, select bank0
 10166     00A5  1303               	bcf	3,6	;RP1=0, select bank0
 10167     00A6  0822               	movf	?___flmul+2,w
 10168     00A7  1683               	bsf	3,5	;RP0=1, select bank1
 10169     00A8  1303               	bcf	3,6	;RP1=0, select bank1
 10170     00A9  00B5               	movwf	(efgtoa@ou+2)^(0+128)
 10171     00AA  1283               	bcf	3,5	;RP0=0, select bank0
 10172     00AB  1303               	bcf	3,6	;RP1=0, select bank0
 10173     00AC  0821               	movf	?___flmul+1,w
 10174     00AD  1683               	bsf	3,5	;RP0=1, select bank1
 10175     00AE  1303               	bcf	3,6	;RP1=0, select bank1
 10176     00AF  00B4               	movwf	(efgtoa@ou+1)^(0+128)
 10177     00B0  1283               	bcf	3,5	;RP0=0, select bank0
 10178     00B1  1303               	bcf	3,6	;RP1=0, select bank0
 10179     00B2  0820               	movf	?___flmul,w
 10180     00B3  1683               	bsf	3,5	;RP0=1, select bank1
 10181     00B4  1303               	bcf	3,6	;RP1=0, select bank1
 10182     00B5  00B3               	movwf	efgtoa@ou^(0+128)
 10183     00B6                     l3088:
 10184     00B6  0844               	movf	efgtoa@g^(0+128),w
 10185     00B7  1283               	bcf	3,5	;RP0=0, select bank0
 10186     00B8  1303               	bcf	3,6	;RP1=0, select bank0
 10187     00B9  00D5               	movwf	??_efgtoa
 10188     00BA  1683               	bsf	3,5	;RP0=1, select bank1
 10189     00BB  1303               	bcf	3,6	;RP1=0, select bank1
 10190     00BC  0845               	movf	(efgtoa@g+1)^(0+128),w
 10191     00BD  1283               	bcf	3,5	;RP0=0, select bank0
 10192     00BE  1303               	bcf	3,6	;RP1=0, select bank0
 10193     00BF  00D6               	movwf	??_efgtoa+1
 10194     00C0  1683               	bsf	3,5	;RP0=1, select bank1
 10195     00C1  1303               	bcf	3,6	;RP1=0, select bank1
 10196     00C2  0846               	movf	(efgtoa@g+2)^(0+128),w
 10197     00C3  1283               	bcf	3,5	;RP0=0, select bank0
 10198     00C4  1303               	bcf	3,6	;RP1=0, select bank0
 10199     00C5  00D7               	movwf	??_efgtoa+2
 10200     00C6  1683               	bsf	3,5	;RP0=1, select bank1
 10201     00C7  1303               	bcf	3,6	;RP1=0, select bank1
 10202     00C8  0847               	movf	(efgtoa@g+3)^(0+128),w
 10203     00C9  1283               	bcf	3,5	;RP0=0, select bank0
 10204     00CA  1303               	bcf	3,6	;RP1=0, select bank0
 10205     00CB  00D8               	movwf	??_efgtoa+3
 10206     00CC  1683               	bsf	3,5	;RP0=1, select bank1
 10207     00CD  1303               	bcf	3,6	;RP1=0, select bank1
 10208     00CE  0833               	movf	efgtoa@ou^(0+128),w
 10209     00CF  1283               	bcf	3,5	;RP0=0, select bank0
 10210     00D0  1303               	bcf	3,6	;RP1=0, select bank0
 10211     00D1  02D5               	subwf	??_efgtoa,f
 10212     00D2  1683               	bsf	3,5	;RP0=1, select bank1
 10213     00D3  1303               	bcf	3,6	;RP1=0, select bank1
 10214     00D4  0834               	movf	(efgtoa@ou+1)^(0+128),w
 10215     00D5  1C03               	skipc
 10216     00D6  0F34               	incfsz	(efgtoa@ou+1)^(0+128),w
 10217     00D7  28D9               	goto	u4981
 10218     00D8  28DC               	goto	u4982
 10219     00D9                     u4981:
 10220     00D9  1283               	bcf	3,5	;RP0=0, select bank0
 10221     00DA  1303               	bcf	3,6	;RP1=0, select bank0
 10222     00DB  02D6               	subwf	??_efgtoa+1,f
 10223     00DC                     u4982:
 10224     00DC  1683               	bsf	3,5	;RP0=1, select bank1
 10225     00DD  1303               	bcf	3,6	;RP1=0, select bank1
 10226     00DE  0835               	movf	(efgtoa@ou+2)^(0+128),w
 10227     00DF  1C03               	skipc
 10228     00E0  0F35               	incfsz	(efgtoa@ou+2)^(0+128),w
 10229     00E1  28E3               	goto	u4983
 10230     00E2  28E6               	goto	u4984
 10231     00E3                     u4983:
 10232     00E3  1283               	bcf	3,5	;RP0=0, select bank0
 10233     00E4  1303               	bcf	3,6	;RP1=0, select bank0
 10234     00E5  02D7               	subwf	??_efgtoa+2,f
 10235     00E6                     u4984:
 10236     00E6  1683               	bsf	3,5	;RP0=1, select bank1
 10237     00E7  1303               	bcf	3,6	;RP1=0, select bank1
 10238     00E8  0836               	movf	(efgtoa@ou+3)^(0+128),w
 10239     00E9  1C03               	skipc
 10240     00EA  0F36               	incfsz	(efgtoa@ou+3)^(0+128),w
 10241     00EB  28ED               	goto	u4985
 10242     00EC  28F0               	goto	u4986
 10243     00ED                     u4985:
 10244     00ED  1283               	bcf	3,5	;RP0=0, select bank0
 10245     00EE  1303               	bcf	3,6	;RP1=0, select bank0
 10246     00EF  02D8               	subwf	??_efgtoa+3,f
 10247     00F0                     u4986:
 10248     00F0  1683               	bsf	3,5	;RP0=1, select bank1
 10249     00F1  1303               	bcf	3,6	;RP1=0, select bank1
 10250     00F2  1283               	bcf	3,5	;RP0=0, select bank0
 10251     00F3  1303               	bcf	3,6	;RP1=0, select bank0
 10252     00F4  0858               	movf	??_efgtoa+3,w
 10253     00F5  00F3               	movwf	labs@a+3
 10254     00F6  0857               	movf	??_efgtoa+2,w
 10255     00F7  00F2               	movwf	labs@a+2
 10256     00F8  0856               	movf	??_efgtoa+1,w
 10257     00F9  00F1               	movwf	labs@a+1
 10258     00FA  0855               	movf	??_efgtoa,w
 10259     00FB  00F0               	movwf	labs@a
 10260     00FC  160A  118A  20DC  120A  118A  	fcall	_labs
 10261     0101  1BF3               	btfsc	?_labs+3,7
 10262     0102  2913               	goto	u4991
 10263     0103  0873               	movf	?_labs+3,w
 10264     0104  1D03               	btfss	3,2
 10265     0105  2914               	goto	u4990
 10266     0106  0872               	movf	?_labs+2,w
 10267     0107  1D03               	btfss	3,2
 10268     0108  2914               	goto	u4990
 10269     0109  0871               	movf	?_labs+1,w
 10270     010A  1D03               	btfss	3,2
 10271     010B  2914               	goto	u4990
 10272     010C  3002               	movlw	2
 10273     010D  0270               	subwf	?_labs,w
 10274     010E  1D03               	skipz
 10275     010F  2910               	goto	u4993
 10276     0110                     u4993:
 10277     0110  1C03               	btfss	3,0
 10278     0111  2913               	goto	u4991
 10279     0112  2914               	goto	u4990
 10280     0113                     u4991:
 10281     0113  2867               	goto	l3084
 10282     0114                     u4990:
 10283     0114                     l3090:
 10284     0114  1683               	bsf	3,5	;RP0=1, select bank1
 10285     0115  1303               	bcf	3,6	;RP1=0, select bank1
 10286     0116  0836               	movf	(efgtoa@ou+3)^(0+128),w
 10287     0117  1283               	bcf	3,5	;RP0=0, select bank0
 10288     0118  1303               	bcf	3,6	;RP1=0, select bank0
 10289     0119  00B8               	movwf	___flge@ff1+3
 10290     011A  1683               	bsf	3,5	;RP0=1, select bank1
 10291     011B  1303               	bcf	3,6	;RP1=0, select bank1
 10292     011C  0835               	movf	(efgtoa@ou+2)^(0+128),w
 10293     011D  1283               	bcf	3,5	;RP0=0, select bank0
 10294     011E  1303               	bcf	3,6	;RP1=0, select bank0
 10295     011F  00B7               	movwf	___flge@ff1+2
 10296     0120  1683               	bsf	3,5	;RP0=1, select bank1
 10297     0121  1303               	bcf	3,6	;RP1=0, select bank1
 10298     0122  0834               	movf	(efgtoa@ou+1)^(0+128),w
 10299     0123  1283               	bcf	3,5	;RP0=0, select bank0
 10300     0124  1303               	bcf	3,6	;RP1=0, select bank0
 10301     0125  00B6               	movwf	___flge@ff1+1
 10302     0126  1683               	bsf	3,5	;RP0=1, select bank1
 10303     0127  1303               	bcf	3,6	;RP1=0, select bank1
 10304     0128  0833               	movf	efgtoa@ou^(0+128),w
 10305     0129  1283               	bcf	3,5	;RP0=0, select bank0
 10306     012A  1303               	bcf	3,6	;RP1=0, select bank0
 10307     012B  00B5               	movwf	___flge@ff1
 10308     012C  1683               	bsf	3,5	;RP0=1, select bank1
 10309     012D  1303               	bcf	3,6	;RP1=0, select bank1
 10310     012E  0847               	movf	(efgtoa@g+3)^(0+128),w
 10311     012F  1283               	bcf	3,5	;RP0=0, select bank0
 10312     0130  1303               	bcf	3,6	;RP1=0, select bank0
 10313     0131  00BC               	movwf	___flge@ff2+3
 10314     0132  1683               	bsf	3,5	;RP0=1, select bank1
 10315     0133  1303               	bcf	3,6	;RP1=0, select bank1
 10316     0134  0846               	movf	(efgtoa@g+2)^(0+128),w
 10317     0135  1283               	bcf	3,5	;RP0=0, select bank0
 10318     0136  1303               	bcf	3,6	;RP1=0, select bank0
 10319     0137  00BB               	movwf	___flge@ff2+2
 10320     0138  1683               	bsf	3,5	;RP0=1, select bank1
 10321     0139  1303               	bcf	3,6	;RP1=0, select bank1
 10322     013A  0845               	movf	(efgtoa@g+1)^(0+128),w
 10323     013B  1283               	bcf	3,5	;RP0=0, select bank0
 10324     013C  1303               	bcf	3,6	;RP1=0, select bank0
 10325     013D  00BA               	movwf	___flge@ff2+1
 10326     013E  1683               	bsf	3,5	;RP0=1, select bank1
 10327     013F  1303               	bcf	3,6	;RP1=0, select bank1
 10328     0140  0844               	movf	efgtoa@g^(0+128),w
 10329     0141  1283               	bcf	3,5	;RP0=0, select bank0
 10330     0142  1303               	bcf	3,6	;RP1=0, select bank0
 10331     0143  00B9               	movwf	___flge@ff2
 10332     0144  160A  158A  26B8  120A  118A  	fcall	___flge
 10333     0149  1C03               	btfss	3,0
 10334     014A  294C               	goto	u5001
 10335     014B  294D               	goto	u5000
 10336     014C                     u5001:
 10337     014C  2867               	goto	l3084
 10338     014D                     u5000:
 10339     014D                     l3092:
 10340                           
 10341                           ;C:\Program Files\Microchip\xc8\v3.00\pic\sources\c99\common\doprnt.c: 664:   if ((labs(
      +                          (g).u-(u).u) <= 1)) {
 10342     014D  1683               	bsf	3,5	;RP0=1, select bank1
 10343     014E  1303               	bcf	3,6	;RP1=0, select bank1
 10344     014F  0844               	movf	efgtoa@g^(0+128),w
 10345     0150  1283               	bcf	3,5	;RP0=0, select bank0
 10346     0151  1303               	bcf	3,6	;RP1=0, select bank0
 10347     0152  00D5               	movwf	??_efgtoa
 10348     0153  1683               	bsf	3,5	;RP0=1, select bank1
 10349     0154  1303               	bcf	3,6	;RP1=0, select bank1
 10350     0155  0845               	movf	(efgtoa@g+1)^(0+128),w
 10351     0156  1283               	bcf	3,5	;RP0=0, select bank0
 10352     0157  1303               	bcf	3,6	;RP1=0, select bank0
 10353     0158  00D6               	movwf	??_efgtoa+1
 10354     0159  1683               	bsf	3,5	;RP0=1, select bank1
 10355     015A  1303               	bcf	3,6	;RP1=0, select bank1
 10356     015B  0846               	movf	(efgtoa@g+2)^(0+128),w
 10357     015C  1283               	bcf	3,5	;RP0=0, select bank0
 10358     015D  1303               	bcf	3,6	;RP1=0, select bank0
 10359     015E  00D7               	movwf	??_efgtoa+2
 10360     015F  1683               	bsf	3,5	;RP0=1, select bank1
 10361     0160  1303               	bcf	3,6	;RP1=0, select bank1
 10362     0161  0847               	movf	(efgtoa@g+3)^(0+128),w
 10363     0162  1283               	bcf	3,5	;RP0=0, select bank0
 10364     0163  1303               	bcf	3,6	;RP1=0, select bank0
 10365     0164  00D8               	movwf	??_efgtoa+3
 10366     0165  1683               	bsf	3,5	;RP0=1, select bank1
 10367     0166  1303               	bcf	3,6	;RP1=0, select bank1
 10368     0167  0848               	movf	efgtoa@u^(0+128),w
 10369     0168  1283               	bcf	3,5	;RP0=0, select bank0
 10370     0169  1303               	bcf	3,6	;RP1=0, select bank0
 10371     016A  02D5               	subwf	??_efgtoa,f
 10372     016B  1683               	bsf	3,5	;RP0=1, select bank1
 10373     016C  1303               	bcf	3,6	;RP1=0, select bank1
 10374     016D  0849               	movf	(efgtoa@u+1)^(0+128),w
 10375     016E  1C03               	skipc
 10376     016F  0F49               	incfsz	(efgtoa@u+1)^(0+128),w
 10377     0170  2972               	goto	u5011
 10378     0171  2975               	goto	u5012
 10379     0172                     u5011:
 10380     0172  1283               	bcf	3,5	;RP0=0, select bank0
 10381     0173  1303               	bcf	3,6	;RP1=0, select bank0
 10382     0174  02D6               	subwf	??_efgtoa+1,f
 10383     0175                     u5012:
 10384     0175  1683               	bsf	3,5	;RP0=1, select bank1
 10385     0176  1303               	bcf	3,6	;RP1=0, select bank1
 10386     0177  084A               	movf	(efgtoa@u+2)^(0+128),w
 10387     0178  1C03               	skipc
 10388     0179  0F4A               	incfsz	(efgtoa@u+2)^(0+128),w
 10389     017A  297C               	goto	u5013
 10390     017B  297F               	goto	u5014
 10391     017C                     u5013:
 10392     017C  1283               	bcf	3,5	;RP0=0, select bank0
 10393     017D  1303               	bcf	3,6	;RP1=0, select bank0
 10394     017E  02D7               	subwf	??_efgtoa+2,f
 10395     017F                     u5014:
 10396     017F  1683               	bsf	3,5	;RP0=1, select bank1
 10397     0180  1303               	bcf	3,6	;RP1=0, select bank1
 10398     0181  084B               	movf	(efgtoa@u+3)^(0+128),w
 10399     0182  1C03               	skipc
 10400     0183  0F4B               	incfsz	(efgtoa@u+3)^(0+128),w
 10401     0184  2986               	goto	u5015
 10402     0185  2989               	goto	u5016
 10403     0186                     u5015:
 10404     0186  1283               	bcf	3,5	;RP0=0, select bank0
 10405     0187  1303               	bcf	3,6	;RP1=0, select bank0
 10406     0188  02D8               	subwf	??_efgtoa+3,f
 10407     0189                     u5016:
 10408     0189  1683               	bsf	3,5	;RP0=1, select bank1
 10409     018A  1303               	bcf	3,6	;RP1=0, select bank1
 10410     018B  1283               	bcf	3,5	;RP0=0, select bank0
 10411     018C  1303               	bcf	3,6	;RP1=0, select bank0
 10412     018D  0858               	movf	??_efgtoa+3,w
 10413     018E  00F3               	movwf	labs@a+3
 10414     018F  0857               	movf	??_efgtoa+2,w
 10415     0190  00F2               	movwf	labs@a+2
 10416     0191  0856               	movf	??_efgtoa+1,w
 10417     0192  00F1               	movwf	labs@a+1
 10418     0193  0855               	movf	??_efgtoa,w
 10419     0194  00F0               	movwf	labs@a
 10420     0195  160A  118A  20DC  120A  118A  	fcall	_labs
 10421     019A  1BF3               	btfsc	?_labs+3,7
 10422     019B  29AD               	goto	u5020
 10423     019C  0873               	movf	?_labs+3,w
 10424     019D  1D03               	btfss	3,2
 10425     019E  29AC               	goto	u5021
 10426     019F  0872               	movf	?_labs+2,w
 10427     01A0  1D03               	btfss	3,2
 10428     01A1  29AC               	goto	u5021
 10429     01A2  0871               	movf	?_labs+1,w
 10430     01A3  1D03               	btfss	3,2
 10431     01A4  29AC               	goto	u5021
 10432     01A5  3002               	movlw	2
 10433     01A6  0270               	subwf	?_labs,w
 10434     01A7  1D03               	skipz
 10435     01A8  29A9               	goto	u5023
 10436     01A9                     u5023:
 10437     01A9  1803               	btfsc	3,0
 10438     01AA  29AC               	goto	u5021
 10439     01AB  29AD               	goto	u5020
 10440     01AC                     u5021:
 10441     01AC  2A5C               	goto	l3104
 10442     01AD                     u5020:
 10443     01AD                     l3094:
 10444                           
 10445                           ;C:\Program Files\Microchip\xc8\v3.00\pic\sources\c99\common\doprnt.c: 665:    g = u;
 10446     01AD  1683               	bsf	3,5	;RP0=1, select bank1
 10447     01AE  1303               	bcf	3,6	;RP1=0, select bank1
 10448     01AF  084B               	movf	(efgtoa@u+3)^(0+128),w
 10449     01B0  00C7               	movwf	(efgtoa@g+3)^(0+128)
 10450     01B1  084A               	movf	(efgtoa@u+2)^(0+128),w
 10451     01B2  00C6               	movwf	(efgtoa@g+2)^(0+128)
 10452     01B3  0849               	movf	(efgtoa@u+1)^(0+128),w
 10453     01B4  00C5               	movwf	(efgtoa@g+1)^(0+128)
 10454     01B5  0848               	movf	efgtoa@u^(0+128),w
 10455     01B6  00C4               	movwf	efgtoa@g^(0+128)
 10456                           
 10457                           ;C:\Program Files\Microchip\xc8\v3.00\pic\sources\c99\common\doprnt.c: 666:   }
 10458     01B7  2A95               	goto	l3106
 10459     01B8                     l3096:
 10460                           
 10461                           ;C:\Program Files\Microchip\xc8\v3.00\pic\sources\c99\common\doprnt.c: 669:     u.f = u.
      +                          f/10.0;
 10462     01B8  3041               	movlw	65
 10463     01B9  1283               	bcf	3,5	;RP0=0, select bank0
 10464     01BA  1303               	bcf	3,6	;RP1=0, select bank0
 10465     01BB  00A3               	movwf	___fldiv@a+3
 10466     01BC  3020               	movlw	32
 10467     01BD  00A2               	movwf	___fldiv@a+2
 10468     01BE  3000               	movlw	0
 10469     01BF  00A1               	movwf	___fldiv@a+1
 10470     01C0  3000               	movlw	0
 10471     01C1  00A0               	movwf	___fldiv@a
 10472     01C2  1683               	bsf	3,5	;RP0=1, select bank1
 10473     01C3  1303               	bcf	3,6	;RP1=0, select bank1
 10474     01C4  084B               	movf	(efgtoa@u+3)^(0+128),w
 10475     01C5  1283               	bcf	3,5	;RP0=0, select bank0
 10476     01C6  1303               	bcf	3,6	;RP1=0, select bank0
 10477     01C7  00A7               	movwf	___fldiv@b+3
 10478     01C8  1683               	bsf	3,5	;RP0=1, select bank1
 10479     01C9  1303               	bcf	3,6	;RP1=0, select bank1
 10480     01CA  084A               	movf	(efgtoa@u+2)^(0+128),w
 10481     01CB  1283               	bcf	3,5	;RP0=0, select bank0
 10482     01CC  1303               	bcf	3,6	;RP1=0, select bank0
 10483     01CD  00A6               	movwf	___fldiv@b+2
 10484     01CE  1683               	bsf	3,5	;RP0=1, select bank1
 10485     01CF  1303               	bcf	3,6	;RP1=0, select bank1
 10486     01D0  0849               	movf	(efgtoa@u+1)^(0+128),w
 10487     01D1  1283               	bcf	3,5	;RP0=0, select bank0
 10488     01D2  1303               	bcf	3,6	;RP1=0, select bank0
 10489     01D3  00A5               	movwf	___fldiv@b+1
 10490     01D4  1683               	bsf	3,5	;RP0=1, select bank1
 10491     01D5  1303               	bcf	3,6	;RP1=0, select bank1
 10492     01D6  0848               	movf	efgtoa@u^(0+128),w
 10493     01D7  1283               	bcf	3,5	;RP0=0, select bank0
 10494     01D8  1303               	bcf	3,6	;RP1=0, select bank0
 10495     01D9  00A4               	movwf	___fldiv@b
 10496     01DA  120A  158A  2098  120A  118A  	fcall	___fldiv
 10497     01DF  1283               	bcf	3,5	;RP0=0, select bank0
 10498     01E0  1303               	bcf	3,6	;RP1=0, select bank0
 10499     01E1  0823               	movf	?___fldiv+3,w
 10500     01E2  1683               	bsf	3,5	;RP0=1, select bank1
 10501     01E3  1303               	bcf	3,6	;RP1=0, select bank1
 10502     01E4  00CB               	movwf	(efgtoa@u+3)^(0+128)
 10503     01E5  1283               	bcf	3,5	;RP0=0, select bank0
 10504     01E6  1303               	bcf	3,6	;RP1=0, select bank0
 10505     01E7  0822               	movf	?___fldiv+2,w
 10506     01E8  1683               	bsf	3,5	;RP0=1, select bank1
 10507     01E9  1303               	bcf	3,6	;RP1=0, select bank1
 10508     01EA  00CA               	movwf	(efgtoa@u+2)^(0+128)
 10509     01EB  1283               	bcf	3,5	;RP0=0, select bank0
 10510     01EC  1303               	bcf	3,6	;RP1=0, select bank0
 10511     01ED  0821               	movf	?___fldiv+1,w
 10512     01EE  1683               	bsf	3,5	;RP0=1, select bank1
 10513     01EF  1303               	bcf	3,6	;RP1=0, select bank1
 10514     01F0  00C9               	movwf	(efgtoa@u+1)^(0+128)
 10515     01F1  1283               	bcf	3,5	;RP0=0, select bank0
 10516     01F2  1303               	bcf	3,6	;RP1=0, select bank0
 10517     01F3  0820               	movf	?___fldiv,w
 10518     01F4  1683               	bsf	3,5	;RP0=1, select bank1
 10519     01F5  1303               	bcf	3,6	;RP1=0, select bank1
 10520     01F6  00C8               	movwf	efgtoa@u^(0+128)
 10521     01F7                     l3098:
 10522                           
 10523                           ;C:\Program Files\Microchip\xc8\v3.00\pic\sources\c99\common\doprnt.c: 670:     --e;
 10524     01F7  30FF               	movlw	255
 10525     01F8  07AF               	addwf	efgtoa@e^(0+128),f
 10526     01F9  1803               	skipnc
 10527     01FA  0AB0               	incf	(efgtoa@e+1)^(0+128),f
 10528     01FB  30FF               	movlw	255
 10529     01FC  07B0               	addwf	(efgtoa@e+1)^(0+128),f
 10530     01FD                     l3100:
 10531                           
 10532                           ;C:\Program Files\Microchip\xc8\v3.00\pic\sources\c99\common\doprnt.c: 671:     if ((lab
      +                          s((g).u-(u).u) <= 1)) {
 10533     01FD  0844               	movf	efgtoa@g^(0+128),w
 10534     01FE  1283               	bcf	3,5	;RP0=0, select bank0
 10535     01FF  1303               	bcf	3,6	;RP1=0, select bank0
 10536     0200  00D5               	movwf	??_efgtoa
 10537     0201  1683               	bsf	3,5	;RP0=1, select bank1
 10538     0202  1303               	bcf	3,6	;RP1=0, select bank1
 10539     0203  0845               	movf	(efgtoa@g+1)^(0+128),w
 10540     0204  1283               	bcf	3,5	;RP0=0, select bank0
 10541     0205  1303               	bcf	3,6	;RP1=0, select bank0
 10542     0206  00D6               	movwf	??_efgtoa+1
 10543     0207  1683               	bsf	3,5	;RP0=1, select bank1
 10544     0208  1303               	bcf	3,6	;RP1=0, select bank1
 10545     0209  0846               	movf	(efgtoa@g+2)^(0+128),w
 10546     020A  1283               	bcf	3,5	;RP0=0, select bank0
 10547     020B  1303               	bcf	3,6	;RP1=0, select bank0
 10548     020C  00D7               	movwf	??_efgtoa+2
 10549     020D  1683               	bsf	3,5	;RP0=1, select bank1
 10550     020E  1303               	bcf	3,6	;RP1=0, select bank1
 10551     020F  0847               	movf	(efgtoa@g+3)^(0+128),w
 10552     0210  1283               	bcf	3,5	;RP0=0, select bank0
 10553     0211  1303               	bcf	3,6	;RP1=0, select bank0
 10554     0212  00D8               	movwf	??_efgtoa+3
 10555     0213  1683               	bsf	3,5	;RP0=1, select bank1
 10556     0214  1303               	bcf	3,6	;RP1=0, select bank1
 10557     0215  0848               	movf	efgtoa@u^(0+128),w
 10558     0216  1283               	bcf	3,5	;RP0=0, select bank0
 10559     0217  1303               	bcf	3,6	;RP1=0, select bank0
 10560     0218  02D5               	subwf	??_efgtoa,f
 10561     0219  1683               	bsf	3,5	;RP0=1, select bank1
 10562     021A  1303               	bcf	3,6	;RP1=0, select bank1
 10563     021B  0849               	movf	(efgtoa@u+1)^(0+128),w
 10564     021C  1C03               	skipc
 10565     021D  0F49               	incfsz	(efgtoa@u+1)^(0+128),w
 10566     021E  2A20               	goto	u5031
 10567     021F  2A23               	goto	u5032
 10568     0220                     u5031:
 10569     0220  1283               	bcf	3,5	;RP0=0, select bank0
 10570     0221  1303               	bcf	3,6	;RP1=0, select bank0
 10571     0222  02D6               	subwf	??_efgtoa+1,f
 10572     0223                     u5032:
 10573     0223  1683               	bsf	3,5	;RP0=1, select bank1
 10574     0224  1303               	bcf	3,6	;RP1=0, select bank1
 10575     0225  084A               	movf	(efgtoa@u+2)^(0+128),w
 10576     0226  1C03               	skipc
 10577     0227  0F4A               	incfsz	(efgtoa@u+2)^(0+128),w
 10578     0228  2A2A               	goto	u5033
 10579     0229  2A2D               	goto	u5034
 10580     022A                     u5033:
 10581     022A  1283               	bcf	3,5	;RP0=0, select bank0
 10582     022B  1303               	bcf	3,6	;RP1=0, select bank0
 10583     022C  02D7               	subwf	??_efgtoa+2,f
 10584     022D                     u5034:
 10585     022D  1683               	bsf	3,5	;RP0=1, select bank1
 10586     022E  1303               	bcf	3,6	;RP1=0, select bank1
 10587     022F  084B               	movf	(efgtoa@u+3)^(0+128),w
 10588     0230  1C03               	skipc
 10589     0231  0F4B               	incfsz	(efgtoa@u+3)^(0+128),w
 10590     0232  2A34               	goto	u5035
 10591     0233  2A37               	goto	u5036
 10592     0234                     u5035:
 10593     0234  1283               	bcf	3,5	;RP0=0, select bank0
 10594     0235  1303               	bcf	3,6	;RP1=0, select bank0
 10595     0236  02D8               	subwf	??_efgtoa+3,f
 10596     0237                     u5036:
 10597     0237  1683               	bsf	3,5	;RP0=1, select bank1
 10598     0238  1303               	bcf	3,6	;RP1=0, select bank1
 10599     0239  1283               	bcf	3,5	;RP0=0, select bank0
 10600     023A  1303               	bcf	3,6	;RP1=0, select bank0
 10601     023B  0858               	movf	??_efgtoa+3,w
 10602     023C  00F3               	movwf	labs@a+3
 10603     023D  0857               	movf	??_efgtoa+2,w
 10604     023E  00F2               	movwf	labs@a+2
 10605     023F  0856               	movf	??_efgtoa+1,w
 10606     0240  00F1               	movwf	labs@a+1
 10607     0241  0855               	movf	??_efgtoa,w
 10608     0242  00F0               	movwf	labs@a
 10609     0243  160A  118A  20DC  120A  118A  	fcall	_labs
 10610     0248  1BF3               	btfsc	?_labs+3,7
 10611     0249  2A5B               	goto	u5040
 10612     024A  0873               	movf	?_labs+3,w
 10613     024B  1D03               	btfss	3,2
 10614     024C  2A5A               	goto	u5041
 10615     024D  0872               	movf	?_labs+2,w
 10616     024E  1D03               	btfss	3,2
 10617     024F  2A5A               	goto	u5041
 10618     0250  0871               	movf	?_labs+1,w
 10619     0251  1D03               	btfss	3,2
 10620     0252  2A5A               	goto	u5041
 10621     0253  3002               	movlw	2
 10622     0254  0270               	subwf	?_labs,w
 10623     0255  1D03               	skipz
 10624     0256  2A57               	goto	u5043
 10625     0257                     u5043:
 10626     0257  1803               	btfsc	3,0
 10627     0258  2A5A               	goto	u5041
 10628     0259  2A5B               	goto	u5040
 10629     025A                     u5041:
 10630     025A  2A5C               	goto	l3104
 10631     025B                     u5040:
 10632     025B  29AD               	goto	l3094
 10633     025C                     l3104:
 10634                           
 10635                           ;C:\Program Files\Microchip\xc8\v3.00\pic\sources\c99\common\doprnt.c: 668:    while (g.
      +                          f < u.f) {
 10636     025C  1683               	bsf	3,5	;RP0=1, select bank1
 10637     025D  1303               	bcf	3,6	;RP1=0, select bank1
 10638     025E  0847               	movf	(efgtoa@g+3)^(0+128),w
 10639     025F  1283               	bcf	3,5	;RP0=0, select bank0
 10640     0260  1303               	bcf	3,6	;RP1=0, select bank0
 10641     0261  00B8               	movwf	___flge@ff1+3
 10642     0262  1683               	bsf	3,5	;RP0=1, select bank1
 10643     0263  1303               	bcf	3,6	;RP1=0, select bank1
 10644     0264  0846               	movf	(efgtoa@g+2)^(0+128),w
 10645     0265  1283               	bcf	3,5	;RP0=0, select bank0
 10646     0266  1303               	bcf	3,6	;RP1=0, select bank0
 10647     0267  00B7               	movwf	___flge@ff1+2
 10648     0268  1683               	bsf	3,5	;RP0=1, select bank1
 10649     0269  1303               	bcf	3,6	;RP1=0, select bank1
 10650     026A  0845               	movf	(efgtoa@g+1)^(0+128),w
 10651     026B  1283               	bcf	3,5	;RP0=0, select bank0
 10652     026C  1303               	bcf	3,6	;RP1=0, select bank0
 10653     026D  00B6               	movwf	___flge@ff1+1
 10654     026E  1683               	bsf	3,5	;RP0=1, select bank1
 10655     026F  1303               	bcf	3,6	;RP1=0, select bank1
 10656     0270  0844               	movf	efgtoa@g^(0+128),w
 10657     0271  1283               	bcf	3,5	;RP0=0, select bank0
 10658     0272  1303               	bcf	3,6	;RP1=0, select bank0
 10659     0273  00B5               	movwf	___flge@ff1
 10660     0274  1683               	bsf	3,5	;RP0=1, select bank1
 10661     0275  1303               	bcf	3,6	;RP1=0, select bank1
 10662     0276  084B               	movf	(efgtoa@u+3)^(0+128),w
 10663     0277  1283               	bcf	3,5	;RP0=0, select bank0
 10664     0278  1303               	bcf	3,6	;RP1=0, select bank0
 10665     0279  00BC               	movwf	___flge@ff2+3
 10666     027A  1683               	bsf	3,5	;RP0=1, select bank1
 10667     027B  1303               	bcf	3,6	;RP1=0, select bank1
 10668     027C  084A               	movf	(efgtoa@u+2)^(0+128),w
 10669     027D  1283               	bcf	3,5	;RP0=0, select bank0
 10670     027E  1303               	bcf	3,6	;RP1=0, select bank0
 10671     027F  00BB               	movwf	___flge@ff2+2
 10672     0280  1683               	bsf	3,5	;RP0=1, select bank1
 10673     0281  1303               	bcf	3,6	;RP1=0, select bank1
 10674     0282  0849               	movf	(efgtoa@u+1)^(0+128),w
 10675     0283  1283               	bcf	3,5	;RP0=0, select bank0
 10676     0284  1303               	bcf	3,6	;RP1=0, select bank0
 10677     0285  00BA               	movwf	___flge@ff2+1
 10678     0286  1683               	bsf	3,5	;RP0=1, select bank1
 10679     0287  1303               	bcf	3,6	;RP1=0, select bank1
 10680     0288  0848               	movf	efgtoa@u^(0+128),w
 10681     0289  1283               	bcf	3,5	;RP0=0, select bank0
 10682     028A  1303               	bcf	3,6	;RP1=0, select bank0
 10683     028B  00B9               	movwf	___flge@ff2
 10684     028C  160A  158A  26B8  120A  118A  	fcall	___flge
 10685     0291  1C03               	btfss	3,0
 10686     0292  2A94               	goto	u5051
 10687     0293  2A95               	goto	u5050
 10688     0294                     u5051:
 10689     0294  29B8               	goto	l3096
 10690     0295                     u5050:
 10691     0295                     l3106:
 10692                           
 10693                           ;C:\Program Files\Microchip\xc8\v3.00\pic\sources\c99\common\doprnt.c: 683:  mode = c;
 10694     0295  1283               	bcf	3,5	;RP0=0, select bank0
 10695     0296  1303               	bcf	3,6	;RP1=0, select bank0
 10696     0297  0854               	movf	efgtoa@c,w
 10697     0298  1683               	bsf	3,5	;RP0=1, select bank1
 10698     0299  1303               	bcf	3,6	;RP1=0, select bank1
 10699     029A  00A9               	movwf	efgtoa@mode^(0+128)
 10700                           
 10701                           ;C:\Program Files\Microchip\xc8\v3.00\pic\sources\c99\common\doprnt.c: 685:     nmode = 
      +                          mode;
 10702     029B  0829               	movf	efgtoa@mode^(0+128),w
 10703     029C  00AA               	movwf	efgtoa@nmode^(0+128)
 10704     029D                     l3108:
 10705                           
 10706                           ;C:\Program Files\Microchip\xc8\v3.00\pic\sources\c99\common\doprnt.c: 695:  {;C:\Progra
      +                          m Files\Microchip\xc8\v3.00\pic\sources\c99\common\doprnt.c: 696:         p = (prec < 0)
      +                           ? 6 : prec;
 10707     029D  1BEB               	btfsc	(_prec+1)^(0+128),7
 10708     029E  2AA0               	goto	u5061
 10709     029F  2AA1               	goto	u5060
 10710     02A0                     u5061:
 10711     02A0  2AA6               	goto	l3112
 10712     02A1                     u5060:
 10713     02A1                     l3110:
 10714     02A1  086B               	movf	(_prec+1)^(0+128),w
 10715     02A2  00A3               	movwf	(efgtoa@p+1)^(0+128)
 10716     02A3  086A               	movf	_prec^(0+128),w
 10717     02A4  00A2               	movwf	efgtoa@p^(0+128)
 10718     02A5  2AAA               	goto	l762
 10719     02A6                     l3112:
 10720     02A6  3006               	movlw	6
 10721     02A7  00A2               	movwf	efgtoa@p^(0+128)
 10722     02A8  3000               	movlw	0
 10723     02A9  00A3               	movwf	(efgtoa@p^(0+128)+1)
 10724     02AA                     l762:
 10725                           
 10726                           ;C:\Program Files\Microchip\xc8\v3.00\pic\sources\c99\common\doprnt.c: 697:     };C:\Pro
      +                          gram Files\Microchip\xc8\v3.00\pic\sources\c99\common\doprnt.c: 711:     m = p;
 10727     02AA  0823               	movf	(efgtoa@p+1)^(0+128),w
 10728     02AB  00AE               	movwf	(efgtoa@m+1)^(0+128)
 10729     02AC  0822               	movf	efgtoa@p^(0+128),w
 10730     02AD  00AD               	movwf	efgtoa@m^(0+128)
 10731                           
 10732                           ;C:\Program Files\Microchip\xc8\v3.00\pic\sources\c99\common\doprnt.c: 715:  {;C:\Progra
      +                          m Files\Microchip\xc8\v3.00\pic\sources\c99\common\doprnt.c: 716:         ++m;
 10733     02AE  3001               	movlw	1
 10734     02AF  07AD               	addwf	efgtoa@m^(0+128),f
 10735     02B0  1803               	skipnc
 10736     02B1  0AAE               	incf	(efgtoa@m+1)^(0+128),f
 10737     02B2  3000               	movlw	0
 10738     02B3  07AE               	addwf	(efgtoa@m+1)^(0+128),f
 10739     02B4                     l3114:
 10740                           
 10741                           ;C:\Program Files\Microchip\xc8\v3.00\pic\sources\c99\common\doprnt.c: 717:     };C:\Pro
      +                          gram Files\Microchip\xc8\v3.00\pic\sources\c99\common\doprnt.c: 721:     if (nmode == 'f
      +                          ') {
 10742     02B4  3066               	movlw	102
 10743     02B5  062A               	xorwf	efgtoa@nmode^(0+128),w
 10744     02B6  1D03               	btfss	3,2
 10745     02B7  2AB9               	goto	u5071
 10746     02B8  2ABA               	goto	u5070
 10747     02B9                     u5071:
 10748     02B9  2AD4               	goto	l3126
 10749     02BA                     u5070:
 10750     02BA                     l3116:
 10751                           
 10752                           ;C:\Program Files\Microchip\xc8\v3.00\pic\sources\c99\common\doprnt.c: 722:         if (
      +                          e < 0) {
 10753     02BA  1FB0               	btfss	(efgtoa@e+1)^(0+128),7
 10754     02BB  2ABD               	goto	u5081
 10755     02BC  2ABE               	goto	u5080
 10756     02BD                     u5081:
 10757     02BD  2AC8               	goto	l3122
 10758     02BE                     u5080:
 10759     02BE                     l3118:
 10760                           
 10761                           ;C:\Program Files\Microchip\xc8\v3.00\pic\sources\c99\common\doprnt.c: 723:             
      +                          u.f = 1.0;
 10762     02BE  303F               	movlw	63
 10763     02BF  00CB               	movwf	(efgtoa@u+3)^(0+128)
 10764     02C0  3080               	movlw	128
 10765     02C1  00CA               	movwf	(efgtoa@u+2)^(0+128)
 10766     02C2  3000               	movlw	0
 10767     02C3  00C9               	movwf	(efgtoa@u+1)^(0+128)
 10768     02C4  3000               	movlw	0
 10769     02C5  00C8               	movwf	efgtoa@u^(0+128)
 10770     02C6                     l3120:
 10771                           
 10772                           ;C:\Program Files\Microchip\xc8\v3.00\pic\sources\c99\common\doprnt.c: 724:             
      +                          e = 0;
 10773     02C6  01AF               	clrf	efgtoa@e^(0+128)
 10774     02C7  01B0               	clrf	(efgtoa@e+1)^(0+128)
 10775     02C8                     l3122:
 10776                           
 10777                           ;C:\Program Files\Microchip\xc8\v3.00\pic\sources\c99\common\doprnt.c: 726:         if (
      +                          !(mode == 'g')) {
 10778     02C8  3067               	movlw	103
 10779     02C9  0629               	xorwf	efgtoa@mode^(0+128),w
 10780     02CA  1903               	btfsc	3,2
 10781     02CB  2ACD               	goto	u5091
 10782     02CC  2ACE               	goto	u5090
 10783     02CD                     u5091:
 10784     02CD  2AD4               	goto	l3126
 10785     02CE                     u5090:
 10786     02CE                     l3124:
 10787                           
 10788                           ;C:\Program Files\Microchip\xc8\v3.00\pic\sources\c99\common\doprnt.c: 727:             
      +                          m += e;
 10789     02CE  082F               	movf	efgtoa@e^(0+128),w
 10790     02CF  07AD               	addwf	efgtoa@m^(0+128),f
 10791     02D0  1803               	skipnc
 10792     02D1  0AAE               	incf	(efgtoa@m+1)^(0+128),f
 10793     02D2  0830               	movf	(efgtoa@e+1)^(0+128),w
 10794     02D3  07AE               	addwf	(efgtoa@m+1)^(0+128),f
 10795     02D4                     l3126:
 10796                           
 10797                           ;C:\Program Files\Microchip\xc8\v3.00\pic\sources\c99\common\doprnt.c: 733:     i = 0;
 10798     02D4  01B7               	clrf	efgtoa@i^(0+128)
 10799     02D5  01B8               	clrf	(efgtoa@i+1)^(0+128)
 10800     02D6                     l3128:
 10801                           
 10802                           ;C:\Program Files\Microchip\xc8\v3.00\pic\sources\c99\common\doprnt.c: 734:     h = g.f;
 10803     02D6  0847               	movf	(efgtoa@g+3)^(0+128),w
 10804     02D7  00BC               	movwf	(efgtoa@h+3)^(0+128)
 10805     02D8  0846               	movf	(efgtoa@g+2)^(0+128),w
 10806     02D9  00BB               	movwf	(efgtoa@h+2)^(0+128)
 10807     02DA  0845               	movf	(efgtoa@g+1)^(0+128),w
 10808     02DB  00BA               	movwf	(efgtoa@h+1)^(0+128)
 10809     02DC  0844               	movf	efgtoa@g^(0+128),w
 10810     02DD  00B9               	movwf	efgtoa@h^(0+128)
 10811     02DE                     l3130:
 10812                           
 10813                           ;C:\Program Files\Microchip\xc8\v3.00\pic\sources\c99\common\doprnt.c: 735:     ou = u;
 10814     02DE  084B               	movf	(efgtoa@u+3)^(0+128),w
 10815     02DF  00B6               	movwf	(efgtoa@ou+3)^(0+128)
 10816     02E0  084A               	movf	(efgtoa@u+2)^(0+128),w
 10817     02E1  00B5               	movwf	(efgtoa@ou+2)^(0+128)
 10818     02E2  0849               	movf	(efgtoa@u+1)^(0+128),w
 10819     02E3  00B4               	movwf	(efgtoa@ou+1)^(0+128)
 10820     02E4  0848               	movf	efgtoa@u^(0+128),w
 10821     02E5  00B3               	movwf	efgtoa@ou^(0+128)
 10822                           
 10823                           ;C:\Program Files\Microchip\xc8\v3.00\pic\sources\c99\common\doprnt.c: 736:     while (i
      +                           < m) {
 10824     02E6  2C0D               	goto	l3142
 10825     02E7                     l3132:
 10826                           
 10827                           ;C:\Program Files\Microchip\xc8\v3.00\pic\sources\c99\common\doprnt.c: 737:         l = 
      +                          floorf(h/u.f);
 10828     02E7  1683               	bsf	3,5	;RP0=1, select bank1
 10829     02E8  1303               	bcf	3,6	;RP1=0, select bank1
 10830     02E9  084B               	movf	(efgtoa@u+3)^(0+128),w
 10831     02EA  1283               	bcf	3,5	;RP0=0, select bank0
 10832     02EB  1303               	bcf	3,6	;RP1=0, select bank0
 10833     02EC  00A3               	movwf	___fldiv@a+3
 10834     02ED  1683               	bsf	3,5	;RP0=1, select bank1
 10835     02EE  1303               	bcf	3,6	;RP1=0, select bank1
 10836     02EF  084A               	movf	(efgtoa@u+2)^(0+128),w
 10837     02F0  1283               	bcf	3,5	;RP0=0, select bank0
 10838     02F1  1303               	bcf	3,6	;RP1=0, select bank0
 10839     02F2  00A2               	movwf	___fldiv@a+2
 10840     02F3  1683               	bsf	3,5	;RP0=1, select bank1
 10841     02F4  1303               	bcf	3,6	;RP1=0, select bank1
 10842     02F5  0849               	movf	(efgtoa@u+1)^(0+128),w
 10843     02F6  1283               	bcf	3,5	;RP0=0, select bank0
 10844     02F7  1303               	bcf	3,6	;RP1=0, select bank0
 10845     02F8  00A1               	movwf	___fldiv@a+1
 10846     02F9  1683               	bsf	3,5	;RP0=1, select bank1
 10847     02FA  1303               	bcf	3,6	;RP1=0, select bank1
 10848     02FB  0848               	movf	efgtoa@u^(0+128),w
 10849     02FC  1283               	bcf	3,5	;RP0=0, select bank0
 10850     02FD  1303               	bcf	3,6	;RP1=0, select bank0
 10851     02FE  00A0               	movwf	___fldiv@a
 10852     02FF  1683               	bsf	3,5	;RP0=1, select bank1
 10853     0300  1303               	bcf	3,6	;RP1=0, select bank1
 10854     0301  083C               	movf	(efgtoa@h+3)^(0+128),w
 10855     0302  1283               	bcf	3,5	;RP0=0, select bank0
 10856     0303  1303               	bcf	3,6	;RP1=0, select bank0
 10857     0304  00A7               	movwf	___fldiv@b+3
 10858     0305  1683               	bsf	3,5	;RP0=1, select bank1
 10859     0306  1303               	bcf	3,6	;RP1=0, select bank1
 10860     0307  083B               	movf	(efgtoa@h+2)^(0+128),w
 10861     0308  1283               	bcf	3,5	;RP0=0, select bank0
 10862     0309  1303               	bcf	3,6	;RP1=0, select bank0
 10863     030A  00A6               	movwf	___fldiv@b+2
 10864     030B  1683               	bsf	3,5	;RP0=1, select bank1
 10865     030C  1303               	bcf	3,6	;RP1=0, select bank1
 10866     030D  083A               	movf	(efgtoa@h+1)^(0+128),w
 10867     030E  1283               	bcf	3,5	;RP0=0, select bank0
 10868     030F  1303               	bcf	3,6	;RP1=0, select bank0
 10869     0310  00A5               	movwf	___fldiv@b+1
 10870     0311  1683               	bsf	3,5	;RP0=1, select bank1
 10871     0312  1303               	bcf	3,6	;RP1=0, select bank1
 10872     0313  0839               	movf	efgtoa@h^(0+128),w
 10873     0314  1283               	bcf	3,5	;RP0=0, select bank0
 10874     0315  1303               	bcf	3,6	;RP1=0, select bank0
 10875     0316  00A4               	movwf	___fldiv@b
 10876     0317  120A  158A  2098  120A  118A  	fcall	___fldiv
 10877     031C  1283               	bcf	3,5	;RP0=0, select bank0
 10878     031D  1303               	bcf	3,6	;RP1=0, select bank0
 10879     031E  0823               	movf	?___fldiv+3,w
 10880     031F  00BD               	movwf	floorf@x+3
 10881     0320  0822               	movf	?___fldiv+2,w
 10882     0321  00BC               	movwf	floorf@x+2
 10883     0322  0821               	movf	?___fldiv+1,w
 10884     0323  00BB               	movwf	floorf@x+1
 10885     0324  0820               	movf	?___fldiv,w
 10886     0325  00BA               	movwf	floorf@x
 10887     0326  160A  118A  2303  120A  118A  	fcall	_floorf
 10888     032B  1283               	bcf	3,5	;RP0=0, select bank0
 10889     032C  1303               	bcf	3,6	;RP1=0, select bank0
 10890     032D  083D               	movf	?_floorf+3,w
 10891     032E  1683               	bsf	3,5	;RP0=1, select bank1
 10892     032F  1303               	bcf	3,6	;RP1=0, select bank1
 10893     0330  00C0               	movwf	(efgtoa@l+3)^(0+128)
 10894     0331  1283               	bcf	3,5	;RP0=0, select bank0
 10895     0332  1303               	bcf	3,6	;RP1=0, select bank0
 10896     0333  083C               	movf	?_floorf+2,w
 10897     0334  1683               	bsf	3,5	;RP0=1, select bank1
 10898     0335  1303               	bcf	3,6	;RP1=0, select bank1
 10899     0336  00BF               	movwf	(efgtoa@l+2)^(0+128)
 10900     0337  1283               	bcf	3,5	;RP0=0, select bank0
 10901     0338  1303               	bcf	3,6	;RP1=0, select bank0
 10902     0339  083B               	movf	?_floorf+1,w
 10903     033A  1683               	bsf	3,5	;RP0=1, select bank1
 10904     033B  1303               	bcf	3,6	;RP1=0, select bank1
 10905     033C  00BE               	movwf	(efgtoa@l+1)^(0+128)
 10906     033D  1283               	bcf	3,5	;RP0=0, select bank0
 10907     033E  1303               	bcf	3,6	;RP1=0, select bank0
 10908     033F  083A               	movf	?_floorf,w
 10909     0340  1683               	bsf	3,5	;RP0=1, select bank1
 10910     0341  1303               	bcf	3,6	;RP1=0, select bank1
 10911     0342  00BD               	movwf	efgtoa@l^(0+128)
 10912     0343                     l3134:
 10913                           
 10914                           ;C:\Program Files\Microchip\xc8\v3.00\pic\sources\c99\common\doprnt.c: 738:         d = 
      +                          (int)l;
 10915     0343  0840               	movf	(efgtoa@l+3)^(0+128),w
 10916     0344  00F3               	movwf	___fltol@f1+3
 10917     0345  083F               	movf	(efgtoa@l+2)^(0+128),w
 10918     0346  00F2               	movwf	___fltol@f1+2
 10919     0347  083E               	movf	(efgtoa@l+1)^(0+128),w
 10920     0348  00F1               	movwf	___fltol@f1+1
 10921     0349  083D               	movf	efgtoa@l^(0+128),w
 10922     034A  00F0               	movwf	___fltol@f1
 10923     034B  160A  158A  247D  120A  118A  	fcall	___fltol
 10924     0350  0871               	movf	?___fltol+1,w
 10925     0351  1683               	bsf	3,5	;RP0=1, select bank1
 10926     0352  1303               	bcf	3,6	;RP1=0, select bank1
 10927     0353  00AC               	movwf	(efgtoa@d+1)^(0+128)
 10928     0354  0870               	movf	?___fltol,w
 10929     0355  00AB               	movwf	efgtoa@d^(0+128)
 10930     0356                     l3136:
 10931                           
 10932                           ;C:\Program Files\Microchip\xc8\v3.00\pic\sources\c99\common\doprnt.c: 739:         h -=
      +                           l*u.f;
 10933     0356  084B               	movf	(efgtoa@u+3)^(0+128),w
 10934     0357  1283               	bcf	3,5	;RP0=0, select bank0
 10935     0358  1303               	bcf	3,6	;RP1=0, select bank0
 10936     0359  00A7               	movwf	___flmul@a+3
 10937     035A  1683               	bsf	3,5	;RP0=1, select bank1
 10938     035B  1303               	bcf	3,6	;RP1=0, select bank1
 10939     035C  084A               	movf	(efgtoa@u+2)^(0+128),w
 10940     035D  1283               	bcf	3,5	;RP0=0, select bank0
 10941     035E  1303               	bcf	3,6	;RP1=0, select bank0
 10942     035F  00A6               	movwf	___flmul@a+2
 10943     0360  1683               	bsf	3,5	;RP0=1, select bank1
 10944     0361  1303               	bcf	3,6	;RP1=0, select bank1
 10945     0362  0849               	movf	(efgtoa@u+1)^(0+128),w
 10946     0363  1283               	bcf	3,5	;RP0=0, select bank0
 10947     0364  1303               	bcf	3,6	;RP1=0, select bank0
 10948     0365  00A5               	movwf	___flmul@a+1
 10949     0366  1683               	bsf	3,5	;RP0=1, select bank1
 10950     0367  1303               	bcf	3,6	;RP1=0, select bank1
 10951     0368  0848               	movf	efgtoa@u^(0+128),w
 10952     0369  1283               	bcf	3,5	;RP0=0, select bank0
 10953     036A  1303               	bcf	3,6	;RP1=0, select bank0
 10954     036B  00A4               	movwf	___flmul@a
 10955     036C  1683               	bsf	3,5	;RP0=1, select bank1
 10956     036D  1303               	bcf	3,6	;RP1=0, select bank1
 10957     036E  0840               	movf	(efgtoa@l+3)^(0+128),w
 10958     036F  1283               	bcf	3,5	;RP0=0, select bank0
 10959     0370  1303               	bcf	3,6	;RP1=0, select bank0
 10960     0371  00A3               	movwf	___flmul@b+3
 10961     0372  1683               	bsf	3,5	;RP0=1, select bank1
 10962     0373  1303               	bcf	3,6	;RP1=0, select bank1
 10963     0374  083F               	movf	(efgtoa@l+2)^(0+128),w
 10964     0375  1283               	bcf	3,5	;RP0=0, select bank0
 10965     0376  1303               	bcf	3,6	;RP1=0, select bank0
 10966     0377  00A2               	movwf	___flmul@b+2
 10967     0378  1683               	bsf	3,5	;RP0=1, select bank1
 10968     0379  1303               	bcf	3,6	;RP1=0, select bank1
 10969     037A  083E               	movf	(efgtoa@l+1)^(0+128),w
 10970     037B  1283               	bcf	3,5	;RP0=0, select bank0
 10971     037C  1303               	bcf	3,6	;RP1=0, select bank0
 10972     037D  00A1               	movwf	___flmul@b+1
 10973     037E  1683               	bsf	3,5	;RP0=1, select bank1
 10974     037F  1303               	bcf	3,6	;RP1=0, select bank1
 10975     0380  083D               	movf	efgtoa@l^(0+128),w
 10976     0381  1283               	bcf	3,5	;RP0=0, select bank0
 10977     0382  1303               	bcf	3,6	;RP1=0, select bank0
 10978     0383  00A0               	movwf	___flmul@b
 10979     0384  120A  158A  24BE  120A  118A  	fcall	___flmul
 10980     0389  1283               	bcf	3,5	;RP0=0, select bank0
 10981     038A  1303               	bcf	3,6	;RP1=0, select bank0
 10982     038B  0823               	movf	?___flmul+3,w
 10983     038C  00B8               	movwf	___flsub@a+3
 10984     038D  0822               	movf	?___flmul+2,w
 10985     038E  00B7               	movwf	___flsub@a+2
 10986     038F  0821               	movf	?___flmul+1,w
 10987     0390  00B6               	movwf	___flsub@a+1
 10988     0391  0820               	movf	?___flmul,w
 10989     0392  00B5               	movwf	___flsub@a
 10990     0393  1683               	bsf	3,5	;RP0=1, select bank1
 10991     0394  1303               	bcf	3,6	;RP1=0, select bank1
 10992     0395  083C               	movf	(efgtoa@h+3)^(0+128),w
 10993     0396  1283               	bcf	3,5	;RP0=0, select bank0
 10994     0397  1303               	bcf	3,6	;RP1=0, select bank0
 10995     0398  00BC               	movwf	___flsub@b+3
 10996     0399  1683               	bsf	3,5	;RP0=1, select bank1
 10997     039A  1303               	bcf	3,6	;RP1=0, select bank1
 10998     039B  083B               	movf	(efgtoa@h+2)^(0+128),w
 10999     039C  1283               	bcf	3,5	;RP0=0, select bank0
 11000     039D  1303               	bcf	3,6	;RP1=0, select bank0
 11001     039E  00BB               	movwf	___flsub@b+2
 11002     039F  1683               	bsf	3,5	;RP0=1, select bank1
 11003     03A0  1303               	bcf	3,6	;RP1=0, select bank1
 11004     03A1  083A               	movf	(efgtoa@h+1)^(0+128),w
 11005     03A2  1283               	bcf	3,5	;RP0=0, select bank0
 11006     03A3  1303               	bcf	3,6	;RP1=0, select bank0
 11007     03A4  00BA               	movwf	___flsub@b+1
 11008     03A5  1683               	bsf	3,5	;RP0=1, select bank1
 11009     03A6  1303               	bcf	3,6	;RP1=0, select bank1
 11010     03A7  0839               	movf	efgtoa@h^(0+128),w
 11011     03A8  1283               	bcf	3,5	;RP0=0, select bank0
 11012     03A9  1303               	bcf	3,6	;RP1=0, select bank0
 11013     03AA  00B9               	movwf	___flsub@b
 11014     03AB  160A  158A  2209  120A  118A  	fcall	___flsub
 11015     03B0  1283               	bcf	3,5	;RP0=0, select bank0
 11016     03B1  1303               	bcf	3,6	;RP1=0, select bank0
 11017     03B2  0838               	movf	?___flsub+3,w
 11018     03B3  1683               	bsf	3,5	;RP0=1, select bank1
 11019     03B4  1303               	bcf	3,6	;RP1=0, select bank1
 11020     03B5  00BC               	movwf	(efgtoa@h+3)^(0+128)
 11021     03B6  1283               	bcf	3,5	;RP0=0, select bank0
 11022     03B7  1303               	bcf	3,6	;RP1=0, select bank0
 11023     03B8  0837               	movf	?___flsub+2,w
 11024     03B9  1683               	bsf	3,5	;RP0=1, select bank1
 11025     03BA  1303               	bcf	3,6	;RP1=0, select bank1
 11026     03BB  00BB               	movwf	(efgtoa@h+2)^(0+128)
 11027     03BC  1283               	bcf	3,5	;RP0=0, select bank0
 11028     03BD  1303               	bcf	3,6	;RP1=0, select bank0
 11029     03BE  0836               	movf	?___flsub+1,w
 11030     03BF  1683               	bsf	3,5	;RP0=1, select bank1
 11031     03C0  1303               	bcf	3,6	;RP1=0, select bank1
 11032     03C1  00BA               	movwf	(efgtoa@h+1)^(0+128)
 11033     03C2  1283               	bcf	3,5	;RP0=0, select bank0
 11034     03C3  1303               	bcf	3,6	;RP1=0, select bank0
 11035     03C4  0835               	movf	?___flsub,w
 11036     03C5  1683               	bsf	3,5	;RP0=1, select bank1
 11037     03C6  1303               	bcf	3,6	;RP1=0, select bank1
 11038     03C7  00B9               	movwf	efgtoa@h^(0+128)
 11039     03C8                     l3138:
 11040                           
 11041                           ;C:\Program Files\Microchip\xc8\v3.00\pic\sources\c99\common\doprnt.c: 740:         u.f 
      +                          = u.f/10.0;
 11042     03C8  3041               	movlw	65
 11043     03C9  1283               	bcf	3,5	;RP0=0, select bank0
 11044     03CA  1303               	bcf	3,6	;RP1=0, select bank0
 11045     03CB  00A3               	movwf	___fldiv@a+3
 11046     03CC  3020               	movlw	32
 11047     03CD  00A2               	movwf	___fldiv@a+2
 11048     03CE  3000               	movlw	0
 11049     03CF  00A1               	movwf	___fldiv@a+1
 11050     03D0  3000               	movlw	0
 11051     03D1  00A0               	movwf	___fldiv@a
 11052     03D2  1683               	bsf	3,5	;RP0=1, select bank1
 11053     03D3  1303               	bcf	3,6	;RP1=0, select bank1
 11054     03D4  084B               	movf	(efgtoa@u+3)^(0+128),w
 11055     03D5  1283               	bcf	3,5	;RP0=0, select bank0
 11056     03D6  1303               	bcf	3,6	;RP1=0, select bank0
 11057     03D7  00A7               	movwf	___fldiv@b+3
 11058     03D8  1683               	bsf	3,5	;RP0=1, select bank1
 11059     03D9  1303               	bcf	3,6	;RP1=0, select bank1
 11060     03DA  084A               	movf	(efgtoa@u+2)^(0+128),w
 11061     03DB  1283               	bcf	3,5	;RP0=0, select bank0
 11062     03DC  1303               	bcf	3,6	;RP1=0, select bank0
 11063     03DD  00A6               	movwf	___fldiv@b+2
 11064     03DE  1683               	bsf	3,5	;RP0=1, select bank1
 11065     03DF  1303               	bcf	3,6	;RP1=0, select bank1
 11066     03E0  0849               	movf	(efgtoa@u+1)^(0+128),w
 11067     03E1  1283               	bcf	3,5	;RP0=0, select bank0
 11068     03E2  1303               	bcf	3,6	;RP1=0, select bank0
 11069     03E3  00A5               	movwf	___fldiv@b+1
 11070     03E4  1683               	bsf	3,5	;RP0=1, select bank1
 11071     03E5  1303               	bcf	3,6	;RP1=0, select bank1
 11072     03E6  0848               	movf	efgtoa@u^(0+128),w
 11073     03E7  1283               	bcf	3,5	;RP0=0, select bank0
 11074     03E8  1303               	bcf	3,6	;RP1=0, select bank0
 11075     03E9  00A4               	movwf	___fldiv@b
 11076     03EA  120A  158A  2098  120A  118A  	fcall	___fldiv
 11077     03EF  1283               	bcf	3,5	;RP0=0, select bank0
 11078     03F0  1303               	bcf	3,6	;RP1=0, select bank0
 11079     03F1  0823               	movf	?___fldiv+3,w
 11080     03F2  1683               	bsf	3,5	;RP0=1, select bank1
 11081     03F3  1303               	bcf	3,6	;RP1=0, select bank1
 11082     03F4  00CB               	movwf	(efgtoa@u+3)^(0+128)
 11083     03F5  1283               	bcf	3,5	;RP0=0, select bank0
 11084     03F6  1303               	bcf	3,6	;RP1=0, select bank0
 11085     03F7  0822               	movf	?___fldiv+2,w
 11086     03F8  1683               	bsf	3,5	;RP0=1, select bank1
 11087     03F9  1303               	bcf	3,6	;RP1=0, select bank1
 11088     03FA  00CA               	movwf	(efgtoa@u+2)^(0+128)
 11089     03FB  1283               	bcf	3,5	;RP0=0, select bank0
 11090     03FC  1303               	bcf	3,6	;RP1=0, select bank0
 11091     03FD  0821               	movf	?___fldiv+1,w
 11092     03FE  1683               	bsf	3,5	;RP0=1, select bank1
 11093     03FF  1303               	bcf	3,6	;RP1=0, select bank1
 11094     0400  00C9               	movwf	(efgtoa@u+1)^(0+128)
 11095     0401  1283               	bcf	3,5	;RP0=0, select bank0
 11096     0402  1303               	bcf	3,6	;RP1=0, select bank0
 11097     0403  0820               	movf	?___fldiv,w
 11098     0404  1683               	bsf	3,5	;RP0=1, select bank1
 11099     0405  1303               	bcf	3,6	;RP1=0, select bank1
 11100     0406  00C8               	movwf	efgtoa@u^(0+128)
 11101     0407                     l3140:
 11102                           
 11103                           ;C:\Program Files\Microchip\xc8\v3.00\pic\sources\c99\common\doprnt.c: 741:         ++i;
 11104     0407  3001               	movlw	1
 11105     0408  07B7               	addwf	efgtoa@i^(0+128),f
 11106     0409  1803               	skipnc
 11107     040A  0AB8               	incf	(efgtoa@i+1)^(0+128),f
 11108     040B  3000               	movlw	0
 11109     040C  07B8               	addwf	(efgtoa@i+1)^(0+128),f
 11110     040D                     l3142:
 11111                           
 11112                           ;C:\Program Files\Microchip\xc8\v3.00\pic\sources\c99\common\doprnt.c: 736:     while (i
      +                           < m) {
 11113     040D  0838               	movf	(efgtoa@i+1)^(0+128),w
 11114     040E  3A80               	xorlw	128
 11115     040F  1283               	bcf	3,5	;RP0=0, select bank0
 11116     0410  1303               	bcf	3,6	;RP1=0, select bank0
 11117     0411  00D5               	movwf	??_efgtoa
 11118     0412  1683               	bsf	3,5	;RP0=1, select bank1
 11119     0413  1303               	bcf	3,6	;RP1=0, select bank1
 11120     0414  082E               	movf	(efgtoa@m+1)^(0+128),w
 11121     0415  3A80               	xorlw	128
 11122     0416  1283               	bcf	3,5	;RP0=0, select bank0
 11123     0417  1303               	bcf	3,6	;RP1=0, select bank0
 11124     0418  0255               	subwf	??_efgtoa,w
 11125     0419  1D03               	skipz
 11126     041A  2C1F               	goto	u5105
 11127     041B  1683               	bsf	3,5	;RP0=1, select bank1
 11128     041C  1303               	bcf	3,6	;RP1=0, select bank1
 11129     041D  082D               	movf	efgtoa@m^(0+128),w
 11130     041E  0237               	subwf	efgtoa@i^(0+128),w
 11131     041F                     u5105:
 11132     041F  1C03               	skipc
 11133     0420  2C22               	goto	u5101
 11134     0421  2C23               	goto	u5100
 11135     0422                     u5101:
 11136     0422  2AE7               	goto	l3132
 11137     0423                     u5100:
 11138     0423                     l3144:
 11139                           
 11140                           ;C:\Program Files\Microchip\xc8\v3.00\pic\sources\c99\common\doprnt.c: 745:     l = u.f*
      +                          5.0;
 11141     0423  3040               	movlw	64
 11142     0424  1283               	bcf	3,5	;RP0=0, select bank0
 11143     0425  1303               	bcf	3,6	;RP1=0, select bank0
 11144     0426  00A3               	movwf	___flmul@b+3
 11145     0427  30A0               	movlw	160
 11146     0428  00A2               	movwf	___flmul@b+2
 11147     0429  3000               	movlw	0
 11148     042A  00A1               	movwf	___flmul@b+1
 11149     042B  3000               	movlw	0
 11150     042C  00A0               	movwf	___flmul@b
 11151     042D  1683               	bsf	3,5	;RP0=1, select bank1
 11152     042E  1303               	bcf	3,6	;RP1=0, select bank1
 11153     042F  084B               	movf	(efgtoa@u+3)^(0+128),w
 11154     0430  1283               	bcf	3,5	;RP0=0, select bank0
 11155     0431  1303               	bcf	3,6	;RP1=0, select bank0
 11156     0432  00A7               	movwf	___flmul@a+3
 11157     0433  1683               	bsf	3,5	;RP0=1, select bank1
 11158     0434  1303               	bcf	3,6	;RP1=0, select bank1
 11159     0435  084A               	movf	(efgtoa@u+2)^(0+128),w
 11160     0436  1283               	bcf	3,5	;RP0=0, select bank0
 11161     0437  1303               	bcf	3,6	;RP1=0, select bank0
 11162     0438  00A6               	movwf	___flmul@a+2
 11163     0439  1683               	bsf	3,5	;RP0=1, select bank1
 11164     043A  1303               	bcf	3,6	;RP1=0, select bank1
 11165     043B  0849               	movf	(efgtoa@u+1)^(0+128),w
 11166     043C  1283               	bcf	3,5	;RP0=0, select bank0
 11167     043D  1303               	bcf	3,6	;RP1=0, select bank0
 11168     043E  00A5               	movwf	___flmul@a+1
 11169     043F  1683               	bsf	3,5	;RP0=1, select bank1
 11170     0440  1303               	bcf	3,6	;RP1=0, select bank1
 11171     0441  0848               	movf	efgtoa@u^(0+128),w
 11172     0442  1283               	bcf	3,5	;RP0=0, select bank0
 11173     0443  1303               	bcf	3,6	;RP1=0, select bank0
 11174     0444  00A4               	movwf	___flmul@a
 11175     0445  120A  158A  24BE  120A  118A  	fcall	___flmul
 11176     044A  1283               	bcf	3,5	;RP0=0, select bank0
 11177     044B  1303               	bcf	3,6	;RP1=0, select bank0
 11178     044C  0823               	movf	?___flmul+3,w
 11179     044D  1683               	bsf	3,5	;RP0=1, select bank1
 11180     044E  1303               	bcf	3,6	;RP1=0, select bank1
 11181     044F  00C0               	movwf	(efgtoa@l+3)^(0+128)
 11182     0450  1283               	bcf	3,5	;RP0=0, select bank0
 11183     0451  1303               	bcf	3,6	;RP1=0, select bank0
 11184     0452  0822               	movf	?___flmul+2,w
 11185     0453  1683               	bsf	3,5	;RP0=1, select bank1
 11186     0454  1303               	bcf	3,6	;RP1=0, select bank1
 11187     0455  00BF               	movwf	(efgtoa@l+2)^(0+128)
 11188     0456  1283               	bcf	3,5	;RP0=0, select bank0
 11189     0457  1303               	bcf	3,6	;RP1=0, select bank0
 11190     0458  0821               	movf	?___flmul+1,w
 11191     0459  1683               	bsf	3,5	;RP0=1, select bank1
 11192     045A  1303               	bcf	3,6	;RP1=0, select bank1
 11193     045B  00BE               	movwf	(efgtoa@l+1)^(0+128)
 11194     045C  1283               	bcf	3,5	;RP0=0, select bank0
 11195     045D  1303               	bcf	3,6	;RP1=0, select bank0
 11196     045E  0820               	movf	?___flmul,w
 11197     045F  1683               	bsf	3,5	;RP0=1, select bank1
 11198     0460  1303               	bcf	3,6	;RP1=0, select bank1
 11199     0461  00BD               	movwf	efgtoa@l^(0+128)
 11200     0462                     l3146:
 11201                           
 11202                           ;C:\Program Files\Microchip\xc8\v3.00\pic\sources\c99\common\doprnt.c: 746:     if (h < 
      +                          l) {
 11203     0462  083C               	movf	(efgtoa@h+3)^(0+128),w
 11204     0463  1283               	bcf	3,5	;RP0=0, select bank0
 11205     0464  1303               	bcf	3,6	;RP1=0, select bank0
 11206     0465  00B8               	movwf	___flge@ff1+3
 11207     0466  1683               	bsf	3,5	;RP0=1, select bank1
 11208     0467  1303               	bcf	3,6	;RP1=0, select bank1
 11209     0468  083B               	movf	(efgtoa@h+2)^(0+128),w
 11210     0469  1283               	bcf	3,5	;RP0=0, select bank0
 11211     046A  1303               	bcf	3,6	;RP1=0, select bank0
 11212     046B  00B7               	movwf	___flge@ff1+2
 11213     046C  1683               	bsf	3,5	;RP0=1, select bank1
 11214     046D  1303               	bcf	3,6	;RP1=0, select bank1
 11215     046E  083A               	movf	(efgtoa@h+1)^(0+128),w
 11216     046F  1283               	bcf	3,5	;RP0=0, select bank0
 11217     0470  1303               	bcf	3,6	;RP1=0, select bank0
 11218     0471  00B6               	movwf	___flge@ff1+1
 11219     0472  1683               	bsf	3,5	;RP0=1, select bank1
 11220     0473  1303               	bcf	3,6	;RP1=0, select bank1
 11221     0474  0839               	movf	efgtoa@h^(0+128),w
 11222     0475  1283               	bcf	3,5	;RP0=0, select bank0
 11223     0476  1303               	bcf	3,6	;RP1=0, select bank0
 11224     0477  00B5               	movwf	___flge@ff1
 11225     0478  1683               	bsf	3,5	;RP0=1, select bank1
 11226     0479  1303               	bcf	3,6	;RP1=0, select bank1
 11227     047A  0840               	movf	(efgtoa@l+3)^(0+128),w
 11228     047B  1283               	bcf	3,5	;RP0=0, select bank0
 11229     047C  1303               	bcf	3,6	;RP1=0, select bank0
 11230     047D  00BC               	movwf	___flge@ff2+3
 11231     047E  1683               	bsf	3,5	;RP0=1, select bank1
 11232     047F  1303               	bcf	3,6	;RP1=0, select bank1
 11233     0480  083F               	movf	(efgtoa@l+2)^(0+128),w
 11234     0481  1283               	bcf	3,5	;RP0=0, select bank0
 11235     0482  1303               	bcf	3,6	;RP1=0, select bank0
 11236     0483  00BB               	movwf	___flge@ff2+2
 11237     0484  1683               	bsf	3,5	;RP0=1, select bank1
 11238     0485  1303               	bcf	3,6	;RP1=0, select bank1
 11239     0486  083E               	movf	(efgtoa@l+1)^(0+128),w
 11240     0487  1283               	bcf	3,5	;RP0=0, select bank0
 11241     0488  1303               	bcf	3,6	;RP1=0, select bank0
 11242     0489  00BA               	movwf	___flge@ff2+1
 11243     048A  1683               	bsf	3,5	;RP0=1, select bank1
 11244     048B  1303               	bcf	3,6	;RP1=0, select bank1
 11245     048C  083D               	movf	efgtoa@l^(0+128),w
 11246     048D  1283               	bcf	3,5	;RP0=0, select bank0
 11247     048E  1303               	bcf	3,6	;RP1=0, select bank0
 11248     048F  00B9               	movwf	___flge@ff2
 11249     0490  160A  158A  26B8  120A  118A  	fcall	___flge
 11250     0495  1803               	btfsc	3,0
 11251     0496  2C98               	goto	u5111
 11252     0497  2C99               	goto	u5110
 11253     0498                     u5111:
 11254     0498  2CA4               	goto	l3150
 11255     0499                     u5110:
 11256     0499                     l3148:
 11257                           
 11258                           ;C:\Program Files\Microchip\xc8\v3.00\pic\sources\c99\common\doprnt.c: 747:         l = 
      +                          0.0;
 11259     0499  3000               	movlw	0
 11260     049A  1683               	bsf	3,5	;RP0=1, select bank1
 11261     049B  1303               	bcf	3,6	;RP1=0, select bank1
 11262     049C  00C0               	movwf	(efgtoa@l+3)^(0+128)
 11263     049D  3000               	movlw	0
 11264     049E  00BF               	movwf	(efgtoa@l+2)^(0+128)
 11265     049F  3000               	movlw	0
 11266     04A0  00BE               	movwf	(efgtoa@l+1)^(0+128)
 11267     04A1  3000               	movlw	0
 11268     04A2  00BD               	movwf	efgtoa@l^(0+128)
 11269                           
 11270                           ;C:\Program Files\Microchip\xc8\v3.00\pic\sources\c99\common\doprnt.c: 748:     } else {
 11271     04A3  2CCD               	goto	l3156
 11272     04A4                     l3150:
 11273                           
 11274                           ;C:\Program Files\Microchip\xc8\v3.00\pic\sources\c99\common\doprnt.c: 750:         if (
      +                          (h == l) && !(d % 2)) {
 11275     04A4  1683               	bsf	3,5	;RP0=1, select bank1
 11276     04A5  1303               	bcf	3,6	;RP1=0, select bank1
 11277     04A6  083C               	movf	(efgtoa@h+3)^(0+128),w
 11278     04A7  00F3               	movwf	___fleq@ff1+3
 11279     04A8  083B               	movf	(efgtoa@h+2)^(0+128),w
 11280     04A9  00F2               	movwf	___fleq@ff1+2
 11281     04AA  083A               	movf	(efgtoa@h+1)^(0+128),w
 11282     04AB  00F1               	movwf	___fleq@ff1+1
 11283     04AC  0839               	movf	efgtoa@h^(0+128),w
 11284     04AD  00F0               	movwf	___fleq@ff1
 11285     04AE  0840               	movf	(efgtoa@l+3)^(0+128),w
 11286     04AF  00F7               	movwf	___fleq@ff2+3
 11287     04B0  083F               	movf	(efgtoa@l+2)^(0+128),w
 11288     04B1  00F6               	movwf	___fleq@ff2+2
 11289     04B2  083E               	movf	(efgtoa@l+1)^(0+128),w
 11290     04B3  00F5               	movwf	___fleq@ff2+1
 11291     04B4  083D               	movf	efgtoa@l^(0+128),w
 11292     04B5  00F4               	movwf	___fleq@ff2
 11293     04B6  160A  158A  242F  120A  118A  	fcall	___fleq
 11294     04BB  1C03               	btfss	3,0
 11295     04BC  2CBE               	goto	u5121
 11296     04BD  2CBF               	goto	u5120
 11297     04BE                     u5121:
 11298     04BE  2CCD               	goto	l3156
 11299     04BF                     u5120:
 11300     04BF                     l3152:
 11301     04BF  1683               	bsf	3,5	;RP0=1, select bank1
 11302     04C0  1303               	bcf	3,6	;RP1=0, select bank1
 11303     04C1  182B               	btfsc	efgtoa@d^(0+128),0
 11304     04C2  2CC4               	goto	u5131
 11305     04C3  2CC5               	goto	u5130
 11306     04C4                     u5131:
 11307     04C4  2CCD               	goto	l3156
 11308     04C5                     u5130:
 11309     04C5                     l3154:
 11310                           
 11311                           ;C:\Program Files\Microchip\xc8\v3.00\pic\sources\c99\common\doprnt.c: 751:             
      +                          l = 0.0;
 11312     04C5  3000               	movlw	0
 11313     04C6  00C0               	movwf	(efgtoa@l+3)^(0+128)
 11314     04C7  3000               	movlw	0
 11315     04C8  00BF               	movwf	(efgtoa@l+2)^(0+128)
 11316     04C9  3000               	movlw	0
 11317     04CA  00BE               	movwf	(efgtoa@l+1)^(0+128)
 11318     04CB  3000               	movlw	0
 11319     04CC  00BD               	movwf	efgtoa@l^(0+128)
 11320     04CD                     l3156:
 11321                           
 11322                           ;C:\Program Files\Microchip\xc8\v3.00\pic\sources\c99\common\doprnt.c: 756:     h = g.f 
      +                          + l;
 11323     04CD  1683               	bsf	3,5	;RP0=1, select bank1
 11324     04CE  1303               	bcf	3,6	;RP1=0, select bank1
 11325     04CF  0840               	movf	(efgtoa@l+3)^(0+128),w
 11326     04D0  00F3               	movwf	___fladd@b+3
 11327     04D1  083F               	movf	(efgtoa@l+2)^(0+128),w
 11328     04D2  00F2               	movwf	___fladd@b+2
 11329     04D3  083E               	movf	(efgtoa@l+1)^(0+128),w
 11330     04D4  00F1               	movwf	___fladd@b+1
 11331     04D5  083D               	movf	efgtoa@l^(0+128),w
 11332     04D6  00F0               	movwf	___fladd@b
 11333     04D7  0847               	movf	(efgtoa@g+3)^(0+128),w
 11334     04D8  00F7               	movwf	___fladd@a+3
 11335     04D9  0846               	movf	(efgtoa@g+2)^(0+128),w
 11336     04DA  00F6               	movwf	___fladd@a+2
 11337     04DB  0845               	movf	(efgtoa@g+1)^(0+128),w
 11338     04DC  00F5               	movwf	___fladd@a+1
 11339     04DD  0844               	movf	efgtoa@g^(0+128),w
 11340     04DE  00F4               	movwf	___fladd@a
 11341     04DF  120A  158A  2262  120A  118A  	fcall	___fladd
 11342     04E4  0873               	movf	?___fladd+3,w
 11343     04E5  1683               	bsf	3,5	;RP0=1, select bank1
 11344     04E6  1303               	bcf	3,6	;RP1=0, select bank1
 11345     04E7  00BC               	movwf	(efgtoa@h+3)^(0+128)
 11346     04E8  0872               	movf	?___fladd+2,w
 11347     04E9  00BB               	movwf	(efgtoa@h+2)^(0+128)
 11348     04EA  0871               	movf	?___fladd+1,w
 11349     04EB  00BA               	movwf	(efgtoa@h+1)^(0+128)
 11350     04EC  0870               	movf	?___fladd,w
 11351     04ED  00B9               	movwf	efgtoa@h^(0+128)
 11352     04EE                     l3158:
 11353                           
 11354                           ;C:\Program Files\Microchip\xc8\v3.00\pic\sources\c99\common\doprnt.c: 758:  if (h >= (o
      +                          u.f*10.0)) {
 11355     04EE  083C               	movf	(efgtoa@h+3)^(0+128),w
 11356     04EF  1283               	bcf	3,5	;RP0=0, select bank0
 11357     04F0  1303               	bcf	3,6	;RP1=0, select bank0
 11358     04F1  00B8               	movwf	___flge@ff1+3
 11359     04F2  1683               	bsf	3,5	;RP0=1, select bank1
 11360     04F3  1303               	bcf	3,6	;RP1=0, select bank1
 11361     04F4  083B               	movf	(efgtoa@h+2)^(0+128),w
 11362     04F5  1283               	bcf	3,5	;RP0=0, select bank0
 11363     04F6  1303               	bcf	3,6	;RP1=0, select bank0
 11364     04F7  00B7               	movwf	___flge@ff1+2
 11365     04F8  1683               	bsf	3,5	;RP0=1, select bank1
 11366     04F9  1303               	bcf	3,6	;RP1=0, select bank1
 11367     04FA  083A               	movf	(efgtoa@h+1)^(0+128),w
 11368     04FB  1283               	bcf	3,5	;RP0=0, select bank0
 11369     04FC  1303               	bcf	3,6	;RP1=0, select bank0
 11370     04FD  00B6               	movwf	___flge@ff1+1
 11371     04FE  1683               	bsf	3,5	;RP0=1, select bank1
 11372     04FF  1303               	bcf	3,6	;RP1=0, select bank1
 11373     0500  0839               	movf	efgtoa@h^(0+128),w
 11374     0501  1283               	bcf	3,5	;RP0=0, select bank0
 11375     0502  1303               	bcf	3,6	;RP1=0, select bank0
 11376     0503  00B5               	movwf	___flge@ff1
 11377     0504  3041               	movlw	65
 11378     0505  00A3               	movwf	___flmul@b+3
 11379     0506  3020               	movlw	32
 11380     0507  00A2               	movwf	___flmul@b+2
 11381     0508  3000               	movlw	0
 11382     0509  00A1               	movwf	___flmul@b+1
 11383     050A  3000               	movlw	0
 11384     050B  00A0               	movwf	___flmul@b
 11385     050C  1683               	bsf	3,5	;RP0=1, select bank1
 11386     050D  1303               	bcf	3,6	;RP1=0, select bank1
 11387     050E  0836               	movf	(efgtoa@ou+3)^(0+128),w
 11388     050F  1283               	bcf	3,5	;RP0=0, select bank0
 11389     0510  1303               	bcf	3,6	;RP1=0, select bank0
 11390     0511  00A7               	movwf	___flmul@a+3
 11391     0512  1683               	bsf	3,5	;RP0=1, select bank1
 11392     0513  1303               	bcf	3,6	;RP1=0, select bank1
 11393     0514  0835               	movf	(efgtoa@ou+2)^(0+128),w
 11394     0515  1283               	bcf	3,5	;RP0=0, select bank0
 11395     0516  1303               	bcf	3,6	;RP1=0, select bank0
 11396     0517  00A6               	movwf	___flmul@a+2
 11397     0518  1683               	bsf	3,5	;RP0=1, select bank1
 11398     0519  1303               	bcf	3,6	;RP1=0, select bank1
 11399     051A  0834               	movf	(efgtoa@ou+1)^(0+128),w
 11400     051B  1283               	bcf	3,5	;RP0=0, select bank0
 11401     051C  1303               	bcf	3,6	;RP1=0, select bank0
 11402     051D  00A5               	movwf	___flmul@a+1
 11403     051E  1683               	bsf	3,5	;RP0=1, select bank1
 11404     051F  1303               	bcf	3,6	;RP1=0, select bank1
 11405     0520  0833               	movf	efgtoa@ou^(0+128),w
 11406     0521  1283               	bcf	3,5	;RP0=0, select bank0
 11407     0522  1303               	bcf	3,6	;RP1=0, select bank0
 11408     0523  00A4               	movwf	___flmul@a
 11409     0524  120A  158A  24BE  120A  118A  	fcall	___flmul
 11410     0529  1283               	bcf	3,5	;RP0=0, select bank0
 11411     052A  1303               	bcf	3,6	;RP1=0, select bank0
 11412     052B  0823               	movf	?___flmul+3,w
 11413     052C  00BC               	movwf	___flge@ff2+3
 11414     052D  0822               	movf	?___flmul+2,w
 11415     052E  00BB               	movwf	___flge@ff2+2
 11416     052F  0821               	movf	?___flmul+1,w
 11417     0530  00BA               	movwf	___flge@ff2+1
 11418     0531  0820               	movf	?___flmul,w
 11419     0532  00B9               	movwf	___flge@ff2
 11420     0533  160A  158A  26B8  120A  118A  	fcall	___flge
 11421     0538  1C03               	btfss	3,0
 11422     0539  2D3B               	goto	u5141
 11423     053A  2D3C               	goto	u5140
 11424     053B                     u5141:
 11425     053B  2D8F               	goto	l772
 11426     053C                     u5140:
 11427     053C                     l3160:
 11428                           
 11429                           ;C:\Program Files\Microchip\xc8\v3.00\pic\sources\c99\common\doprnt.c: 759:   e++;
 11430     053C  3001               	movlw	1
 11431     053D  1683               	bsf	3,5	;RP0=1, select bank1
 11432     053E  1303               	bcf	3,6	;RP1=0, select bank1
 11433     053F  07AF               	addwf	efgtoa@e^(0+128),f
 11434     0540  1803               	skipnc
 11435     0541  0AB0               	incf	(efgtoa@e+1)^(0+128),f
 11436     0542  3000               	movlw	0
 11437     0543  07B0               	addwf	(efgtoa@e+1)^(0+128),f
 11438     0544                     l3162:
 11439                           
 11440                           ;C:\Program Files\Microchip\xc8\v3.00\pic\sources\c99\common\doprnt.c: 760:   ou.f *= 10
      +                          .0;
 11441     0544  3041               	movlw	65
 11442     0545  1283               	bcf	3,5	;RP0=0, select bank0
 11443     0546  1303               	bcf	3,6	;RP1=0, select bank0
 11444     0547  00A3               	movwf	___flmul@b+3
 11445     0548  3020               	movlw	32
 11446     0549  00A2               	movwf	___flmul@b+2
 11447     054A  3000               	movlw	0
 11448     054B  00A1               	movwf	___flmul@b+1
 11449     054C  3000               	movlw	0
 11450     054D  00A0               	movwf	___flmul@b
 11451     054E  1683               	bsf	3,5	;RP0=1, select bank1
 11452     054F  1303               	bcf	3,6	;RP1=0, select bank1
 11453     0550  0836               	movf	(efgtoa@ou+3)^(0+128),w
 11454     0551  1283               	bcf	3,5	;RP0=0, select bank0
 11455     0552  1303               	bcf	3,6	;RP1=0, select bank0
 11456     0553  00A7               	movwf	___flmul@a+3
 11457     0554  1683               	bsf	3,5	;RP0=1, select bank1
 11458     0555  1303               	bcf	3,6	;RP1=0, select bank1
 11459     0556  0835               	movf	(efgtoa@ou+2)^(0+128),w
 11460     0557  1283               	bcf	3,5	;RP0=0, select bank0
 11461     0558  1303               	bcf	3,6	;RP1=0, select bank0
 11462     0559  00A6               	movwf	___flmul@a+2
 11463     055A  1683               	bsf	3,5	;RP0=1, select bank1
 11464     055B  1303               	bcf	3,6	;RP1=0, select bank1
 11465     055C  0834               	movf	(efgtoa@ou+1)^(0+128),w
 11466     055D  1283               	bcf	3,5	;RP0=0, select bank0
 11467     055E  1303               	bcf	3,6	;RP1=0, select bank0
 11468     055F  00A5               	movwf	___flmul@a+1
 11469     0560  1683               	bsf	3,5	;RP0=1, select bank1
 11470     0561  1303               	bcf	3,6	;RP1=0, select bank1
 11471     0562  0833               	movf	efgtoa@ou^(0+128),w
 11472     0563  1283               	bcf	3,5	;RP0=0, select bank0
 11473     0564  1303               	bcf	3,6	;RP1=0, select bank0
 11474     0565  00A4               	movwf	___flmul@a
 11475     0566  120A  158A  24BE  120A  118A  	fcall	___flmul
 11476     056B  1283               	bcf	3,5	;RP0=0, select bank0
 11477     056C  1303               	bcf	3,6	;RP1=0, select bank0
 11478     056D  0823               	movf	?___flmul+3,w
 11479     056E  1683               	bsf	3,5	;RP0=1, select bank1
 11480     056F  1303               	bcf	3,6	;RP1=0, select bank1
 11481     0570  00B6               	movwf	(efgtoa@ou+3)^(0+128)
 11482     0571  1283               	bcf	3,5	;RP0=0, select bank0
 11483     0572  1303               	bcf	3,6	;RP1=0, select bank0
 11484     0573  0822               	movf	?___flmul+2,w
 11485     0574  1683               	bsf	3,5	;RP0=1, select bank1
 11486     0575  1303               	bcf	3,6	;RP1=0, select bank1
 11487     0576  00B5               	movwf	(efgtoa@ou+2)^(0+128)
 11488     0577  1283               	bcf	3,5	;RP0=0, select bank0
 11489     0578  1303               	bcf	3,6	;RP1=0, select bank0
 11490     0579  0821               	movf	?___flmul+1,w
 11491     057A  1683               	bsf	3,5	;RP0=1, select bank1
 11492     057B  1303               	bcf	3,6	;RP1=0, select bank1
 11493     057C  00B4               	movwf	(efgtoa@ou+1)^(0+128)
 11494     057D  1283               	bcf	3,5	;RP0=0, select bank0
 11495     057E  1303               	bcf	3,6	;RP1=0, select bank0
 11496     057F  0820               	movf	?___flmul,w
 11497     0580  1683               	bsf	3,5	;RP0=1, select bank1
 11498     0581  1303               	bcf	3,6	;RP1=0, select bank1
 11499     0582  00B3               	movwf	efgtoa@ou^(0+128)
 11500     0583                     l3164:
 11501                           
 11502                           ;C:\Program Files\Microchip\xc8\v3.00\pic\sources\c99\common\doprnt.c: 762:   if (nmode 
      +                          == 'f') {
 11503     0583  3066               	movlw	102
 11504     0584  062A               	xorwf	efgtoa@nmode^(0+128),w
 11505     0585  1D03               	btfss	3,2
 11506     0586  2D88               	goto	u5151
 11507     0587  2D89               	goto	u5150
 11508     0588                     u5151:
 11509     0588  2D8F               	goto	l772
 11510     0589                     u5150:
 11511     0589                     l3166:
 11512                           
 11513                           ;C:\Program Files\Microchip\xc8\v3.00\pic\sources\c99\common\doprnt.c: 764:    m++;
 11514     0589  3001               	movlw	1
 11515     058A  07AD               	addwf	efgtoa@m^(0+128),f
 11516     058B  1803               	skipnc
 11517     058C  0AAE               	incf	(efgtoa@m+1)^(0+128),f
 11518     058D  3000               	movlw	0
 11519     058E  07AE               	addwf	(efgtoa@m+1)^(0+128),f
 11520     058F                     l772:	
 11521                           ;C:\Program Files\Microchip\xc8\v3.00\pic\sources\c99\common\doprnt.c: 767:  }
 11522                           
 11523                           
 11524                           ;C:\Program Files\Microchip\xc8\v3.00\pic\sources\c99\common\doprnt.c: 770:     u = ou;
 11525     058F  1683               	bsf	3,5	;RP0=1, select bank1
 11526     0590  1303               	bcf	3,6	;RP1=0, select bank1
 11527     0591  0836               	movf	(efgtoa@ou+3)^(0+128),w
 11528     0592  00CB               	movwf	(efgtoa@u+3)^(0+128)
 11529     0593  0835               	movf	(efgtoa@ou+2)^(0+128),w
 11530     0594  00CA               	movwf	(efgtoa@u+2)^(0+128)
 11531     0595  0834               	movf	(efgtoa@ou+1)^(0+128),w
 11532     0596  00C9               	movwf	(efgtoa@u+1)^(0+128)
 11533     0597  0833               	movf	efgtoa@ou^(0+128),w
 11534     0598  00C8               	movwf	efgtoa@u^(0+128)
 11535                           
 11536                           ;C:\Program Files\Microchip\xc8\v3.00\pic\sources\c99\common\doprnt.c: 774:  ne = e;
 11537     0599  0830               	movf	(efgtoa@e+1)^(0+128),w
 11538     059A  00A1               	movwf	(efgtoa@ne+1)^(0+128)
 11539     059B  082F               	movf	efgtoa@e^(0+128),w
 11540     059C  00A0               	movwf	efgtoa@ne^(0+128)
 11541     059D                     l3168:
 11542                           
 11543                           ;C:\Program Files\Microchip\xc8\v3.00\pic\sources\c99\common\doprnt.c: 776:     pp = 0;
 11544     059D  01A8               	clrf	efgtoa@pp^(0+128)
 11545     059E                     l3170:
 11546                           
 11547                           ;C:\Program Files\Microchip\xc8\v3.00\pic\sources\c99\common\doprnt.c: 777:     t = 0;
 11548     059E  01A4               	clrf	efgtoa@t^(0+128)
 11549     059F  01A5               	clrf	(efgtoa@t+1)^(0+128)
 11550     05A0                     l3172:
 11551                           
 11552                           ;C:\Program Files\Microchip\xc8\v3.00\pic\sources\c99\common\doprnt.c: 778:     i = 0;
 11553     05A0  01B7               	clrf	efgtoa@i^(0+128)
 11554     05A1  01B8               	clrf	(efgtoa@i+1)^(0+128)
 11555                           
 11556                           ;C:\Program Files\Microchip\xc8\v3.00\pic\sources\c99\common\doprnt.c: 779:     while ((
      +                          i < m) && (n < (80 - 5))) {
 11557     05A2  2F41               	goto	l3216
 11558     05A3                     l3174:
 11559                           
 11560                           ;C:\Program Files\Microchip\xc8\v3.00\pic\sources\c99\common\doprnt.c: 780:         l = 
      +                          floorf(h/u.f);
 11561     05A3  1683               	bsf	3,5	;RP0=1, select bank1
 11562     05A4  1303               	bcf	3,6	;RP1=0, select bank1
 11563     05A5  084B               	movf	(efgtoa@u+3)^(0+128),w
 11564     05A6  1283               	bcf	3,5	;RP0=0, select bank0
 11565     05A7  1303               	bcf	3,6	;RP1=0, select bank0
 11566     05A8  00A3               	movwf	___fldiv@a+3
 11567     05A9  1683               	bsf	3,5	;RP0=1, select bank1
 11568     05AA  1303               	bcf	3,6	;RP1=0, select bank1
 11569     05AB  084A               	movf	(efgtoa@u+2)^(0+128),w
 11570     05AC  1283               	bcf	3,5	;RP0=0, select bank0
 11571     05AD  1303               	bcf	3,6	;RP1=0, select bank0
 11572     05AE  00A2               	movwf	___fldiv@a+2
 11573     05AF  1683               	bsf	3,5	;RP0=1, select bank1
 11574     05B0  1303               	bcf	3,6	;RP1=0, select bank1
 11575     05B1  0849               	movf	(efgtoa@u+1)^(0+128),w
 11576     05B2  1283               	bcf	3,5	;RP0=0, select bank0
 11577     05B3  1303               	bcf	3,6	;RP1=0, select bank0
 11578     05B4  00A1               	movwf	___fldiv@a+1
 11579     05B5  1683               	bsf	3,5	;RP0=1, select bank1
 11580     05B6  1303               	bcf	3,6	;RP1=0, select bank1
 11581     05B7  0848               	movf	efgtoa@u^(0+128),w
 11582     05B8  1283               	bcf	3,5	;RP0=0, select bank0
 11583     05B9  1303               	bcf	3,6	;RP1=0, select bank0
 11584     05BA  00A0               	movwf	___fldiv@a
 11585     05BB  1683               	bsf	3,5	;RP0=1, select bank1
 11586     05BC  1303               	bcf	3,6	;RP1=0, select bank1
 11587     05BD  083C               	movf	(efgtoa@h+3)^(0+128),w
 11588     05BE  1283               	bcf	3,5	;RP0=0, select bank0
 11589     05BF  1303               	bcf	3,6	;RP1=0, select bank0
 11590     05C0  00A7               	movwf	___fldiv@b+3
 11591     05C1  1683               	bsf	3,5	;RP0=1, select bank1
 11592     05C2  1303               	bcf	3,6	;RP1=0, select bank1
 11593     05C3  083B               	movf	(efgtoa@h+2)^(0+128),w
 11594     05C4  1283               	bcf	3,5	;RP0=0, select bank0
 11595     05C5  1303               	bcf	3,6	;RP1=0, select bank0
 11596     05C6  00A6               	movwf	___fldiv@b+2
 11597     05C7  1683               	bsf	3,5	;RP0=1, select bank1
 11598     05C8  1303               	bcf	3,6	;RP1=0, select bank1
 11599     05C9  083A               	movf	(efgtoa@h+1)^(0+128),w
 11600     05CA  1283               	bcf	3,5	;RP0=0, select bank0
 11601     05CB  1303               	bcf	3,6	;RP1=0, select bank0
 11602     05CC  00A5               	movwf	___fldiv@b+1
 11603     05CD  1683               	bsf	3,5	;RP0=1, select bank1
 11604     05CE  1303               	bcf	3,6	;RP1=0, select bank1
 11605     05CF  0839               	movf	efgtoa@h^(0+128),w
 11606     05D0  1283               	bcf	3,5	;RP0=0, select bank0
 11607     05D1  1303               	bcf	3,6	;RP1=0, select bank0
 11608     05D2  00A4               	movwf	___fldiv@b
 11609     05D3  120A  158A  2098  120A  118A  	fcall	___fldiv
 11610     05D8  1283               	bcf	3,5	;RP0=0, select bank0
 11611     05D9  1303               	bcf	3,6	;RP1=0, select bank0
 11612     05DA  0823               	movf	?___fldiv+3,w
 11613     05DB  00BD               	movwf	floorf@x+3
 11614     05DC  0822               	movf	?___fldiv+2,w
 11615     05DD  00BC               	movwf	floorf@x+2
 11616     05DE  0821               	movf	?___fldiv+1,w
 11617     05DF  00BB               	movwf	floorf@x+1
 11618     05E0  0820               	movf	?___fldiv,w
 11619     05E1  00BA               	movwf	floorf@x
 11620     05E2  160A  118A  2303  120A  118A  	fcall	_floorf
 11621     05E7  1283               	bcf	3,5	;RP0=0, select bank0
 11622     05E8  1303               	bcf	3,6	;RP1=0, select bank0
 11623     05E9  083D               	movf	?_floorf+3,w
 11624     05EA  1683               	bsf	3,5	;RP0=1, select bank1
 11625     05EB  1303               	bcf	3,6	;RP1=0, select bank1
 11626     05EC  00C0               	movwf	(efgtoa@l+3)^(0+128)
 11627     05ED  1283               	bcf	3,5	;RP0=0, select bank0
 11628     05EE  1303               	bcf	3,6	;RP1=0, select bank0
 11629     05EF  083C               	movf	?_floorf+2,w
 11630     05F0  1683               	bsf	3,5	;RP0=1, select bank1
 11631     05F1  1303               	bcf	3,6	;RP1=0, select bank1
 11632     05F2  00BF               	movwf	(efgtoa@l+2)^(0+128)
 11633     05F3  1283               	bcf	3,5	;RP0=0, select bank0
 11634     05F4  1303               	bcf	3,6	;RP1=0, select bank0
 11635     05F5  083B               	movf	?_floorf+1,w
 11636     05F6  1683               	bsf	3,5	;RP0=1, select bank1
 11637     05F7  1303               	bcf	3,6	;RP1=0, select bank1
 11638     05F8  00BE               	movwf	(efgtoa@l+1)^(0+128)
 11639     05F9  1283               	bcf	3,5	;RP0=0, select bank0
 11640     05FA  1303               	bcf	3,6	;RP1=0, select bank0
 11641     05FB  083A               	movf	?_floorf,w
 11642     05FC  1683               	bsf	3,5	;RP0=1, select bank1
 11643     05FD  1303               	bcf	3,6	;RP1=0, select bank1
 11644     05FE  00BD               	movwf	efgtoa@l^(0+128)
 11645                           
 11646                           ;C:\Program Files\Microchip\xc8\v3.00\pic\sources\c99\common\doprnt.c: 781:         d = 
      +                          (int)l > 9 ? 9 : (int)l;
 11647     05FF  0840               	movf	(efgtoa@l+3)^(0+128),w
 11648     0600  00F3               	movwf	___fltol@f1+3
 11649     0601  083F               	movf	(efgtoa@l+2)^(0+128),w
 11650     0602  00F2               	movwf	___fltol@f1+2
 11651     0603  083E               	movf	(efgtoa@l+1)^(0+128),w
 11652     0604  00F1               	movwf	___fltol@f1+1
 11653     0605  083D               	movf	efgtoa@l^(0+128),w
 11654     0606  00F0               	movwf	___fltol@f1
 11655     0607  160A  158A  247D  120A  118A  	fcall	___fltol
 11656     060C  0871               	movf	?___fltol+1,w
 11657     060D  3A80               	xorlw	128
 11658     060E  00FF               	movwf	btemp+1
 11659     060F  3080               	movlw	128
 11660     0610  027F               	subwf	btemp+1,w
 11661     0611  1D03               	skipz
 11662     0612  2E15               	goto	u5165
 11663     0613  300A               	movlw	10
 11664     0614  0270               	subwf	?___fltol,w
 11665     0615                     u5165:
 11666     0615  1803               	skipnc
 11667     0616  2E18               	goto	u5161
 11668     0617  2E19               	goto	u5160
 11669     0618                     u5161:
 11670     0618  2E2F               	goto	l3178
 11671     0619                     u5160:
 11672     0619                     l3176:
 11673     0619  1683               	bsf	3,5	;RP0=1, select bank1
 11674     061A  1303               	bcf	3,6	;RP1=0, select bank1
 11675     061B  0840               	movf	(efgtoa@l+3)^(0+128),w
 11676     061C  00F3               	movwf	___fltol@f1+3
 11677     061D  083F               	movf	(efgtoa@l+2)^(0+128),w
 11678     061E  00F2               	movwf	___fltol@f1+2
 11679     061F  083E               	movf	(efgtoa@l+1)^(0+128),w
 11680     0620  00F1               	movwf	___fltol@f1+1
 11681     0621  083D               	movf	efgtoa@l^(0+128),w
 11682     0622  00F0               	movwf	___fltol@f1
 11683     0623  160A  158A  247D  120A  118A  	fcall	___fltol
 11684     0628  0871               	movf	?___fltol+1,w
 11685     0629  1683               	bsf	3,5	;RP0=1, select bank1
 11686     062A  1303               	bcf	3,6	;RP1=0, select bank1
 11687     062B  00AC               	movwf	(efgtoa@d+1)^(0+128)
 11688     062C  0870               	movf	?___fltol,w
 11689     062D  00AB               	movwf	efgtoa@d^(0+128)
 11690     062E  2E35               	goto	l3180
 11691     062F                     l3178:
 11692     062F  3009               	movlw	9
 11693     0630  1683               	bsf	3,5	;RP0=1, select bank1
 11694     0631  1303               	bcf	3,6	;RP1=0, select bank1
 11695     0632  00AB               	movwf	efgtoa@d^(0+128)
 11696     0633  3000               	movlw	0
 11697     0634  00AC               	movwf	(efgtoa@d^(0+128)+1)
 11698     0635                     l3180:
 11699                           
 11700                           ;C:\Program Files\Microchip\xc8\v3.00\pic\sources\c99\common\doprnt.c: 792:   {;C:\Progr
      +                          am Files\Microchip\xc8\v3.00\pic\sources\c99\common\doprnt.c: 793:             if (!pp &
      +                          & (ne < 0)) {
 11701     0635  0828               	movf	efgtoa@pp^(0+128),w
 11702     0636  1D03               	btfss	3,2
 11703     0637  2E39               	goto	u5171
 11704     0638  2E3A               	goto	u5170
 11705     0639                     u5171:
 11706     0639  2E6B               	goto	l3200
 11707     063A                     u5170:
 11708     063A                     l3182:
 11709     063A  1FA1               	btfss	(efgtoa@ne+1)^(0+128),7
 11710     063B  2E3D               	goto	u5181
 11711     063C  2E3E               	goto	u5180
 11712     063D                     u5181:
 11713     063D  2E6B               	goto	l3200
 11714     063E                     u5180:
 11715     063E                     l3184:
 11716                           
 11717                           ;C:\Program Files\Microchip\xc8\v3.00\pic\sources\c99\common\doprnt.c: 794:             
      +                              dbuf[n++] = '.';
 11718     063E  0842               	movf	efgtoa@n^(0+128),w
 11719     063F  3E10               	addlw	(low (_dbuf| (0+256)))& (0+255)
 11720     0640  0084               	movwf	4
 11721     0641  302E               	movlw	46
 11722     0642  1783               	bsf	3,7	;select IRP bank2
 11723     0643  0080               	movwf	0
 11724     0644                     l3186:
 11725     0644  3001               	movlw	1
 11726     0645  07C2               	addwf	efgtoa@n^(0+128),f
 11727     0646  1803               	skipnc
 11728     0647  0AC3               	incf	(efgtoa@n+1)^(0+128),f
 11729     0648  3000               	movlw	0
 11730     0649  07C3               	addwf	(efgtoa@n+1)^(0+128),f
 11731     064A                     l3188:
 11732                           
 11733                           ;C:\Program Files\Microchip\xc8\v3.00\pic\sources\c99\common\doprnt.c: 795:             
      +                              --w;
 11734     064A  30FF               	movlw	255
 11735     064B  07B1               	addwf	efgtoa@w^(0+128),f
 11736     064C  1803               	skipnc
 11737     064D  0AB2               	incf	(efgtoa@w+1)^(0+128),f
 11738     064E  30FF               	movlw	255
 11739     064F  07B2               	addwf	(efgtoa@w+1)^(0+128),f
 11740     0650                     l3190:
 11741                           
 11742                           ;C:\Program Files\Microchip\xc8\v3.00\pic\sources\c99\common\doprnt.c: 796:             
      +                              pp = 1;
 11743     0650  3001               	movlw	1
 11744     0651  00A8               	movwf	efgtoa@pp^(0+128)
 11745     0652  2E6B               	goto	l3200
 11746     0653                     l3192:
 11747                           
 11748                           ;C:\Program Files\Microchip\xc8\v3.00\pic\sources\c99\common\doprnt.c: 799:             
      +                              dbuf[n++] = '0';
 11749     0653  0842               	movf	efgtoa@n^(0+128),w
 11750     0654  3E10               	addlw	(low (_dbuf| (0+256)))& (0+255)
 11751     0655  0084               	movwf	4
 11752     0656  3030               	movlw	48
 11753     0657  1783               	bsf	3,7	;select IRP bank2
 11754     0658  0080               	movwf	0
 11755     0659                     l3194:
 11756     0659  3001               	movlw	1
 11757     065A  07C2               	addwf	efgtoa@n^(0+128),f
 11758     065B  1803               	skipnc
 11759     065C  0AC3               	incf	(efgtoa@n+1)^(0+128),f
 11760     065D  3000               	movlw	0
 11761     065E  07C3               	addwf	(efgtoa@n+1)^(0+128),f
 11762     065F                     l3196:
 11763                           
 11764                           ;C:\Program Files\Microchip\xc8\v3.00\pic\sources\c99\common\doprnt.c: 800:             
      +                              --w;
 11765     065F  30FF               	movlw	255
 11766     0660  07B1               	addwf	efgtoa@w^(0+128),f
 11767     0661  1803               	skipnc
 11768     0662  0AB2               	incf	(efgtoa@w+1)^(0+128),f
 11769     0663  30FF               	movlw	255
 11770     0664  07B2               	addwf	(efgtoa@w+1)^(0+128),f
 11771     0665                     l3198:
 11772                           
 11773                           ;C:\Program Files\Microchip\xc8\v3.00\pic\sources\c99\common\doprnt.c: 801:             
      +                              --t;
 11774     0665  30FF               	movlw	255
 11775     0666  07A4               	addwf	efgtoa@t^(0+128),f
 11776     0667  1803               	skipnc
 11777     0668  0AA5               	incf	(efgtoa@t+1)^(0+128),f
 11778     0669  30FF               	movlw	255
 11779     066A  07A5               	addwf	(efgtoa@t+1)^(0+128),f
 11780     066B                     l3200:
 11781                           
 11782                           ;C:\Program Files\Microchip\xc8\v3.00\pic\sources\c99\common\doprnt.c: 798:             
      +                          while (t) {
 11783     066B  0824               	movf	efgtoa@t^(0+128),w
 11784     066C  0425               	iorwf	(efgtoa@t+1)^(0+128),w
 11785     066D  1D03               	btfss	3,2
 11786     066E  2E70               	goto	u5191
 11787     066F  2E71               	goto	u5190
 11788     0670                     u5191:
 11789     0670  2E53               	goto	l3192
 11790     0671                     u5190:
 11791     0671                     l3202:
 11792                           
 11793                           ;C:\Program Files\Microchip\xc8\v3.00\pic\sources\c99\common\doprnt.c: 803:             
      +                          dbuf[n++] = (char)((int)'0' + d);
 11794     0671  0842               	movf	efgtoa@n^(0+128),w
 11795     0672  3E10               	addlw	(low (_dbuf| (0+256)))& (0+255)
 11796     0673  0084               	movwf	4
 11797     0674  082B               	movf	efgtoa@d^(0+128),w
 11798     0675  3E30               	addlw	48
 11799     0676  1783               	bsf	3,7	;select IRP bank2
 11800     0677  0080               	movwf	0
 11801     0678                     l3204:
 11802     0678  3001               	movlw	1
 11803     0679  07C2               	addwf	efgtoa@n^(0+128),f
 11804     067A  1803               	skipnc
 11805     067B  0AC3               	incf	(efgtoa@n+1)^(0+128),f
 11806     067C  3000               	movlw	0
 11807     067D  07C3               	addwf	(efgtoa@n+1)^(0+128),f
 11808     067E                     l3206:
 11809                           
 11810                           ;C:\Program Files\Microchip\xc8\v3.00\pic\sources\c99\common\doprnt.c: 804:             
      +                          --w;
 11811     067E  30FF               	movlw	255
 11812     067F  07B1               	addwf	efgtoa@w^(0+128),f
 11813     0680  1803               	skipnc
 11814     0681  0AB2               	incf	(efgtoa@w+1)^(0+128),f
 11815     0682  30FF               	movlw	255
 11816     0683  07B2               	addwf	(efgtoa@w+1)^(0+128),f
 11817     0684                     l3208:
 11818                           
 11819                           ;C:\Program Files\Microchip\xc8\v3.00\pic\sources\c99\common\doprnt.c: 805:         };C:
      +                          \Program Files\Microchip\xc8\v3.00\pic\sources\c99\common\doprnt.c: 806:         h -= l*
      +                          u.f;
 11820     0684  084B               	movf	(efgtoa@u+3)^(0+128),w
 11821     0685  1283               	bcf	3,5	;RP0=0, select bank0
 11822     0686  1303               	bcf	3,6	;RP1=0, select bank0
 11823     0687  00A7               	movwf	___flmul@a+3
 11824     0688  1683               	bsf	3,5	;RP0=1, select bank1
 11825     0689  1303               	bcf	3,6	;RP1=0, select bank1
 11826     068A  084A               	movf	(efgtoa@u+2)^(0+128),w
 11827     068B  1283               	bcf	3,5	;RP0=0, select bank0
 11828     068C  1303               	bcf	3,6	;RP1=0, select bank0
 11829     068D  00A6               	movwf	___flmul@a+2
 11830     068E  1683               	bsf	3,5	;RP0=1, select bank1
 11831     068F  1303               	bcf	3,6	;RP1=0, select bank1
 11832     0690  0849               	movf	(efgtoa@u+1)^(0+128),w
 11833     0691  1283               	bcf	3,5	;RP0=0, select bank0
 11834     0692  1303               	bcf	3,6	;RP1=0, select bank0
 11835     0693  00A5               	movwf	___flmul@a+1
 11836     0694  1683               	bsf	3,5	;RP0=1, select bank1
 11837     0695  1303               	bcf	3,6	;RP1=0, select bank1
 11838     0696  0848               	movf	efgtoa@u^(0+128),w
 11839     0697  1283               	bcf	3,5	;RP0=0, select bank0
 11840     0698  1303               	bcf	3,6	;RP1=0, select bank0
 11841     0699  00A4               	movwf	___flmul@a
 11842     069A  1683               	bsf	3,5	;RP0=1, select bank1
 11843     069B  1303               	bcf	3,6	;RP1=0, select bank1
 11844     069C  0840               	movf	(efgtoa@l+3)^(0+128),w
 11845     069D  1283               	bcf	3,5	;RP0=0, select bank0
 11846     069E  1303               	bcf	3,6	;RP1=0, select bank0
 11847     069F  00A3               	movwf	___flmul@b+3
 11848     06A0  1683               	bsf	3,5	;RP0=1, select bank1
 11849     06A1  1303               	bcf	3,6	;RP1=0, select bank1
 11850     06A2  083F               	movf	(efgtoa@l+2)^(0+128),w
 11851     06A3  1283               	bcf	3,5	;RP0=0, select bank0
 11852     06A4  1303               	bcf	3,6	;RP1=0, select bank0
 11853     06A5  00A2               	movwf	___flmul@b+2
 11854     06A6  1683               	bsf	3,5	;RP0=1, select bank1
 11855     06A7  1303               	bcf	3,6	;RP1=0, select bank1
 11856     06A8  083E               	movf	(efgtoa@l+1)^(0+128),w
 11857     06A9  1283               	bcf	3,5	;RP0=0, select bank0
 11858     06AA  1303               	bcf	3,6	;RP1=0, select bank0
 11859     06AB  00A1               	movwf	___flmul@b+1
 11860     06AC  1683               	bsf	3,5	;RP0=1, select bank1
 11861     06AD  1303               	bcf	3,6	;RP1=0, select bank1
 11862     06AE  083D               	movf	efgtoa@l^(0+128),w
 11863     06AF  1283               	bcf	3,5	;RP0=0, select bank0
 11864     06B0  1303               	bcf	3,6	;RP1=0, select bank0
 11865     06B1  00A0               	movwf	___flmul@b
 11866     06B2  120A  158A  24BE  120A  118A  	fcall	___flmul
 11867     06B7  1283               	bcf	3,5	;RP0=0, select bank0
 11868     06B8  1303               	bcf	3,6	;RP1=0, select bank0
 11869     06B9  0823               	movf	?___flmul+3,w
 11870     06BA  00B8               	movwf	___flsub@a+3
 11871     06BB  0822               	movf	?___flmul+2,w
 11872     06BC  00B7               	movwf	___flsub@a+2
 11873     06BD  0821               	movf	?___flmul+1,w
 11874     06BE  00B6               	movwf	___flsub@a+1
 11875     06BF  0820               	movf	?___flmul,w
 11876     06C0  00B5               	movwf	___flsub@a
 11877     06C1  1683               	bsf	3,5	;RP0=1, select bank1
 11878     06C2  1303               	bcf	3,6	;RP1=0, select bank1
 11879     06C3  083C               	movf	(efgtoa@h+3)^(0+128),w
 11880     06C4  1283               	bcf	3,5	;RP0=0, select bank0
 11881     06C5  1303               	bcf	3,6	;RP1=0, select bank0
 11882     06C6  00BC               	movwf	___flsub@b+3
 11883     06C7  1683               	bsf	3,5	;RP0=1, select bank1
 11884     06C8  1303               	bcf	3,6	;RP1=0, select bank1
 11885     06C9  083B               	movf	(efgtoa@h+2)^(0+128),w
 11886     06CA  1283               	bcf	3,5	;RP0=0, select bank0
 11887     06CB  1303               	bcf	3,6	;RP1=0, select bank0
 11888     06CC  00BB               	movwf	___flsub@b+2
 11889     06CD  1683               	bsf	3,5	;RP0=1, select bank1
 11890     06CE  1303               	bcf	3,6	;RP1=0, select bank1
 11891     06CF  083A               	movf	(efgtoa@h+1)^(0+128),w
 11892     06D0  1283               	bcf	3,5	;RP0=0, select bank0
 11893     06D1  1303               	bcf	3,6	;RP1=0, select bank0
 11894     06D2  00BA               	movwf	___flsub@b+1
 11895     06D3  1683               	bsf	3,5	;RP0=1, select bank1
 11896     06D4  1303               	bcf	3,6	;RP1=0, select bank1
 11897     06D5  0839               	movf	efgtoa@h^(0+128),w
 11898     06D6  1283               	bcf	3,5	;RP0=0, select bank0
 11899     06D7  1303               	bcf	3,6	;RP1=0, select bank0
 11900     06D8  00B9               	movwf	___flsub@b
 11901     06D9  160A  158A  2209  120A  118A  	fcall	___flsub
 11902     06DE  1283               	bcf	3,5	;RP0=0, select bank0
 11903     06DF  1303               	bcf	3,6	;RP1=0, select bank0
 11904     06E0  0838               	movf	?___flsub+3,w
 11905     06E1  1683               	bsf	3,5	;RP0=1, select bank1
 11906     06E2  1303               	bcf	3,6	;RP1=0, select bank1
 11907     06E3  00BC               	movwf	(efgtoa@h+3)^(0+128)
 11908     06E4  1283               	bcf	3,5	;RP0=0, select bank0
 11909     06E5  1303               	bcf	3,6	;RP1=0, select bank0
 11910     06E6  0837               	movf	?___flsub+2,w
 11911     06E7  1683               	bsf	3,5	;RP0=1, select bank1
 11912     06E8  1303               	bcf	3,6	;RP1=0, select bank1
 11913     06E9  00BB               	movwf	(efgtoa@h+2)^(0+128)
 11914     06EA  1283               	bcf	3,5	;RP0=0, select bank0
 11915     06EB  1303               	bcf	3,6	;RP1=0, select bank0
 11916     06EC  0836               	movf	?___flsub+1,w
 11917     06ED  1683               	bsf	3,5	;RP0=1, select bank1
 11918     06EE  1303               	bcf	3,6	;RP1=0, select bank1
 11919     06EF  00BA               	movwf	(efgtoa@h+1)^(0+128)
 11920     06F0  1283               	bcf	3,5	;RP0=0, select bank0
 11921     06F1  1303               	bcf	3,6	;RP1=0, select bank0
 11922     06F2  0835               	movf	?___flsub,w
 11923     06F3  1683               	bsf	3,5	;RP0=1, select bank1
 11924     06F4  1303               	bcf	3,6	;RP1=0, select bank1
 11925     06F5  00B9               	movwf	efgtoa@h^(0+128)
 11926     06F6                     l3210:
 11927                           
 11928                           ;C:\Program Files\Microchip\xc8\v3.00\pic\sources\c99\common\doprnt.c: 807:         u.f 
      +                          = u.f/10.0;
 11929     06F6  3041               	movlw	65
 11930     06F7  1283               	bcf	3,5	;RP0=0, select bank0
 11931     06F8  1303               	bcf	3,6	;RP1=0, select bank0
 11932     06F9  00A3               	movwf	___fldiv@a+3
 11933     06FA  3020               	movlw	32
 11934     06FB  00A2               	movwf	___fldiv@a+2
 11935     06FC  3000               	movlw	0
 11936     06FD  00A1               	movwf	___fldiv@a+1
 11937     06FE  3000               	movlw	0
 11938     06FF  00A0               	movwf	___fldiv@a
 11939     0700  1683               	bsf	3,5	;RP0=1, select bank1
 11940     0701  1303               	bcf	3,6	;RP1=0, select bank1
 11941     0702  084B               	movf	(efgtoa@u+3)^(0+128),w
 11942     0703  1283               	bcf	3,5	;RP0=0, select bank0
 11943     0704  1303               	bcf	3,6	;RP1=0, select bank0
 11944     0705  00A7               	movwf	___fldiv@b+3
 11945     0706  1683               	bsf	3,5	;RP0=1, select bank1
 11946     0707  1303               	bcf	3,6	;RP1=0, select bank1
 11947     0708  084A               	movf	(efgtoa@u+2)^(0+128),w
 11948     0709  1283               	bcf	3,5	;RP0=0, select bank0
 11949     070A  1303               	bcf	3,6	;RP1=0, select bank0
 11950     070B  00A6               	movwf	___fldiv@b+2
 11951     070C  1683               	bsf	3,5	;RP0=1, select bank1
 11952     070D  1303               	bcf	3,6	;RP1=0, select bank1
 11953     070E  0849               	movf	(efgtoa@u+1)^(0+128),w
 11954     070F  1283               	bcf	3,5	;RP0=0, select bank0
 11955     0710  1303               	bcf	3,6	;RP1=0, select bank0
 11956     0711  00A5               	movwf	___fldiv@b+1
 11957     0712  1683               	bsf	3,5	;RP0=1, select bank1
 11958     0713  1303               	bcf	3,6	;RP1=0, select bank1
 11959     0714  0848               	movf	efgtoa@u^(0+128),w
 11960     0715  1283               	bcf	3,5	;RP0=0, select bank0
 11961     0716  1303               	bcf	3,6	;RP1=0, select bank0
 11962     0717  00A4               	movwf	___fldiv@b
 11963     0718  120A  158A  2098  120A  118A  	fcall	___fldiv
 11964     071D  1283               	bcf	3,5	;RP0=0, select bank0
 11965     071E  1303               	bcf	3,6	;RP1=0, select bank0
 11966     071F  0823               	movf	?___fldiv+3,w
 11967     0720  1683               	bsf	3,5	;RP0=1, select bank1
 11968     0721  1303               	bcf	3,6	;RP1=0, select bank1
 11969     0722  00CB               	movwf	(efgtoa@u+3)^(0+128)
 11970     0723  1283               	bcf	3,5	;RP0=0, select bank0
 11971     0724  1303               	bcf	3,6	;RP1=0, select bank0
 11972     0725  0822               	movf	?___fldiv+2,w
 11973     0726  1683               	bsf	3,5	;RP0=1, select bank1
 11974     0727  1303               	bcf	3,6	;RP1=0, select bank1
 11975     0728  00CA               	movwf	(efgtoa@u+2)^(0+128)
 11976     0729  1283               	bcf	3,5	;RP0=0, select bank0
 11977     072A  1303               	bcf	3,6	;RP1=0, select bank0
 11978     072B  0821               	movf	?___fldiv+1,w
 11979     072C  1683               	bsf	3,5	;RP0=1, select bank1
 11980     072D  1303               	bcf	3,6	;RP1=0, select bank1
 11981     072E  00C9               	movwf	(efgtoa@u+1)^(0+128)
 11982     072F  1283               	bcf	3,5	;RP0=0, select bank0
 11983     0730  1303               	bcf	3,6	;RP1=0, select bank0
 11984     0731  0820               	movf	?___fldiv,w
 11985     0732  1683               	bsf	3,5	;RP0=1, select bank1
 11986     0733  1303               	bcf	3,6	;RP1=0, select bank1
 11987     0734  00C8               	movwf	efgtoa@u^(0+128)
 11988     0735                     l3212:
 11989                           
 11990                           ;C:\Program Files\Microchip\xc8\v3.00\pic\sources\c99\common\doprnt.c: 808:         --ne
      +                          ;
 11991     0735  30FF               	movlw	255
 11992     0736  07A0               	addwf	efgtoa@ne^(0+128),f
 11993     0737  1803               	skipnc
 11994     0738  0AA1               	incf	(efgtoa@ne+1)^(0+128),f
 11995     0739  30FF               	movlw	255
 11996     073A  07A1               	addwf	(efgtoa@ne+1)^(0+128),f
 11997     073B                     l3214:
 11998                           
 11999                           ;C:\Program Files\Microchip\xc8\v3.00\pic\sources\c99\common\doprnt.c: 809:         ++i;
 12000     073B  3001               	movlw	1
 12001     073C  07B7               	addwf	efgtoa@i^(0+128),f
 12002     073D  1803               	skipnc
 12003     073E  0AB8               	incf	(efgtoa@i+1)^(0+128),f
 12004     073F  3000               	movlw	0
 12005     0740  07B8               	addwf	(efgtoa@i+1)^(0+128),f
 12006     0741                     l3216:
 12007                           
 12008                           ;C:\Program Files\Microchip\xc8\v3.00\pic\sources\c99\common\doprnt.c: 779:     while ((
      +                          i < m) && (n < (80 - 5))) {
 12009     0741  0838               	movf	(efgtoa@i+1)^(0+128),w
 12010     0742  3A80               	xorlw	128
 12011     0743  1283               	bcf	3,5	;RP0=0, select bank0
 12012     0744  1303               	bcf	3,6	;RP1=0, select bank0
 12013     0745  00D5               	movwf	??_efgtoa
 12014     0746  1683               	bsf	3,5	;RP0=1, select bank1
 12015     0747  1303               	bcf	3,6	;RP1=0, select bank1
 12016     0748  082E               	movf	(efgtoa@m+1)^(0+128),w
 12017     0749  3A80               	xorlw	128
 12018     074A  1283               	bcf	3,5	;RP0=0, select bank0
 12019     074B  1303               	bcf	3,6	;RP1=0, select bank0
 12020     074C  0255               	subwf	??_efgtoa,w
 12021     074D  1D03               	skipz
 12022     074E  2F53               	goto	u5205
 12023     074F  1683               	bsf	3,5	;RP0=1, select bank1
 12024     0750  1303               	bcf	3,6	;RP1=0, select bank1
 12025     0751  082D               	movf	efgtoa@m^(0+128),w
 12026     0752  0237               	subwf	efgtoa@i^(0+128),w
 12027     0753                     u5205:
 12028     0753  1803               	skipnc
 12029     0754  2F56               	goto	u5201
 12030     0755  2F57               	goto	u5200
 12031     0756                     u5201:
 12032     0756  2F66               	goto	l3220
 12033     0757                     u5200:
 12034     0757                     l3218:
 12035     0757  1683               	bsf	3,5	;RP0=1, select bank1
 12036     0758  1303               	bcf	3,6	;RP1=0, select bank1
 12037     0759  0843               	movf	(efgtoa@n+1)^(0+128),w
 12038     075A  3A80               	xorlw	128
 12039     075B  00FF               	movwf	btemp+1
 12040     075C  3080               	movlw	128
 12041     075D  027F               	subwf	btemp+1,w
 12042     075E  1D03               	skipz
 12043     075F  2F62               	goto	u5215
 12044     0760  304B               	movlw	75
 12045     0761  0242               	subwf	efgtoa@n^(0+128),w
 12046     0762                     u5215:
 12047     0762  1C03               	skipc
 12048     0763  2F65               	goto	u5211
 12049     0764  2F66               	goto	u5210
 12050     0765                     u5211:
 12051     0765  2DA3               	goto	l3174
 12052     0766                     u5210:
 12053     0766                     l3220:
 12054                           
 12055                           ;C:\Program Files\Microchip\xc8\v3.00\pic\sources\c99\common\doprnt.c: 816:  i = sizeof(
      +                          dbuf) - 1;
 12056     0766  304F               	movlw	79
 12057     0767  1683               	bsf	3,5	;RP0=1, select bank1
 12058     0768  1303               	bcf	3,6	;RP1=0, select bank1
 12059     0769  00B7               	movwf	efgtoa@i^(0+128)
 12060     076A  3000               	movlw	0
 12061     076B  00B8               	movwf	(efgtoa@i^(0+128)+1)
 12062     076C                     l3222:
 12063                           
 12064                           ;C:\Program Files\Microchip\xc8\v3.00\pic\sources\c99\common\doprnt.c: 817:     dbuf[i] 
      +                          = '\0';
 12065     076C  0837               	movf	efgtoa@i^(0+128),w
 12066     076D  3E10               	addlw	(low (_dbuf| (0+256)))& (0+255)
 12067     076E  0084               	movwf	4
 12068     076F  1783               	bsf	3,7	;select IRP bank2
 12069     0770  0180               	clrf	0
 12070     0771                     l3224:
 12071                           
 12072                           ;C:\Program Files\Microchip\xc8\v3.00\pic\sources\c99\common\doprnt.c: 848:  memcpy(&dbu
      +                          f[i-n], &dbuf[0], (size_t)n);
 12073     0771  3010               	movlw	(low (_dbuf| (0+256)))& (0+255)
 12074     0772  1283               	bcf	3,5	;RP0=0, select bank0
 12075     0773  1303               	bcf	3,6	;RP1=0, select bank0
 12076     0774  00D5               	movwf	??_efgtoa
 12077     0775  1683               	bsf	3,5	;RP0=1, select bank1
 12078     0776  1303               	bcf	3,6	;RP1=0, select bank1
 12079     0777  0842               	movf	efgtoa@n^(0+128),w
 12080     0778  1283               	bcf	3,5	;RP0=0, select bank0
 12081     0779  1303               	bcf	3,6	;RP1=0, select bank0
 12082     077A  02D5               	subwf	??_efgtoa,f
 12083     077B  1683               	bsf	3,5	;RP0=1, select bank1
 12084     077C  1303               	bcf	3,6	;RP1=0, select bank1
 12085     077D  0837               	movf	efgtoa@i^(0+128),w
 12086     077E  1283               	bcf	3,5	;RP0=0, select bank0
 12087     077F  1303               	bcf	3,6	;RP1=0, select bank0
 12088     0780  0755               	addwf	??_efgtoa,w
 12089     0781  00F0               	movwf	memcpy@d1
 12090     0782  3010               	movlw	(low (_dbuf| (0+256)))& (0+255)
 12091     0783  00F1               	movwf	memcpy@s1
 12092     0784  1683               	bsf	3,5	;RP0=1, select bank1
 12093     0785  1303               	bcf	3,6	;RP1=0, select bank1
 12094     0786  0843               	movf	(efgtoa@n+1)^(0+128),w
 12095     0787  00F3               	movwf	memcpy@n+1
 12096     0788  0842               	movf	efgtoa@n^(0+128),w
 12097     0789  00F2               	movwf	memcpy@n
 12098     078A  160A  158A  21C5  120A  118A  	fcall	_memcpy
 12099     078F                     l3226:
 12100                           
 12101                           ;C:\Program Files\Microchip\xc8\v3.00\pic\sources\c99\common\doprnt.c: 849:  n = i-n;
 12102     078F  1683               	bsf	3,5	;RP0=1, select bank1
 12103     0790  1303               	bcf	3,6	;RP1=0, select bank1
 12104     0791  0842               	movf	efgtoa@n^(0+128),w
 12105     0792  0237               	subwf	efgtoa@i^(0+128),w
 12106     0793  00C2               	movwf	efgtoa@n^(0+128)
 12107     0794  0843               	movf	(efgtoa@n+1)^(0+128),w
 12108     0795  1C03               	skipc
 12109     0796  0A43               	incf	(efgtoa@n+1)^(0+128),w
 12110     0797  0238               	subwf	(efgtoa@i+1)^(0+128),w
 12111     0798  00C3               	movwf	(efgtoa@n+1)^(0+128)
 12112     0799                     l3228:
 12113                           
 12114                           ;C:\Program Files\Microchip\xc8\v3.00\pic\sources\c99\common\doprnt.c: 850:  i = sign ==
      +                           0 ? 0 : 1;
 12115     0799  0841               	movf	efgtoa@sign^(0+128),w
 12116     079A  1D03               	btfss	3,2
 12117     079B  2F9D               	goto	u5221
 12118     079C  2F9F               	goto	u5220
 12119     079D                     u5221:
 12120     079D  3001               	movlw	1
 12121     079E  2FA0               	goto	u5230
 12122     079F                     u5220:
 12123     079F  3000               	movlw	0
 12124     07A0                     u5230:
 12125     07A0  1283               	bcf	3,5	;RP0=0, select bank0
 12126     07A1  1303               	bcf	3,6	;RP1=0, select bank0
 12127     07A2  00D5               	movwf	??_efgtoa
 12128     07A3  01D6               	clrf	??_efgtoa+1
 12129     07A4  0855               	movf	??_efgtoa,w
 12130     07A5  1683               	bsf	3,5	;RP0=1, select bank1
 12131     07A6  1303               	bcf	3,6	;RP1=0, select bank1
 12132     07A7  00B7               	movwf	efgtoa@i^(0+128)
 12133     07A8  1283               	bcf	3,5	;RP0=0, select bank0
 12134     07A9  1303               	bcf	3,6	;RP1=0, select bank0
 12135     07AA  0856               	movf	??_efgtoa+1,w
 12136     07AB  1683               	bsf	3,5	;RP0=1, select bank1
 12137     07AC  1303               	bcf	3,6	;RP1=0, select bank1
 12138     07AD  00B8               	movwf	(efgtoa@i+1)^(0+128)
 12139     07AE                     l3230:
 12140                           
 12141                           ;C:\Program Files\Microchip\xc8\v3.00\pic\sources\c99\common\doprnt.c: 861:  if (sign) {
 12142     07AE  0841               	movf	efgtoa@sign^(0+128),w
 12143     07AF  1903               	btfsc	3,2
 12144     07B0  2FB2               	goto	u5241
 12145     07B1  2FB3               	goto	u5240
 12146     07B2                     u5241:
 12147     07B2  2FBF               	goto	l3234
 12148     07B3                     u5240:
 12149     07B3                     l3232:
 12150                           
 12151                           ;C:\Program Files\Microchip\xc8\v3.00\pic\sources\c99\common\doprnt.c: 862:   dbuf[--n] 
      +                          = sign;
 12152     07B3  30FF               	movlw	255
 12153     07B4  07C2               	addwf	efgtoa@n^(0+128),f
 12154     07B5  1803               	skipnc
 12155     07B6  0AC3               	incf	(efgtoa@n+1)^(0+128),f
 12156     07B7  30FF               	movlw	255
 12157     07B8  07C3               	addwf	(efgtoa@n+1)^(0+128),f
 12158     07B9  0842               	movf	efgtoa@n^(0+128),w
 12159     07BA  3E10               	addlw	(low (_dbuf| (0+256)))& (0+255)
 12160     07BB  0084               	movwf	4
 12161     07BC  0841               	movf	efgtoa@sign^(0+128),w
 12162     07BD  1783               	bsf	3,7	;select IRP bank2
 12163     07BE  0080               	movwf	0
 12164     07BF                     l3234:
 12165                           
 12166                           ;C:\Program Files\Microchip\xc8\v3.00\pic\sources\c99\common\doprnt.c: 864:  w -= i;
 12167     07BF  0837               	movf	efgtoa@i^(0+128),w
 12168     07C0  02B1               	subwf	efgtoa@w^(0+128),f
 12169     07C1  0838               	movf	(efgtoa@i+1)^(0+128),w
 12170     07C2  1C03               	skipc
 12171     07C3  03B2               	decf	(efgtoa@w+1)^(0+128),f
 12172     07C4  02B2               	subwf	(efgtoa@w+1)^(0+128),f
 12173     07C5                     l3236:
 12174                           
 12175                           ;C:\Program Files\Microchip\xc8\v3.00\pic\sources\c99\common\doprnt.c: 867:     return (
      +                          void) pad(fp, &dbuf[n], w);
 12176     07C5  1283               	bcf	3,5	;RP0=0, select bank0
 12177     07C6  1303               	bcf	3,6	;RP1=0, select bank0
 12178     07C7  084E               	movf	efgtoa@fp,w
 12179     07C8  00A8               	movwf	pad@fp
 12180     07C9  084F               	movf	efgtoa@fp+1,w
 12181     07CA  00A9               	movwf	pad@fp+1
 12182     07CB  1683               	bsf	3,5	;RP0=1, select bank1
 12183     07CC  1303               	bcf	3,6	;RP1=0, select bank1
 12184     07CD  0842               	movf	efgtoa@n^(0+128),w
 12185     07CE  3E10               	addlw	(low (_dbuf| (0+256)))& (0+255)
 12186     07CF  1283               	bcf	3,5	;RP0=0, select bank0
 12187     07D0  1303               	bcf	3,6	;RP1=0, select bank0
 12188     07D1  00AA               	movwf	pad@buf
 12189     07D2  1683               	bsf	3,5	;RP0=1, select bank1
 12190     07D3  1303               	bcf	3,6	;RP1=0, select bank1
 12191     07D4  0832               	movf	(efgtoa@w+1)^(0+128),w
 12192     07D5  1283               	bcf	3,5	;RP0=0, select bank0
 12193     07D6  1303               	bcf	3,6	;RP1=0, select bank0
 12194     07D7  00AC               	movwf	pad@p+1
 12195     07D8  1683               	bsf	3,5	;RP0=1, select bank1
 12196     07D9  1303               	bcf	3,6	;RP1=0, select bank1
 12197     07DA  0831               	movf	efgtoa@w^(0+128),w
 12198     07DB  1283               	bcf	3,5	;RP0=0, select bank0
 12199     07DC  1303               	bcf	3,6	;RP1=0, select bank0
 12200     07DD  00AB               	movwf	pad@p
 12201     07DE  120A  118A  2003  120A  118A  	fcall	_pad
 12202     07E3                     l746:
 12203     07E3  0008               	return
 12204     07E4                     __end_of_efgtoa:

Data Sizes:
    Strings     203
    Constant    0
    Data        0
    BSS         93
    Persistent  0
    Stack       0

Auto Spaces:
    Space          Size  Autos    Used
    COMMON           14     14      14
    BANK0            80     80      80
    BANK1            80     72      77
    BANK3            96     34      42
    BANK2            96      0      80

Pointer List with Targets:

    efgtoa@fp	PTR struct _IO_FILE size(2) Largest target is 11
		 -> sprintf@f(BANK1[11]), 

    f$.$buffer	PTR unsigned char  size(2) Largest target is 16
		 -> ESP_SendToThingSpeak@num(BANK3[10]), main@b(BANK3[16]), 

    f$.$source	PTR const unsigned char  size(1) Largest target is 0

    fputc@fp	PTR struct _IO_FILE size(2) Largest target is 11
		 -> sprintf@f(BANK1[11]), 

    fputc@fp$.$buffer	PTR unsigned char  size(2) Largest target is 16
		 -> ESP_SendToThingSpeak@num(BANK3[10]), main@b(BANK3[16]), 

    fputc@fp$.$source	PTR const unsigned char  size(1) Largest target is 0

    fputs@fp	PTR struct _IO_FILE size(2) Largest target is 11
		 -> sprintf@f(BANK1[11]), 

    fputs@s	PTR const unsigned char  size(1) Largest target is 80
		 -> dbuf(BANK2[80]), 

    LCD_String@str	PTR const unsigned char  size(2) Largest target is 16
		 -> main@b(BANK3[16]), STR_17(CODE[14]), 

    memcpy@d	PTR unsigned char  size(1) Largest target is 80
		 -> dbuf(BANK2[80]), 

    memcpy@d1	PTR void  size(1) Largest target is 80
		 -> dbuf(BANK2[80]), 

    memcpy@s	PTR const unsigned char  size(1) Largest target is 80
		 -> dbuf(BANK2[80]), 

    memcpy@s1	PTR const void  size(1) Largest target is 80
		 -> dbuf(BANK2[80]), 

    pad@buf	PTR unsigned char  size(1) Largest target is 80
		 -> dbuf(BANK2[80]), 

    pad@fp	PTR struct _IO_FILE size(2) Largest target is 11
		 -> sprintf@f(BANK1[11]), 

    read_prec_or_width@ap	PTR PTR void [1] size(1) Largest target is 1
		 -> sprintf@ap(BANK1[1]), 

    read_prec_or_width@fmt	PTR PTR const unsigned char  size(1) Largest target is 1
		 -> vfprintf@cfmt(BANK0[1]), 

    S578$buffer	PTR unsigned char  size(2) Largest target is 16
		 -> ESP_SendToThingSpeak@num(BANK3[10]), main@b(BANK3[16]), 

    S578$source	PTR const unsigned char  size(1) Largest target is 0

    sp__memcpy	PTR void  size(1) Largest target is 80
		 -> dbuf(BANK2[80]), 

    sp__strcpy	PTR unsigned char  size(1) Largest target is 80
		 -> dbuf(BANK2[80]), 

    sprintf@ap	PTR void [1] size(1) Largest target is 2
		 -> ?_sprintf(BANK0[2]), 

    sprintf@fmt	PTR const unsigned char  size(1) Largest target is 12
		 -> STR_18(CODE[12]), STR_4(CODE[5]), STR_9(CODE[3]), 

    sprintf@s	PTR unsigned char  size(1) Largest target is 16
		 -> ESP_SendToThingSpeak@num(BANK3[10]), main@b(BANK3[16]), 

    strcpy@d	PTR unsigned char  size(1) Largest target is 80
		 -> dbuf(BANK2[80]), 

    strcpy@dest	PTR unsigned char  size(1) Largest target is 80
		 -> dbuf(BANK2[80]), 

    strcpy@src	PTR const unsigned char  size(1) Largest target is 4
		 -> STR_19(CODE[4]), STR_22(CODE[4]), 

    strlen@a	PTR const unsigned char  size(2) Largest target is 21
		 -> ESP_SendToThingSpeak@num(BANK3[10]), STR_5(CODE[21]), STR_6(CODE[18]), STR_7(CODE[9]), 
		 -> STR_8(CODE[3]), 

    strlen@s	PTR const unsigned char  size(2) Largest target is 21
		 -> ESP_SendToThingSpeak@num(BANK3[10]), STR_5(CODE[21]), STR_6(CODE[18]), STR_7(CODE[9]), 
		 -> STR_8(CODE[3]), 

    UART_WriteString@s	PTR const unsigned char  size(2) Largest target is 44
		 -> ESP_SendToThingSpeak@num(BANK3[10]), STR_1(CODE[14]), STR_10(CODE[12]), STR_11(CODE[3]), 
		 -> STR_12(CODE[21]), STR_13(CODE[18]), STR_14(CODE[9]), STR_15(CODE[3]), 
		 -> STR_16(CODE[14]), STR_2(CODE[29]), STR_3(CODE[44]), 

    utoa@fp	PTR struct _IO_FILE size(2) Largest target is 11
		 -> sprintf@f(BANK1[11]), 

    vfpfcnvrt@ap	PTR PTR void  size(1) Largest target is 1
		 -> sprintf@ap(BANK1[1]), 

    vfpfcnvrt@cp	PTR unsigned char  size(1) Largest target is 12
		 -> STR_18(CODE[12]), STR_4(CODE[5]), STR_9(CODE[3]), 

    vfpfcnvrt@fmt	PTR PTR unsigned char  size(1) Largest target is 1
		 -> vfprintf@cfmt(BANK0[1]), 

    vfpfcnvrt@fp	PTR struct _IO_FILE size(2) Largest target is 11
		 -> sprintf@f(BANK1[11]), 

    vfprintf@ap	PTR PTR void  size(1) Largest target is 1
		 -> sprintf@ap(BANK1[1]), 

    vfprintf@cfmt	PTR unsigned char  size(1) Largest target is 12
		 -> STR_18(CODE[12]), STR_4(CODE[5]), STR_9(CODE[3]), 

    vfprintf@fmt	PTR const unsigned char  size(1) Largest target is 12
		 -> STR_18(CODE[12]), STR_4(CODE[5]), STR_9(CODE[3]), 

    vfprintf@fp	PTR struct _IO_FILE size(2) Largest target is 11
		 -> sprintf@f(BANK1[11]), 


Critical Paths under _main in COMMON

    _main->___xxtofl
    _LCD_String->_LCD_Char
    _LCD_Set_Cursor->_LCD_Cmd
    _LCD_Init->_LCD_Cmd
    _LCD_Clear->_LCD_Cmd
    _utoa->_pad
    _read_prec_or_width->___wmul
    _efgtoa->___flmul
    _efgtoa->_pad
    _pad->_fputc
    _fputs->_fputc
    ___flsub->___flmul
    ___flmul->__Umul8_16
    ___flge->___flmul
    ___fldiv->___xxtofl
    _UART_WriteString->_UART_WriteChar

Critical Paths under _main in BANK0

    _main->_sprintf
    _ESP_SendToThingSpeak->_sprintf
    _sprintf->_vfprintf
    _vfprintf->_vfpfcnvrt
    _vfpfcnvrt->_efgtoa
    _utoa->_pad
    _efgtoa->_floorf
    _pad->_fputs
    _floorf->___fldiv
    ___flsub->___flmul
    ___flge->___flmul

Critical Paths under _main in BANK1

    _main->_ESP_SendToThingSpeak
    _ESP_SendToThingSpeak->_sprintf
    _vfpfcnvrt->_efgtoa

Critical Paths under _main in BANK3

    _main->_ESP_SendToThingSpeak

Critical Paths under _main in BANK2

    None.

Call Graph Tables:

 ---------------------------------------------------------------------------------
 (Depth) Function   	        Calls       Base Space   Used Autos Params    Refs
 ---------------------------------------------------------------------------------
 (0) _main                                                25    25      0   31039
                                             69 BANK1      3     3      0
                                             12 BANK3     22    22      0
               _ESP_SendToThingSpeak
                          _LCD_Clear
                           _LCD_Init
                     _LCD_Set_Cursor
                         _LCD_String
                          _UART_Init
                            ___fldiv
                             ___flge
                           ___xxtofl
                          _read_echo
                       _send_trigger
                            _sprintf
 ---------------------------------------------------------------------------------
 (1) _send_trigger                                         1     1      0       0
                                              0 COMMON     1     1      0
 ---------------------------------------------------------------------------------
 (1) _read_echo                                            6     4      2      45
                                              0 COMMON     6     4      2
 ---------------------------------------------------------------------------------
 (1) ___xxtofl                                            14    10      4     337
                                              0 COMMON    14    10      4
 ---------------------------------------------------------------------------------
 (1) _UART_Init                                            0     0      0       0
 ---------------------------------------------------------------------------------
 (1) _LCD_String                                           2     0      2     279
                                              3 COMMON     2     0      2
                           _LCD_Char
 ---------------------------------------------------------------------------------
 (2) _LCD_Char                                             3     3      0     232
                                              0 COMMON     3     3      0
                    _LCD_PulseEnable
 ---------------------------------------------------------------------------------
 (1) _LCD_Set_Cursor                                       4     3      1     308
                                              3 COMMON     4     3      1
                            _LCD_Cmd
 ---------------------------------------------------------------------------------
 (1) _LCD_Init                                             2     2      0     232
                                              3 COMMON     2     2      0
                            _LCD_Cmd
 ---------------------------------------------------------------------------------
 (1) _LCD_Clear                                            2     2      0     232
                                              3 COMMON     2     2      0
                            _LCD_Cmd
 ---------------------------------------------------------------------------------
 (2) _LCD_Cmd                                              3     3      0     232
                                              0 COMMON     3     3      0
                    _LCD_PulseEnable
 ---------------------------------------------------------------------------------
 (3) _LCD_PulseEnable                                      0     0      0       0
 ---------------------------------------------------------------------------------
 (1) _ESP_SendToThingSpeak                                24    20      4   14218
                                             57 BANK1     12     8      4
                                              0 BANK3     12    12      0
                   _UART_WriteString
                            _sprintf
                             _strlen
 ---------------------------------------------------------------------------------
 (3) _strlen                                               4     2      2      95
                                              0 COMMON     4     2      2
 ---------------------------------------------------------------------------------
 (1) _sprintf                                             21    15      6   13874
                                             74 BANK0      6     0      6
                                             44 BANK1     13    13      0
                           _vfprintf
 ---------------------------------------------------------------------------------
 (2) _vfprintf                                             5     1      4   13663
                                             69 BANK0      5     1      4
                          _vfpfcnvrt
 ---------------------------------------------------------------------------------
 (3) _vfpfcnvrt                                           13     9      4   13526
                                             57 BANK0     12     8      4
                             _efgtoa
                              _fputc
                 _read_prec_or_width
                               _utoa
 ---------------------------------------------------------------------------------
 (4) _utoa                                                10     6      4    1265
                                             15 BANK0     10     6      4
                            ___lwdiv
                            ___lwmod
                                _pad
 ---------------------------------------------------------------------------------
 (5) ___lwmod                                              5     1      4     161
                                              0 COMMON     5     1      4
 ---------------------------------------------------------------------------------
 (5) ___lwdiv                                              7     3      4     164
                                              0 COMMON     7     3      4
 ---------------------------------------------------------------------------------
 (4) _read_prec_or_width                                   5     3      2     276
                                              6 COMMON     5     3      2
                             ___wmul
 ---------------------------------------------------------------------------------
 (5) ___wmul                                               6     2      4      94
                                              0 COMMON     6     2      4
 ---------------------------------------------------------------------------------
 (4) _efgtoa                                              56    49      7   11059
                                             46 BANK0     11     4      7
                                              0 BANK1     44    44      0
                            ___fladd
                            ___fldiv
                             ___fleq
                             ___flge
                            ___flmul
                            ___flneg
                            ___flsub
                            ___fltol
                      ___fpclassifyf
                             _floorf
                               _labs
                             _memcpy
                                _pad
                             _strcpy
 ---------------------------------------------------------------------------------
 (6) _strcpy                                               3     1      2      77
                                              0 COMMON     3     1      2
 ---------------------------------------------------------------------------------
 (5) _pad                                                  8     3      5     710
                                             13 COMMON     1     1      0
                                              8 BANK0      7     2      5
                              _fputc
                              _fputs
 ---------------------------------------------------------------------------------
 (6) _fputs                                                8     5      3     331
                                              0 BANK0      8     5      3
                              _fputc
 ---------------------------------------------------------------------------------
 (7) _fputc                                               13     9      4     232
                                              0 COMMON    13     9      4
                              _putch
 ---------------------------------------------------------------------------------
 (8) _putch                                                1     1      0       0
 ---------------------------------------------------------------------------------
 (5) _memcpy                                               7     3      4     146
                                              0 COMMON     7     3      4
 ---------------------------------------------------------------------------------
 (5) _labs                                                 4     0      4      69
                                              0 COMMON     4     0      4
 ---------------------------------------------------------------------------------
 (5) _floorf                                              20    16      4     340
                                             26 BANK0     20    16      4
                            ___fldiv (ARG)
 ---------------------------------------------------------------------------------
 (5) ___fpclassifyf                                       16    12      4     137
                                              0 COMMON    10     6      4
                                              0 BANK0      6     6      0
 ---------------------------------------------------------------------------------
 (5) ___fltol                                             10     6      4     232
                                              0 COMMON    10     6      4
 ---------------------------------------------------------------------------------
 (5) ___flsub                                              8     0      8    2039
                                             21 BANK0      8     0      8
                            ___fladd
                            ___flmul (ARG)
 ---------------------------------------------------------------------------------
 (6) ___fladd                                             20    12      8    1990
                                              0 COMMON    12     4      8
                                              0 BANK0      8     8      0
 ---------------------------------------------------------------------------------
 (5) ___flneg                                              4     0      4      46
                                              0 COMMON     4     0      4
 ---------------------------------------------------------------------------------
 (5) ___flmul                                             26    18      8    1618
                                              9 COMMON     5     5      0
                                              0 BANK0     21    13      8
                          __Umul8_16
 ---------------------------------------------------------------------------------
 (6) __Umul8_16                                            9     7      2     139
                                              0 COMMON     9     7      2
 ---------------------------------------------------------------------------------
 (5) ___flge                                              12     4      8     196
                                             21 BANK0     12     4      8
                            ___flmul (ARG)
 ---------------------------------------------------------------------------------
 (5) ___fleq                                              12     4      8      94
                                              0 COMMON    12     4      8
 ---------------------------------------------------------------------------------
 (5) ___fldiv                                             26    18      8    1134
                                              0 BANK0     26    18      8
                           ___xxtofl (ARG)
 ---------------------------------------------------------------------------------
 (2) _UART_WriteString                                     2     0      2      86
                                              1 COMMON     2     0      2
                     _UART_WriteChar
 ---------------------------------------------------------------------------------
 (3) _UART_WriteChar                                       1     1      0      29
                                              0 COMMON     1     1      0
 ---------------------------------------------------------------------------------
 Estimated maximum stack depth 8
 ---------------------------------------------------------------------------------

 Call Graph Graphs:

 _main (ROOT)
   _ESP_SendToThingSpeak
     _UART_WriteString
       _UART_WriteChar
     _sprintf
       _vfprintf
         _vfpfcnvrt
           _efgtoa
             ___fladd
             ___fldiv
               ___xxtofl (ARG)
             ___fleq
             ___flge
               ___flmul (ARG)
                 __Umul8_16
             ___flmul
             ___flneg
             ___flsub
               ___fladd
               ___flmul (ARG)
             ___fltol
             ___fpclassifyf
             _floorf
               ___fldiv (ARG)
             _labs
             _memcpy
             _pad
               _fputc
                 _putch
               _fputs
                 _fputc
             _strcpy
           _fputc
           _read_prec_or_width
             ___wmul
           _utoa
             ___lwdiv
             ___lwmod
             _pad
     _strlen
   _LCD_Clear
     _LCD_Cmd
       _LCD_PulseEnable
   _LCD_Init
     _LCD_Cmd
   _LCD_Set_Cursor
     _LCD_Cmd
   _LCD_String
     _LCD_Char
       _LCD_PulseEnable
   _UART_Init
   ___fldiv
   ___flge
   ___xxtofl
   _read_echo
   _send_trigger
   _sprintf

Address spaces:
Name               Size   Autos  Total    Usage
BITCOMMON           14      0       0      0.0%
BITBANK0            80      0       0      0.0%
BITBANK1            80      0       0      0.0%
BITBANK3            96      0       0      0.0%
BITBANK2            96      0       0      0.0%
COMMON              14     14      14    100.0%
BANK0               80     80      80    100.0%
BANK1               80     72      77     96.2%
BANK3               96     34      42     43.8%
BANK2               96      0      80     83.3%
STACK                0      0       0      0.0%
DATA                 0      0     293      0.0%


Microchip Technology PIC Macro Assembler V3.00 build 20241204225717 
Symbol Table                                                                                   Tue May 13 09:24:43 2025

                ___fldiv@aexp 0039                  ___fldiv@bexp 0038                             pc 0002  
                ___fldiv@sign 0031                            l71 194A                            l80 1BB0  
                          l74 1FFF                            l93 19AB                            l77 1EB7  
                          l86 1AC1                            l96 1983                            l99 1973  
                          fsr 0004           ___wmul@multiplicand 0072                   ?_LCD_String 0073  
         __Umul8_16@word_mpld 0076  ESP_SendToThingSpeak@distance 00D9                           l102 1BB3  
                         l113 1BE7                           l122 195C                           l116 1993  
                         l108 1BEC                           l141 1698                           l109 1BDA  
                         l119 1954                           l151 17C6                           l128 1A9B  
                         l241 1A5D                           l410 1C4B                           l411 1C67  
                         l243 1A75                           l422 1F42                           l431 1967  
                         l600 0A61                           l416 1C7C                           l521 1C2E  
                         l442 1CDB                           l427 1F5B                           l419 1ED6  
                         l435 1CF0                           l531 1B78                           l620 0A4D  
                         l445 1CF0                           l622 0A59                           l614 09DB  
                         l542 0ABF                           l704 1B40                           l537 0A8E  
                         l650 0FF5                           l546 0B3E                           l563 0C0A  
                         l555 0CBD                           l731 000B                           l644 0F71  
                         l548 0B17                           l900 0802                           l573 0C53  
                         l638 0FFF                           l567 0C30                           l735 0040  
                         l743 1270                           l807 1143                           l823 14A2  
                         l584 0CB1                           l576 0C91                           l840 1A08  
                         l912 1A50                           l657 1AD6                           l585 0CBD  
                         l817 153B                           l850 1D7D                           l906 19C4  
                         l762 02AA                           l746 07E3                           l682 1166  
                         l659 1AE8                           l683 1177                           l588 1A2C  
                         l772 058F                           l684 11F7                           l861 1409  
                         l598 08ED                           l871 10F0                           l695 11C1  
                         l856 1350                           l696 11CD                           l688 11A5  
                         l857 1411                           l793 081A                           l874 19D7  
     ESP_SendToThingSpeak@len 019A                           l877 19E5                           l799 0897  
                         l889 1E17                           l897 1B13                           _RA0 0028  
                         _RA1 0029                           _RA2 002A                           _RC0 0038  
                         _RC1 0039                           _RD0 0040                           _RD1 0041  
                         _RD2 0042                           _RD3 0043                           _RD4 0044  
                         _RD5 0045       ESP_SendToThingSpeak@num 0190                           _pad 0003  
                         fsr0 0004                           indf 0000         ?_ESP_SendToThingSpeak 00D9  
                ___flmul@aexp 002D                  ___flmul@bexp 002E                  ___flmul@sign 0028  
                ___flmul@temp 0033                  ___flmul@prod 002F               __end_of_LCD_Cmd 2000  
              _LCD_Set_Cursor 1994                  ___fltol@exp1 0079                          l3010 13DF  
                        l3002 1385                          l2300 0A71                          l3012 13E8  
                        l3004 139E                          l3020 19CA                          l3100 01FD  
                        l2302 0A76                          l2310 0A86                          l3014 1401  
                        l3006 13B5                          l3022 19CF                          l3110 02A1  
                        l3030 1213                          l2400 0B6B                          l2320 0A9D  
                        l2312 0A90                          l2304 0A7B                          l3008 13C6  
                        l3024 19D1                          l3200 066B                          l3120 02C6  
                        l3112 02A6                          l3104 025C                          l3040 125D  
                        l3032 123A                          l2410 0B7F                          l2402 0B6F  
                        l2330 0AB4                          l2322 0AA1                          l2314 0A92  
                        l2306 0A83                          l3018 19C5                          l3210 06F6  
                        l3202 0671                          l3130 02DE                          l3122 02C8  
                        l3114 02B4                          l3106 0295                          l3050 1285  
                        l3042 1262                          l3034 123E                          l3026 11F8  
                        l2420 0BE5                          l2412 0B8A                          l2404 0B78  
                        l2340 0ACB                          l2332 0AB5                          l2324 0AA2  
                        l2316 0A98                          l2308 0A84                          l3220 0766  
                        l3212 0735                          l3204 0678                          l3140 0407  
                        l3132 02E7                          l3124 02CE                          l3116 02BA  
                        l3108 029D                          l3052 128C                          l3044 1267  
                        l3036 1255                          l3028 11FB                          l3300 1454  
                        l2430 0C17                          l2422 0BE8                          l2406 0B7A  
                        l2414 0B8D                          l2350 0AD5                          l2342 0ACD  
                        l2326 0AA7                          l2334 0AB7                          l2318 0A99  
                        l2502 1AE9                          l3230 07AE                          l3222 076C  
                        l3214 073B                          l3206 067E                          l3150 04A4  
                        l3134 0343                          l3142 040D                          l3118 02BE  
                        l3126 02D4                          l3054 129C                          l3062 12CA  
                        l3046 126C                          l3038 1259                          l2510 1A51  
                        l3302 145A                          l2440 0C34                          l2424 0BED  
                        l2416 0BA3                          l2408 0B7E                          l2360 0ADF  
                        l2352 0AD7                          l2344 0ACF                          l2336 0AC5  
                        l2328 0AAC                          l2280 1D8A                          l2504 1AEE  
                        l3232 07B3                          l3224 0771                          l3208 0684  
                        l3216 0741                          l3160 053C                          l3152 04BF  
                        l3144 0423                          l3136 0356                          l3128 02D6  
                        l3080 004D                          l3064 12E1                          l3056 12A6  
                        l3048 1272                          l2520 1A71                          l2512 1A53  
                        l2600 1BED                          l3240 0803                          l3320 149F  
                        l3304 1466                          l3400 1E73                          l3410 1A77  
                        l2530 1C79                          l2442 0C38                          l2434 0C20  
                        l2418 0BE3                          l2426 0BFC                          l2450 0C45  
                        l2362 0AE1                          l2354 0AD9                          l2346 0AD1  
                        l2338 0AC9                          l2370 0AE9                          l2290 0A62  
                        l2282 1D91                          l2506 1AFE                          l3234 07BF  
                        l3226 078F                          l3218 0757                          l3170 059E  
                        l3162 0544                          l3154 04C5                          l3146 0462  
                        l3138 03C8                          l3090 0114                          l3066 12E8  
                        l3058 12AE                          l2514 1A57                          l2610 1C01  
                        l2602 1BEF                          l3250 0836                          l3242 0809  
                        l3330 14BF                          l3322 14A5                          l3314 1487  
                        l3306 1473                          l3402 1E85                          l3412 1A85  
                        l2700 0903                          l2532 1C7B                          l2524 1C2F  
                        l2540 1EEA                          l2460 0C58                          l2452 0C46  
                        l2444 0C3A                          l2436 0C2B                          l2428 0C12  
                        l2380 0B26                          l2372 0AEA                          l2364 0AE3  
                        l2356 0ADB                          l2348 0AD3                          l2292 0A64  
                        l2284 1DA9                          l2276 1D7E                          l2508 1B06  
                        l3236 07C5                          l3228 0799                          l3180 0635  
                        l3172 05A0                          l3164 0583                          l3156 04CD  
                        l3148 0499                          l3092 014D                          l3084 0067  
                        l3068 12F8                          l3076 0041                          l2516 1A64  
                        l2620 1C24                          l2612 1C05                          l2604 1BF5  
                        l3260 0872                          l3252 084A                          l3244 0810  
                        l3340 14F5                          l3332 14D3                          l3308 1479  
                        l3316 1492                          l3420 1B20                          l3404 1E97  
                        l3500 1BDE                          l3414 1A8B                          l2710 091A  
                        l2526 1C43                          l2550 1F58                          l2542 1EF2  
                        l2470 0C96                          l2462 0C5D                          l2454 0C4A  
                        l2446 0C3F                          l2438 0C2F                          l2390 0B42  
                        l2382 0B2A                          l2374 0B01                          l2366 0AE5  
                        l2358 0ADD                          l2294 0A66                          l2286 1DDB  
                        l2278 1D84                          l3190 0650                          l3182 063A  
                        l3174 05A3                          l3166 0589                          l3158 04EE  
                        l3094 01AD                          l3086 0077                          l3078 004B  
                        l2518 1A6B                          l3270 10F3                          l2614 1C16  
                        l2606 1BF8                          l2622 1C2A                          l2630 1B4A  
                        l3262 0878                          l3254 0852                          l3246 082A  
                        l3326 14A7                          l3318 1496                          l3422 1B22  
                        l3430 1A2D                          l3510 1545                          l3406 1EAE  
                        l3502 1BE8                          l3360 1954                          l3408 1A76  
                        l2720 0946                          l2712 092C                          l2704 090C  
                        l2528 1C5F                          l2552 1F5A                          l2544 1EF6  
                        l2536 1EB8                          l2800 0CC2                          l2560 1967  
                        l2480 0CAD                          l2472 0C9B                          l2464 0C6B  
                        l2456 0C50                          l2448 0C41                          l2392 0B47  
                        l2384 0B2B                          l2376 0B1B                          l2368 0AE7  
                        l2296 0A6C                          l3192 0653                          l3184 063E  
                        l3176 0619                          l3168 059D                          l3096 01B8  
                        l3088 00B6                          l3272 1102                          l3280 112E  
                        l2616 1C1C                          l2608 1BFF                          l2640 1B67  
                        l2632 1B51                          l3264 0885                          l3256 0858  
                        l3248 082E                          l3336 14E7                          l3328 14B2  
                        l3352 1522                          l3424 1B24                          l3416 1B14  
                        l3432 1A32                          l3520 1646                          l3512 1553  
                        l3440 1B79                          l3600 171E                          l3362 195A  
                        l2722 094B                          l2730 096B                          l2714 0934  
                        l2706 0911                          l2546 1F1A                          l2538 1ECE  
                        l2490 1AC5                          l2810 0CD2                          l2802 0CC4  
                        l2482 0CAF                          l2474 0CA3                          l2466 0C6F  
                        l2386 0B36                          l2378 0B24                          l2298 0A70  
                        l2650 1A0D                          l2570 1C8F                          l3194 0659  
                        l3186 0644                          l3178 062F                          l3098 01F7  
                        l3282 113F                          l3274 1106                          l2618 1C1D  
                        l2642 1B6E                          l2634 1B53                          l2626 1B41  
                        l3258 086B                          l3346 150F                          l3338 14EF  
                        l3290 1427                          l3370 1A06                          l3426 1B33  
                        l3418 1B18                          l3434 1A38                          l3530 1681  
                        l3522 164F                          l3514 156A                          l3450 1B95  
                        l3442 1B7C                          l3506 1984                          l3610 1768  
                        l3602 1726                          l2740 0994                          l2732 097D  
                        l2724 095D                          l2716 093C                          l2660 08A2  
                        l2548 1F1E                          l2492 1ACC                          l2900 0F56  
                        l2820 0CEC                          l2812 0CD7                          l2804 0CC8  
                        l2556 195D                          l2484 0CB8                          l2476 0CA8  
                        l2468 0C8F                          l2396 0B50                          l2388 0B38  
                        l2580 1CB1                          l2572 1CA2                          l2564 1C7D  
                        l3196 065F                          l3188 064A                          l3276 1114  
                        l3268 10F1                          l2636 1B57                          l2628 1B47  
                        l2644 1B74                          l3348 151A                          l3292 142D  
                        l3364 19E6                          l3436 1A48                          l3532 168A  
                        l3524 1658                          l3516 1573                          l3508 153C  
                        l3380 1FAD                          l3452 1B9B                          l3444 1B80  
                        l3460 1A9D                          l3540 115E                          l3620 17D0  
                        l3612 1793                          l3604 1730                          l2750 09AC  
                        l2742 099C                          l2734 097E                          l2726 0961  
                        l2718 0944                          l2670 08B9                          l2662 08A6  
                        l2654 0898                          l2494 1AD0                          l2910 0F7B  
                        l2902 0F5A                          l2830 0CFF                          l2822 0CF0  
                        l2814 0CDF                          l2806 0CCC                          l2558 1965  
                        l2486 0CBC                          l2478 0CA9                          l2398 0B67  
                        l2574 1CA3                          l2566 1C86                          l3198 0665  
                        l3278 1129                          l2638 1B61                          l3294 1431  
                        l3286 1412                          l3366 19EB                          l3526 1661  
                        l3518 1638                          l3358 1943                          l3390 1FF1  
                        l3382 1FB1                          l3374 1F5D                          l3454 1BA1  
                        l3446 1B89                          l3470 199F                          l3462 1AAB  
                        l3550 118C                          l3542 116E                          l3534 1145  
                        l3622 17ED                          l3614 1797                          l3606 175C  
                        l2760 09C4                          l2752 09B5                          l2744 099E  
                        l2736 098C                          l2728 0962                          l2680 08CB  
                        l2672 08BA                          l2664 08A7                          l2656 089C  
                        l2496 1ADF                          l2488 1AC3                          l2920 0FB9  
                        l2912 0F89                          l2904 0F6E                          l2840 0D1B  
                        l2832 0D07                          l2824 0CF4                          l2816 0CE1  
                        l2808 0CCD                          l2648 1A09                          l2576 1CAB  
                        l3296 1441                          l3288 1423                          l3368 19F8  
                        l3528 166A                          l3384 1FBB                          l3376 1F60  
                        l3456 1BA7                          l3448 1B8F                          l3472 19A3  
                        l3392 1E19                          l3464 1AB1                          l3560 11BB  
                        l3552 118E                          l3536 114A                          l3480 196B  
                        l3616 17C2                          l3608 1761                          l2770 09F3  
                        l2762 09D8                          l2746 09A7                          l2754 09BB  
                        l2738 098E                          l2690 08E2                          l2682 08CF  
                        l2666 08AC                          l2674 08BC                          l2658 089E  
                        l2498 1AE4                          l2930 0FEB                          l2922 0FC4  
                        l2914 0F8D                          l2850 0D5A                          l2834 0D09  
                        l2826 0CF5                          l2818 0CE9                          l2594 1CD0  
                        l2586 1CB9                          l2578 1CAD                          l3298 1445  
                        l3386 1FCD                          l3378 1FA8                          l3474 1974  
                        l3466 1995                          l3394 1E1C                          l3458 1A9C  
                        l3570 11EE                          l3562 11C5                          l3554 119C  
                        l3546 117A                          l3538 114E                          l3490 1BD2  
                        l3482 1970                          l3618 17C9                          l2780 0A31  
                        l2772 09F7                          l2756 09BF                          l2748 09AB  
                        l2692 08E3                          l2684 08D0                          l2676 08C4  
                        l2668 08B1                          l2932 0FEF                          l2924 0FD3  
                        l2916 0FA6                          l2908 0F76                          l2860 0DE1  
                        l2852 0D76                          l2844 0D24                          l2836 0D11  
                        l2828 0CFA                          l2596 1CE0                          l2588 1CC9  
                        l2940 0003                          l3388 1FDF                          l3476 197A  
                        l3468 199A                          l3396 1E64                          l3572 11EF  
                        l3564 11CF                          l3556 11AC                          l3548 1185  
                        l3484 1BB1                          l3580 16A2                          l2790 0A55  
                        l2782 0A40                          l2774 0A10                          l2766 09E0  
                        l2758 09C0                          l2686 08D5                          l2694 08E5  
                        l2678 08C7                          l2934 0FF0                          l2926 0FDD  
                        l2918 0FAC                          l2870 0E4E                          l2862 0DEF  
                        l2854 0DA0                          l2846 0D32                          l2838 0D16  
                        l2598 1CE5                          l2950 0033                          l2942 0009  
                        l3398 1E69                          l3566 11E5                          l3558 11B7  
                        l3494 1BD5                          l3486 1BB9                          l3478 1968  
                        l3590 16BD                          l3582 16A7                          ?_pad 0028  
                        l2792 0A57                          l2784 0A44                          l2768 09E5  
                        l2776 0A16                          l2696 08F5                          l2688 08DA  
                        l2936 0FF7                          l2928 0FDF                          l2880 0EF5  
                        l2872 0E6B                          l2864 0E0C                          l2856 0DBC  
                        l2848 0D3F                          l2960 1D47                          l2952 1CF1  
                        l2944 000E                          l3568 11EA                          l3496 1BD7  
                        l3488 1BC9                          l3592 16C8                          l3584 16AC  
                        l3576 1699                          l2786 0A4C                          l2778 0A23  
                        l2698 0901                          l2890 0F41                          l2882 0F1D  
                        l2874 0E96                          l2866 0E1A                          l2858 0DD8  
                        l2962 1D4C                          l2954 1D11                          l2946 001D  
                        l3498 1BD9                          l3594 1707                          l3586 16B1  
                        l3578 16A1                          l2788 0A51                          l2892 0F42  
                        l2884 0F26                          l2876 0EA4                          l2868 0E37  
                        l2972 1D79                          l2956 1D28                          l2980 10DC  
                        l2948 0025                          l3596 170C                          l3588 16B6  
                        l2894 0F4B                          l2886 0F34                          l2878 0ECF  
                        l2798 0CBE                          l2958 1D2E                          l2966 1D51  
                        l2990 1323                          l2982 10E0                          l3598 1716  
                        l2888 0F3D                          l2896 0F51                          l2968 1D57  
                        l2992 1342                          l2984 10E1                          l2976 19AC  
                        l2898 0F55                          l2994 134F                          l2978 19AE  
                        l2996 1356                          l2988 1303                          l2998 1370  
                        STR_1 1080                          STR_2 103C                          STR_3 1010  
                        STR_4 10CB                          STR_5 1059                          STR_6 106E  
                        STR_7 10C2                          STR_8 1056                          STR_9 10D8  
                        _BRGH 04C2                          _CREN 00C4                          u3100 1DFC  
                        u3110 0A70                          u3111 0A6F                          u4000 08AC  
                        u3200 0B01                          u3120 0A76                          u4001 08AB  
                        u3201 0B00                          u3121 0A75                          u4010 08B1  
                        u3210 0B0A                          u3130 0A7B                          u4011 08B0  
                        u3211 0B08                          u3131 0A7A                          u4100 0961  
                        u4020 08CF                          u3300 0B6B                          u3220 0B0B  
                        u3140 0A98                          u3060 1D84                          u4101 0960  
                        u4021 08CE                          u3301 0B6A                          u3205 0AFD  
                        u3141 0A97                          u3061 1D83                          u4030 08D5  
                        u3310 0B6F                          u3230 0B1B                          u3150 0AA1  
                        u3070 1D8A                          u4031 08D4                          u3311 0B6E  
                        u3231 0B1A                          u3151 0AA0                          u3071 1D89  
                        u4200 09D8                          u4120 097D                          u4040 08DA  
                        u3320 0B7E                          u3240 0B2A                          u3160 0AA7  
                        u3080 1DA9                          u5000 014D                          u4201 09D7  
                        u4121 097C                          u4041 08D9                          u3321 0B7D  
                        u3241 0B29                          u3161 0AA6                          u3081 1DA8  
                        u5001 014C                          u4210 09DF                          u4130 0994  
                        u4050 08F5                          u3410 0C2F                          u3170 0AAC  
                        u3090 1DDB                          u4211 09DE                          u4131 0993  
                        u4115 0964                          u4051 08F4                          u3411 0C2E  
                        u3171 0AAB                          u3091 1DDA                          u5011 0172  
                        u4220 09E5                          u4140 099C                          u4060 0911  
                        u4300 0CD7                          u3500 0C80                          u3420 0C34  
                        u3340 0BA3                          u3260 0B3E                          u3180 0AC5  
                        u5100 0423                          u5020 01AD                          u5012 0175  
                        u4221 09E4                          u4141 099B                          u4125 0979  
                        u4061 0910                          u4301 0CD6                          u3421 0C33  
                        u3405 0C24                          u3341 0BA2                          u3261 0B3D  
                        u3181 0AC4                          u5101 0422                          u5021 01AC  
                        u5013 017C                          u4230 09F7                          u4070 094B  
                        u4310 0CF4                          u3510 0C8F                          u3430 0C3F  
                        u3270 0B42                          u3190 0AC9                          u5110 0499  
                        u5014 017F                          u4231 09F6                          u4071 094A  
                        u4311 0CF3                          u3511 0C8E                          u3431 0C3E  
                        u3351 0BBC                          u3343 0B9F                          u3335 0B83  
                        u3271 0B41                          u3255 0B2F                          u3191 0AC8  
                        u3095 1DD7                          u5111 0498                          u5031 0220  
                        u5023 01A9                          u5015 0186                          u4240 0A06  
                        u4160 09AB                          u4320 0CFA                          u3520 0C96  
                        u3440 0C45                          u3360 0BD0                          u3352 0BBD  
                        u3280 0B47                          u3600 1B13                          u5200 0757  
                        u5120 04BF                          u5040 025B                          u5032 0223  
                        u5016 0189                          u6000 11BB                          u4161 09AA  
                        u4321 0CF9                          u3521 0C95                          u3505 0C7B  
                        u3441 0C44                          u3361 0BD1                          u3353 0BC2  
                        u3281 0B46                          u3601 1B12                          u5201 0756  
                        u5121 04BE                          u5105 041F                          u5041 025A  
                        u5033 022A                          u6001 11BA                          u4250 0A23  
                        u4330 0CFF                          u3530 0C9B                          u3450 0C4A  
                        u3370 0BED                          u3362 0BD6                          u3354 0BC3  
                        u5210 0766                          u5130 04C5                          u5050 0295  
                        u5034 022D                          u3610 1A57                          u6010 11C1  
                        u4251 0A22                          u4155 09A0                          u4411 0DFE  
                        u4331 0CFE                          u3531 0C9A                          u3451 0C49  
                        u3371 0BEC                          u3363 0BD7                          u3355 0BC8  
                        u3291 0B59                          u5211 0765                          u5131 04C4  
                        u5051 0294                          u5043 0257                          u5035 0234  
                        u3611 1A56                          u6011 11C0                          u4260 0A40  
                        u4180 09BF                          u3700 1EF6                          u4412 0E05  
                        u4340 0D16                          u3540 0CA8                          u3460 0C50  
                        u3380 0C12                          u3356 0BC9                          u3292 0B60  
                        u5220 079F                          u5140 053C                          u5060 02A1  
                        u5036 0237                          u5300 113F                          u6020 11C5  
                        u4261 0A3F                          u4245 0A01                          u4181 09BE  
                        u4085 094D                          u3701 1EF5                          u4501 0F0F  
                        u4421 0E29                          u4413 0E0C                          u4405 0DDA  
                        u4341 0D15                          u3541 0CA7                          u3461 0C4F  
                        u3381 0C11                          u3293 0B67                          u5221 079D  
                        u5205 0753                          u5141 053B                          u5061 02A0  
                        u5301 113E                          u6021 11C4                          u4270 0A55  
                        u4190 09C4                          u4502 0F16                          u4422 0E30  
                        u4350 0D1B                          u3550 0CAD                          u3470 0C57  
                        u3390 0C17                          u5230 07A0                          u5150 0589  
                        u5070 02BA                          u5310 1423                          u6030 11DA  
                        u4271 0A54                          u4255 0A1F                          u4191 09C3  
                        u4175 09AE                          u4095 0956                          u3711 1F05  
                        u4503 0F1D                          u4423 0E37                          u4351 0D1A  
                        u3551 0CAC                          u3471 0C56                          u3391 0C16  
                        u5215 0762                          u5151 0588                          u5071 02B9  
                        u5311 1422                          u3720 1F1E                          u3712 1F06  
                        u4600 0F8D                          u4280 0CCC                          u3560 0CBC  
                        u3480 0C5D                          u5240 07B3                          u5160 0619  
                        u5080 02BE                          u3640 1A71                          u5320 1441  
                        u6040 11EA                          u4265 0A3C                          u3721 1F1D  
                        u3713 1F0B                          u4601 0F8C                          u4441 0E5D  
                        u4361 0D68                          u4281 0CCB                          u3561 0CBB  
                        u3481 0C5C                          u5241 07B2                          u5161 0618  
                        u5081 02BD                          u3641 1A70                          u3625 1A5E  
                        u5321 1440                          u6041 11E9                          u3650 1C43  
                        u3714 1F0C                          u3570 1AD0                          u4610 0F9C  
                        u4530 0F41                          u4442 0E64                          u4362 0D6F  
                        u4290 0CD2                          u3490 0C6F                          u3810 1CC8  
                        u5170 063A                          u5090 02CE                          u5250 0809  
                        u5330 1466                          u5410 1F81                          u6050 11EE  
                        u3651 1C42                          u3731 1F2D                          u3715 1F11  
                        u3571 1ACF                          u4531 0F40                          u4515 0F1F  
                        u4451 0E88                          u4443 0E6B                          u4435 0E39  
                        u4371 0D84                          u4363 0D76                          u4291 0CD1  
                        u3491 0C6E                          u3811 1CC7                          u5171 0639  
                        u5091 02CD                          u3635 1A65                          u5251 0808  
                        u5331 1465                          u5411 1F7D                          u6051 11ED  
                        u6035 11D5                          u6107 1712                          u3660 1C5F  
                        u3740 1F58                          u3732 1F2E                          u3716 1F12  
                        u4620 0FB9                          u4452 0E8F                          u4372 0D8B  
                        u3820 1CCF                          u4700 1D47                          u5180 063E  
                        u3900 1C16                          u5260 0872                          u5340 14BE  
                        u6060 1726                          u3661 1C5E                          u3741 1F57  
                        u3733 1F33                          u4621 0FB8                          u4525 0F36  
                        u4461 0EB3                          u4453 0E96                          u4381 0DAE  
                        u4373 0D92                          u3821 1CCE                          u3805 1CBA  
                        u4701 1D46                          u5181 063D                          u5165 0615  
                        u3901 1C15                          u5261 0871                          u5341 14BD  
                        u5405 1F75                          u6117 1765                          u6061 1725  
                        u5350 195A                          u3670 1C79                          u3734 1F34  
                        u3590 1AE4                          u4630 0FD3                          u4550 0F55  
                        u4470 0EDB                          u4462 0EBA                          u4382 0DB5  
                        u3750 1965                          u4710 1D57                          u5190 0671  
                        u5270 0878                          u6070 1793                          u5351 1959  
                        u3671 1C78                          u3735 1F39                          u3591 1AE3  
                        u4631 0FD2                          u4615 0F97                          u4551 0F54  
                        u4463 0EC1                          u4391 0DCA                          u4383 0DBC  
                        u3751 1964                          u4711 1D56                          u5191 0670  
                        u5271 0877                          u6207 1FFA                          u6127 17CD  
                        u6071 1792                          u3736 1F3A                          u3680 1ECE  
                        u4640 0FEF                          u4560 0F5A                          u4392 0DD1  
                        u3840 1CE0                          u3760 1C86                          u4720 1D65  
                        u4800 1366                          u3920 1C2A                          u5280 0885  
                        u5360 1A06                          u5520 1FCA                          u5504 1FBB  
                        u5440 1F93                          u5424 1F84                          u6080 17C2  
                        u3745 1F54                          u3681 1ECD                          u3585 1AD7  
                        u4641 0FEE                          u4625 0FB5                          u4561 0F59  
                        u4545 0F44                          u4481 0EE7                          u4393 0DD8  
                        u3841 1CDF                          u3761 1C85                          u3921 1C29  
                        u3905 1C12                          u5281 0884                          u5361 1A05  
                        u6217 154D                          u5521 1FC6                          u5441 1F8F  
                        u6137 17F5                          u6081 17C1                          u3690 1EEA  
                        u4570 0F6E                          u4490 0F03                          u4482 0EEE  
                        u3850 1CE5                          u3770 1C9D                          u4730 1D71  
                        u4810 1384                          u4650 0009                          u5290 1102  
                        u3930 1B47                          u5610 1E2B                          u3675 1C75  
                        u3691 1EE9                          u4635 0FCF                          u4571 0F6D  
                        u4483 0EF5                          u4475 0ED6                          u3851 1CE4  
                        u3835 1CD2                          u4731 1D6F                          u4811 1383  
                        u4651 0008                          u5291 1101                          u3915 1C1E  
                        u3931 1B46                          u6227 1564                          u5515 1FBE  
                        u5435 1F87                          u5611 1E27                          u6147 196D  
                        u4580 0F75                          u3780 1CB1                          u4740 1D72  
                        u4820 1393                          u4660 0033                          u4900 123A  
                        u3860 1BF5                          u5380 1F6F                          u5700 1E61  
                        _RCIF 0065                          u4581 0F74                          u3781 1CB0  
                        u4725 1D60                          u4805 1361                          u4661 0032  
                        u4901 1239                          u3861 1BF4                          u5285 0881  
                        u6237 157B                          u5381 1F6B                          u6157 1EB2  
                        u5701 1E5D                          u5605 1E1F                          u4590 0F7B  
                        u3790 1CB8                          u4670 1D1F                          u4830 139E  
                        u4750 19C4                          u4910 1262                          u3950 1B57  
                        u5550 1FDC                          u5534 1FCD                          u5470 1FA5  
                        u5454 1F96                          u4591 0F7A                          u4495 0EFE  
                        u3791 1CB7                          u3775 1C98                          u4831 139D  
                        u4751 19C3                          u4911 1261                          u3951 1B56  
                        u6247 1640                          u5551 1FD8                          u5471 1FA1  
                        u5375 1F63                          u6167 1B84                          u4680 1D2E  
                        u4760 10E0                          u4920 1267                          u3880 1C05  
                        u3960 1B61                          u5720 1E70                          u5640 1E3D  
                        u5624 1E2E                          u4681 1D2D                          u4841 13A7  
                        u4825 138E                          u4761 10DF                          u4665 002F  
                        u4921 1266                          u3881 1C04                          u3961 1B60  
                        u3945 1B4B                          u6257 167B                          u5545 1FD0  
                        u5465 1F99                          u6177 1BAB                          u5721 1E6C  
                        u5641 1E39                          u6097 16BA                          u4690 1D3C  
                        u4850 13D4                          u4842 13AE                          u4770 1331  
                        u4930 1285                          u5490 1FB8                          u5394 1F72  
                        u5810 1EA6                          u5714 1E64                          u4675 1D1A  
                        u4843 13B5                          u4931 1284                          u3875 1BF9  
                        u6267 1692                          u5491 1FB4                          u6187 197E  
                        u5811 1EA2                          u5635 1E31                          u4860 13DF  
                        u4780 134F                          u4940 128C                          u3980 1B74  
                        u5580 1FEE                          u5564 1FDF                          u5484 1FA8  
                        u5900 1BDE                          u4861 13DE                          u4781 134E  
                        u4941 128B                          u3981 1B73                          u3965 1B5D  
                        u5581 1FEA                          u6197 1FAF                          u5805 1E9A  
                        u5901 1BDD                          u5830 1A9B                          u3990 08A6  
                        u4870 13F6                          u4790 1356                          u4950 12E1  
                        u5750 1E82                          u5734 1E73                          u5670 1E4F  
                        u5654 1E40                          u5910 1BE7                          u5831 1A9A  
                        u3991 08A5                          u4695 1D37                          u4855 13CF  
                        u4791 1355                          u4775 132C                          u4951 12DE  
                        u3895 1C06                          u3975 1B68                          u5575 1FE2  
                        u5751 1E7E                          u5671 1E4B                          u5911 1BE6  
                        u4880 1401                          u4960 12E8                          u5840 1A48  
                        u5824 1EA9                          u5920 114A                          u4881 1400  
                        u4785 134B                          u4961 12E7                          u5841 1A47  
                        u5745 1E76                          u5665 1E43                          u5921 1149  
                        u4890 19E5                          u4970 0066                          u5594 1FF1  
                        u5850 1AC1                          u5930 114E                          _OERR 00C1  
                        u4875 13F1                          u4891 19E4                          u4971 0065  
                        u5851 1AC0                          u5931 114D                          u5860 199A  
                        u5780 1E94                          u5764 1E85                          u5684 1E52  
                        u5940 116E                          u4981 00D9                          u5861 1999  
                        u5781 1E90                          u5941 116D                          u4990 0114  
                        u4982 00DC                          u5870 1BB9                          u4991 0113  
                        u4983 00E3                          u5775 1E88                          u5695 1E55  
                        u5871 1BB8                          u4984 00E6                          u5960 118B  
                        u5880 1BC9                          u4993 0110                          u4985 00ED  
                        u5961 118A                          u5881 1BC8                          u4986 00F0  
                        u5794 1E97                          u5890 1BD2                          u5955 117D  
                        u5891 1BD1                          u5980 11AB                          u5981 11AA  
                        u5975 119D                          u5995 11B0                          _TMR1 000E  
                        _SPEN 00C7                          _TXEN 04C5                          _TXIF 0064  
                        _SYNC 04C4                          _dbuf 0110                          _labs 10DC  
                        _main 1699                          _prec 00EA                          pad@i 002D  
                        pad@p 002B                          btemp 007E                          _utoa 0803  
               ___fpclassifyf 1CF1                          start 0000               ___fldiv@new_exp 0032  
                       ??_pad 007D              __end_of_LCD_Char 1EB8              __end_of_LCD_Init 1BB1  
                LCD_Char@data 0072                 ___fltol@sign1 0078                         ?_labs 0070  
             __end_of___fladd 0CBE                         ?_main 0070               __end_of___fldiv 0A62  
             __end_of___flneg 1968                         STR_10 10AA                         STR_11 1056  
                       STR_12 1059                         STR_13 106E                         STR_14 10C2  
                       STR_22 10D4                         STR_15 1056                         STR_16 108E  
                       STR_17 109C                         STR_18 10B6                         STR_19 10D0  
             __end_of___flmul 1000               __end_of___flsub 1A2D               __end_of___fltol 1CF1  
                       ?_utoa 002F                         _T1CON 0010               __end_of___lwdiv 1C2F  
             __end_of___lwmod 1B79                         _RCREG 001A                  vfpfcnvrt@fmt 005B  
                       _SPBRG 0099                         _PORTA 0005                         _TRISA 0085  
                       _TRISC 0087                         _TRISD 0088                         _TXREG 0019  
      __end_of_LCD_Set_Cursor 19AC                         _flags 00EC           read_prec_or_width@c 0078  
         read_prec_or_width@n 0079                         _fputc 1D7E                         _fputs 1AE9  
                       labs@a 0070                         pad@fp 0028                         _width 00E8  
                       _putch 0802                         main@b 019C                         main@d 01AE  
                       main@t 01AC                         pclath 000A                         utoa@d 0031  
                       utoa@i 0037                         utoa@p 0035                         utoa@w 0033  
                       status 0003                         wtemp0 007E               __end_of_sprintf 1B41  
              ?___fpclassifyf 0070               __initialization 07E4                  __end_of_labs 10F1  
                __end_of_main 1800                  __end_of_utoa 0898      __end_of_UART_WriteString 1A9C  
                      ??_labs 0074                        ??_main 00E5                        ??_utoa 007E  
           __end_of_LCD_Clear 1984        ??_ESP_SendToThingSpeak 00DD                     ??_LCD_Cmd 0070  
  __end_of_read_prec_or_width 1144               ?_LCD_Set_Cursor 0073                        _ADCON1 009F  
                      ?_fputc 0070                        ?_fputs 0020                        ?_putch 0070  
             _LCD_PulseEnable 1943                        _OSCCON 008F                        _TMR1ON 0080  
            __end_of___xxtofl 11F8                  vfprintf@cfmt 0069             __end_of_UART_Init 1994  
                      ___flge 1EB8                        ___fleq 1C2F                     ??___fladd 0020  
                      ___wmul 1A51                     ??___fldiv 0028                     ??___flneg 0074  
                   ??___flmul 0079                     ??___flsub 007E                     ??___fltol 0074  
                      _efgtoa 11F8                     ??___lwdiv 0074                     ??___lwmod 0074  
                      _floorf 1303                        _memcpy 19C5          read_prec_or_width@ap 0077  
                      pad@buf 002A                        _strcpy 19AC                        _strlen 1A2D  
                      fputc@c 0070                        fputs@c 0025                        fputs@i 0026  
                      fputs@s 0020               ___fpclassifyf@e 0020               ___fpclassifyf@u 0022  
             ___fpclassifyf@x 0070                        putch@c 0070              __end_of_vfprintf 1A09  
                      utoa@fp 002F                     ??_sprintf 00CC                    ___flge@ff1 0035  
                  ___flge@ff2 0039               ??___fpclassifyf 0074                  ___xxtofl@arg 007A  
                ___xxtofl@exp 0079                  ___xxtofl@val 0070                    ___fleq@ff1 0070  
                  ___fleq@ff2 0074                     ?_LCD_Char 0070       __end_of__initialization 07FC  
                   ?_LCD_Init 0070                    ___flneg@f1 0070                    ___fltol@f1 0070  
              __pcstackCOMMON 0070              read_echo@timeout 0074                 __end_of_fputc 1E18  
               __end_of_fputs 1B14                 __end_of_putch 0803                  ??_LCD_String 0075  
     __end_of_LCD_PulseEnable 194B                       ??_fputc 0074                       ??_fputs 0023  
                     ??_putch 0070                    __pbssBANK1 00E8                    __pbssBANK2 0110  
                  __pbssBANK3 01B2                    ??_LCD_Char 0070                    ??_LCD_Init 0073  
           _LCD_Set_Cursor$84 0075            __end_of_LCD_String 1AC2             __end_of__Umul8_16 1AE9  
                  _efgtoa$705 00A6                    __pmaintext 1699                       ?___flge 0035  
                     ?___fleq 0070                       ?___wmul 0070                       ?_efgtoa 004E  
                     ?_floorf 003A                       ?_memcpy 0070                       ?_strcpy 0070  
                     ?_strlen 0070                       _LCD_Cmd 1F5C                 ?_send_trigger 0070  
                   ?___xxtofl 0070                    __stringtab 1000                 LCD_String@str 0073  
                     ___fladd 0A62                       ___fldiv 0898                       ___flneg 195D  
                     ___flmul 0CBE                       ___flsub 1A09                       ___fltol 1C7D  
                     ___lwdiv 1BED                       ___lwmod 1B41                     ?_vfprintf 0065  
           ?_UART_WriteString 0071              ??_LCD_Set_Cursor 0074                       __ptext1 1968  
                     __ptext2 1BB1                       __ptext3 1144                       __ptext4 1984  
                     __ptext5 1A9C                       __ptext6 1E18                       __ptext7 1994  
                     __ptext8 1B79                       __ptext9 1974                ??_send_trigger 0070  
          ??_UART_WriteString 0073         read_prec_or_width@fmt 0076                    ??___xxtofl 0074  
           __end_of_read_echo 1BED              ?_LCD_PulseEnable 0070                       efgtoa@c 0054  
                     efgtoa@d 00AB                       efgtoa@e 00AF                       efgtoa@f 0050  
                     efgtoa@g 00C4                       efgtoa@h 00B9                       efgtoa@i 00B7  
                     efgtoa@l 00BD                       efgtoa@m 00AD                       efgtoa@n 00C2  
                     efgtoa@p 00A2                       efgtoa@t 00A4                       efgtoa@u 00C8  
                     efgtoa@w 00B1                     _LCD_Clear 1974                       _sprintf 1B14  
                     clrloop0 194C          end_of_initialization 07FC                       floorf@e 0048  
                     floorf@m 0044                       floorf@u 004A                       floorf@x 003A  
                     memcpy@d 0075                       memcpy@n 0072                       memcpy@s 0076  
                     fputc@fp 0072                       fputs@fp 0021            _read_prec_or_width 10F1  
           __end_of_vfpfcnvrt 153C                    efgtoa@mode 00A9                    efgtoa@sign 00C1  
         ?_read_prec_or_width 0076                       psplit$0 220038              vfpfcnvrt@convarg 005F  
              _UART_WriteChar 1953                    ??_vfprintf 007E                       strcpy@d 0072  
                     strlen@a 0072                       strlen@s 0070                     _UART_Init 1984  
                 ___fladd@grs 007B                 ___xxtofl@sign 0078                    ?_LCD_Clear 0070  
        ??_read_prec_or_width 0078                   ___fldiv@grs 0034                   ___fldiv@rem 002D  
                 ___flmul@grs 0029                    LCD_Cmd@cmd 0072        __end_of_UART_WriteChar 195D  
              __end_of___flge 1F5C                __end_of___fleq 1C7D                   vfpfcnvrt@ap 005C  
                 vfpfcnvrt@cp 0064                   vfpfcnvrt@fp 0059                __end_of___wmul 1A76  
                  ?_UART_Init 0070                __end_of_efgtoa 07E4                __end_of_floorf 1412  
              __end_of_memcpy 19E6                    floorf@F521 01B2                __end_of_strcpy 19C5  
              __end_of_strlen 1A51           start_initialization 07E4                   __end_of_pad 0041  
       __end_of___fpclassifyf 1D7E          __end_of_send_trigger 1974               ?_UART_WriteChar 0070  
                 vfprintf@fmt 0067                      ??___flge 003D                      ??___fleq 0078  
                    ??___wmul 0074                      ??_efgtoa 0055                     __Umul8_16 1AC2  
                    ??_floorf 003E                      ??_memcpy 0074                      ??_strcpy 0072  
                    ??_strlen 0072                     ___fladd@a 0074                     ___fladd@b 0070  
                    ?_LCD_Cmd 0070                     ___fldiv@a 0020                     ___fldiv@b 0024  
                   ___flmul@a 0024                     ___flmul@b 0020                     ___flsub@a 0035  
                   ___flsub@b 0039                     ___latbits 0002                 __pcstackBANK0 0020  
               __pcstackBANK1 00A0                 __pcstackBANK3 0190                   ??_LCD_Clear 0073  
            ___lwdiv@dividend 0072                      ?___fladd 0070                      ?___fldiv 0020  
                    ?___flneg 0070                      ?___flmul 0020                      ?___flsub 0035  
                    ?___fltol 0070                    ?__Umul8_16 0070                      ?___lwdiv 0070  
                    ?___lwmod 0070                   ??_UART_Init 0070                     __pstrings 1000  
            ___lwdiv@quotient 0074                    pnum$text22 0022                      ?_sprintf 006A  
                   _read_echo 1BB1                      _LCD_Char 1E18                      _LCD_Init 1B79  
              ___wmul@product 0074                     clear_ram0 194B                     _vfpfcnvrt 1412  
                 __stringbase 100F             ___wmul@multiplier 0070                    vfpfcnvrt@c 0063  
                  ?_read_echo 0070  __end_of_ESP_SendToThingSpeak 1699                     memcpy@tmp 0074  
                  vfprintf@ap 0068                    vfprintf@fp 0065                   ??__Umul8_16 0072  
                  ?_vfpfcnvrt 0059            __end_of__stringtab 1010            ___fpclassifyf@F465 01B6  
                  sprintf@fmt 006B                      ___xxtofl 1144                  _send_trigger 1968  
             ___lwdiv@divisor 0070               ___lwdiv@counter 0076                      __ptext10 1F5C  
                    __ptext11 1943                      __ptext20 10F1                      __ptext12 153C  
                    __ptext21 1A51                      __ptext13 1A2D                      __ptext30 1303  
                    __ptext22 11F8                      __ptext14 1B14                      __ptext31 1CF1  
                    __ptext23 19AC                      __ptext15 19E6                      __ptext40 0898  
                    __ptext32 1C7D                      __ptext24 0003                      __ptext16 1412  
                    __ptext41 1A76                      __ptext33 1A09                      __ptext25 1AE9  
                    __ptext17 0803                      __ptext42 1953                      __ptext34 0A62  
                    __ptext26 1D7E                      __ptext18 1B41                      __ptext35 195D  
                    __ptext27 0802                      __ptext19 1BED                      __ptext36 0CBE  
                    __ptext28 19C5                      __ptext37 1AC2                      __ptext29 10DC  
                    __ptext38 1EB8                      __ptext39 1C2F                    strcpy@dest 0070  
            ??_UART_WriteChar 0070                      efgtoa@fp 004E                      efgtoa@ne 00A0  
                    efgtoa@pp 00A8                      efgtoa@ou 00B3                      _vfprintf 19E6  
          pnum$text22_split_1 0038                    _LCD_String 1A9C                      memcpy@d1 0070  
                    memcpy@s1 0071                   ??_read_echo 0072                     sprintf@ap 00CD  
            _UART_WriteString 1A76              ___lwmod@dividend 0072                     strcpy@src 0071  
                   stringcode 100A             ??_LCD_PulseEnable 0070                   efgtoa@nmode 00AA  
                 ??_vfpfcnvrt 005D        __Umul8_16@multiplicand 0070                      sprintf@f 00CE  
                    sprintf@s 006A               ___lwmod@divisor 0070               ___lwmod@counter 0074  
                    stringdir 100A                      stringtab 1000          _ESP_SendToThingSpeak 153C  
           LCD_Set_Cursor@col 0073             LCD_Set_Cursor@row 0074                 ___fladd@signs 0078  
           UART_WriteString@s 0071               UART_WriteChar@c 0070                  ___fladd@aexp 0079  
                ___fladd@bexp 007A          __Umul8_16@multiplier 0078             __Umul8_16@product 0074  
