

Microchip MPLAB XC8 Assembler V3.00 build 20241204225717 
                                                                                               Sat May 10 20:04:56 2025

Microchip MPLAB XC8 C Compiler v3.00 (Free license) build 20241204225717 Og1 
     1                           	processor	16F887
     2                           	pagewidth 120
     3                           	opt	flic
     4                           	psect	strings,global,class=STRING,space=0,delta=2,noexec
     5                           	psect	cinit,global,class=CODE,space=0,merge=1,delta=2
     6                           	psect	bssBANK1,global,class=BANK1,space=1,delta=1,noexec
     7                           	psect	bssBANK2,global,class=BANK2,space=1,delta=1,noexec
     8                           	psect	clrtext,global,class=CODE,space=0,delta=2
     9                           	psect	cstackBANK3,global,class=BANK3,space=1,delta=1,noexec
    10                           	psect	cstackBANK1,global,class=BANK1,space=1,delta=1,noexec
    11                           	psect	cstackCOMMON,global,class=COMMON,space=1,delta=1,noexec
    12                           	psect	cstackBANK0,global,class=BANK0,space=1,delta=1,noexec
    13                           	psect	maintext,global,class=CODE,space=0,split=1,delta=2
    14                           	psect	text1,local,class=CODE,space=0,merge=1,delta=2,group=3
    15                           	psect	text2,local,class=CODE,space=0,merge=1,delta=2,group=1
    16                           	psect	text3,local,class=CODE,space=0,merge=1,delta=2,group=1
    17                           	psect	text4,local,class=CODE,space=0,merge=1,delta=2,group=1
    18                           	psect	text5,local,class=CODE,space=0,merge=1,delta=2,group=2
    19                           	psect	text6,local,class=CODE,space=0,merge=1,delta=2,group=1
    20                           	psect	text7,local,class=CODE,space=0,merge=1,delta=2,group=3
    21                           	psect	text8,local,class=CODE,space=0,merge=1,delta=2,group=1
    22                           	psect	text9,local,class=CODE,space=0,merge=1,delta=2,group=3
    23                           	psect	text10,local,class=CODE,space=0,merge=1,delta=2,group=3
    24                           	psect	text11,local,class=CODE,space=0,merge=1,delta=2,group=3
    25                           	psect	text12,local,class=CODE,space=0,merge=1,delta=2,group=3
    26                           	psect	text13,local,class=CODE,space=0,merge=1,delta=2,group=3
    27                           	psect	text14,local,class=CODE,space=0,merge=1,delta=2,group=3
    28                           	psect	text15,local,class=CODE,space=0,merge=1,delta=2,group=3
    29                           	psect	text16,local,class=CODE,space=0,merge=1,delta=2,group=2
    30                           	psect	text17,local,class=CODE,space=0,merge=1,delta=2,group=2
    31                           	psect	text18,local,class=CODE,space=0,merge=1,delta=2,group=2
    32                           	psect	text19,local,class=CODE,space=0,merge=1,delta=2,group=2
    33                           	psect	text20,local,class=CODE,space=0,merge=1,delta=2,group=2
    34                           	psect	text21,local,class=CODE,space=0,merge=1,delta=2,group=2
    35                           	psect	text22,local,class=CODE,space=0,merge=1,delta=2,group=2
    36                           	psect	text23,local,class=CODE,space=0,merge=1,delta=2,group=2
    37                           	psect	text24,local,class=CODE,space=0,merge=1,delta=2,group=2
    38                           	psect	text25,local,class=CODE,space=0,merge=1,delta=2
    39                           	psect	text26,local,class=CODE,space=0,merge=1,delta=2
    40                           	psect	text27,local,class=CODE,space=0,merge=1,delta=2,group=2
    41                           	psect	text28,local,class=CODE,space=0,merge=1,delta=2
    42                           	psect	text29,local,class=CODE,space=0,merge=1,delta=2
    43                           	psect	text30,local,class=CODE,space=0,merge=1,delta=2
    44                           	psect	text31,local,class=CODE,space=0,merge=1,delta=2
    45                           	psect	text32,local,class=CODE,space=0,merge=1,delta=2
    46                           	psect	text33,local,class=CODE,space=0,merge=1,delta=2
    47                           	psect	text34,local,class=CODE,space=0,merge=1,delta=2
    48                           	psect	config,global,abs,ovrld,class=CONFIG,space=4,delta=2,noexec
    49                           	psect	text6_split_1,local,class=CODE,space=0,merge=1,delta=2
    50                           	dabs	1,0x7E,2
    51     0000                     
    52                           ; Generated 12/10/2023 GMT
    53                           ; 
    54                           ; Copyright © 2023, Microchip Technology Inc. and its subsidiaries ("Microchip")
    55                           ; All rights reserved.
    56                           ; 
    57                           ; This software is developed by Microchip Technology Inc. and its subsidiaries ("Microch
      +                          ip").
    58                           ; 
    59                           ; Redistribution and use in source and binary forms, with or without modification, are
    60                           ; permitted provided that the following conditions are met:
    61                           ; 
    62                           ;     1. Redistributions of source code must retain the above copyright notice, this lis
      +                          t of
    63                           ;        conditions and the following disclaimer.
    64                           ; 
    65                           ;     2. Redistributions in binary form must reproduce the above copyright notice, this 
      +                          list
    66                           ;        of conditions and the following disclaimer in the documentation and/or other
    67                           ;        materials provided with the distribution. Publication is not required when
    68                           ;        this file is used in an embedded application.
    69                           ; 
    70                           ;     3. Microchip's name may not be used to endorse or promote products derived from th
      +                          is
    71                           ;        software without specific prior written permission.
    72                           ; 
    73                           ; THIS SOFTWARE IS PROVIDED BY MICROCHIP "AS IS" AND ANY EXPRESS OR IMPLIED WARRANTIES,
    74                           ; INCLUDING, BUT NOT LIMITED TO, THE IMPLIED WARRANTIES OF MERCHANTABILITY AND FITNESS F
      +                          OR
    75                           ; PURPOSE ARE DISCLAIMED.  IN NO EVENT SHALL MICROCHIP BE LIABLE FOR ANY DIRECT, INDIREC
      +                          T,
    76                           ; INCIDENTAL, SPECIAL, EXEMPLARY, OR CONSEQUENTIAL DAMAGES (INCLUDING BUT NOT LIMITED TO
    77                           ; PROCUREMENT OF SUBSTITUTE GOODS OR SERVICES; LOSS OF USE, DATA OR PROFITS; OR BUSINESS
    78                           ; INTERRUPTION) HOWSOEVER CAUSED AND ON ANY THEORY OF LIABILITY, WHETHER IN CONTRACT, ST
      +                          RICT
    79                           ; LIABILITY, OR TORT (INCLUDING NEGLIGENCE OR OTHERWISE) ARISING IN ANY WAY OUT OF THE U
      +                          SE OF
    80                           ; THIS SOFTWARE, EVEN IF ADVISED OF THE POSSIBILITY OF SUCH DAMAGE.
    81                           ; 
    82                           ; 
    83                           ; Code-generator required, PIC16F887 Definitions
    84                           ; 
    85                           ; SFR Addresses
    86     0004                     fsr             equ	4
    87     0004                     fsr0            equ	4
    88     0000                     indf            equ	0
    89     0000                     indf0           equ	0
    90     0002                     pc              equ	2
    91     0002                     pcl             equ	2
    92     000A                     pclath          equ	10
    93     0003                     status          equ	3
    94     0000                     INDF            equ	0	;# 
    95     0001                     TMR0            equ	1	;# 
    96     0002                     PCL             equ	2	;# 
    97     0003                     STATUS          equ	3	;# 
    98     0004                     FSR             equ	4	;# 
    99     0005                     PORTA           equ	5	;# 
   100     0006                     PORTB           equ	6	;# 
   101     0007                     PORTC           equ	7	;# 
   102     0008                     PORTD           equ	8	;# 
   103     0009                     PORTE           equ	9	;# 
   104     000A                     PCLATH          equ	10	;# 
   105     000B                     INTCON          equ	11	;# 
   106     000C                     PIR1            equ	12	;# 
   107     000D                     PIR2            equ	13	;# 
   108     000E                     TMR1            equ	14	;# 
   109     000E                     TMR1L           equ	14	;# 
   110     000F                     TMR1H           equ	15	;# 
   111     0010                     T1CON           equ	16	;# 
   112     0011                     TMR2            equ	17	;# 
   113     0012                     T2CON           equ	18	;# 
   114     0013                     SSPBUF          equ	19	;# 
   115     0014                     SSPCON          equ	20	;# 
   116     0015                     CCPR1           equ	21	;# 
   117     0015                     CCPR1L          equ	21	;# 
   118     0016                     CCPR1H          equ	22	;# 
   119     0017                     CCP1CON         equ	23	;# 
   120     0018                     RCSTA           equ	24	;# 
   121     0019                     TXREG           equ	25	;# 
   122     001A                     RCREG           equ	26	;# 
   123     001B                     CCPR2           equ	27	;# 
   124     001B                     CCPR2L          equ	27	;# 
   125     001C                     CCPR2H          equ	28	;# 
   126     001D                     CCP2CON         equ	29	;# 
   127     001E                     ADRESH          equ	30	;# 
   128     001F                     ADCON0          equ	31	;# 
   129     0081                     OPTION_REG      equ	129	;# 
   130     0085                     TRISA           equ	133	;# 
   131     0086                     TRISB           equ	134	;# 
   132     0087                     TRISC           equ	135	;# 
   133     0088                     TRISD           equ	136	;# 
   134     0089                     TRISE           equ	137	;# 
   135     008C                     PIE1            equ	140	;# 
   136     008D                     PIE2            equ	141	;# 
   137     008E                     PCON            equ	142	;# 
   138     008F                     OSCCON          equ	143	;# 
   139     0090                     OSCTUNE         equ	144	;# 
   140     0091                     SSPCON2         equ	145	;# 
   141     0092                     PR2             equ	146	;# 
   142     0093                     SSPADD          equ	147	;# 
   143     0093                     SSPMSK          equ	147	;# 
   144     0093                     MSK             equ	147	;# 
   145     0094                     SSPSTAT         equ	148	;# 
   146     0095                     WPUB            equ	149	;# 
   147     0096                     IOCB            equ	150	;# 
   148     0097                     VRCON           equ	151	;# 
   149     0098                     TXSTA           equ	152	;# 
   150     0099                     SPBRG           equ	153	;# 
   151     009A                     SPBRGH          equ	154	;# 
   152     009B                     PWM1CON         equ	155	;# 
   153     009C                     ECCPAS          equ	156	;# 
   154     009D                     PSTRCON         equ	157	;# 
   155     009E                     ADRESL          equ	158	;# 
   156     009F                     ADCON1          equ	159	;# 
   157     0105                     WDTCON          equ	261	;# 
   158     0107                     CM1CON0         equ	263	;# 
   159     0108                     CM2CON0         equ	264	;# 
   160     0109                     CM2CON1         equ	265	;# 
   161     010C                     EEDATA          equ	268	;# 
   162     010C                     EEDAT           equ	268	;# 
   163     010D                     EEADR           equ	269	;# 
   164     010E                     EEDATH          equ	270	;# 
   165     010F                     EEADRH          equ	271	;# 
   166     0185                     SRCON           equ	389	;# 
   167     0187                     BAUDCTL         equ	391	;# 
   168     0188                     ANSEL           equ	392	;# 
   169     0189                     ANSELH          equ	393	;# 
   170     018C                     EECON1          equ	396	;# 
   171     018D                     EECON2          equ	397	;# 
   172     0000                     INDF            equ	0	;# 
   173     0001                     TMR0            equ	1	;# 
   174     0002                     PCL             equ	2	;# 
   175     0003                     STATUS          equ	3	;# 
   176     0004                     FSR             equ	4	;# 
   177     0005                     PORTA           equ	5	;# 
   178     0006                     PORTB           equ	6	;# 
   179     0007                     PORTC           equ	7	;# 
   180     0008                     PORTD           equ	8	;# 
   181     0009                     PORTE           equ	9	;# 
   182     000A                     PCLATH          equ	10	;# 
   183     000B                     INTCON          equ	11	;# 
   184     000C                     PIR1            equ	12	;# 
   185     000D                     PIR2            equ	13	;# 
   186     000E                     TMR1            equ	14	;# 
   187     000E                     TMR1L           equ	14	;# 
   188     000F                     TMR1H           equ	15	;# 
   189     0010                     T1CON           equ	16	;# 
   190     0011                     TMR2            equ	17	;# 
   191     0012                     T2CON           equ	18	;# 
   192     0013                     SSPBUF          equ	19	;# 
   193     0014                     SSPCON          equ	20	;# 
   194     0015                     CCPR1           equ	21	;# 
   195     0015                     CCPR1L          equ	21	;# 
   196     0016                     CCPR1H          equ	22	;# 
   197     0017                     CCP1CON         equ	23	;# 
   198     0018                     RCSTA           equ	24	;# 
   199     0019                     TXREG           equ	25	;# 
   200     001A                     RCREG           equ	26	;# 
   201     001B                     CCPR2           equ	27	;# 
   202     001B                     CCPR2L          equ	27	;# 
   203     001C                     CCPR2H          equ	28	;# 
   204     001D                     CCP2CON         equ	29	;# 
   205     001E                     ADRESH          equ	30	;# 
   206     001F                     ADCON0          equ	31	;# 
   207     0081                     OPTION_REG      equ	129	;# 
   208     0085                     TRISA           equ	133	;# 
   209     0086                     TRISB           equ	134	;# 
   210     0087                     TRISC           equ	135	;# 
   211     0088                     TRISD           equ	136	;# 
   212     0089                     TRISE           equ	137	;# 
   213     008C                     PIE1            equ	140	;# 
   214     008D                     PIE2            equ	141	;# 
   215     008E                     PCON            equ	142	;# 
   216     008F                     OSCCON          equ	143	;# 
   217     0090                     OSCTUNE         equ	144	;# 
   218     0091                     SSPCON2         equ	145	;# 
   219     0092                     PR2             equ	146	;# 
   220     0093                     SSPADD          equ	147	;# 
   221     0093                     SSPMSK          equ	147	;# 
   222     0093                     MSK             equ	147	;# 
   223     0094                     SSPSTAT         equ	148	;# 
   224     0095                     WPUB            equ	149	;# 
   225     0096                     IOCB            equ	150	;# 
   226     0097                     VRCON           equ	151	;# 
   227     0098                     TXSTA           equ	152	;# 
   228     0099                     SPBRG           equ	153	;# 
   229     009A                     SPBRGH          equ	154	;# 
   230     009B                     PWM1CON         equ	155	;# 
   231     009C                     ECCPAS          equ	156	;# 
   232     009D                     PSTRCON         equ	157	;# 
   233     009E                     ADRESL          equ	158	;# 
   234     009F                     ADCON1          equ	159	;# 
   235     0105                     WDTCON          equ	261	;# 
   236     0107                     CM1CON0         equ	263	;# 
   237     0108                     CM2CON0         equ	264	;# 
   238     0109                     CM2CON1         equ	265	;# 
   239     010C                     EEDATA          equ	268	;# 
   240     010C                     EEDAT           equ	268	;# 
   241     010D                     EEADR           equ	269	;# 
   242     010E                     EEDATH          equ	270	;# 
   243     010F                     EEADRH          equ	271	;# 
   244     0185                     SRCON           equ	389	;# 
   245     0187                     BAUDCTL         equ	391	;# 
   246     0188                     ANSEL           equ	392	;# 
   247     0189                     ANSELH          equ	393	;# 
   248     018C                     EECON1          equ	396	;# 
   249     018D                     EECON2          equ	397	;# 
   250     000E                     _TMR1           set	14
   251     0010                     _T1CON          set	16
   252     0080                     _TMR1ON         set	128
   253     0039                     _RC1            set	57
   254     0038                     _RC0            set	56
   255     0045                     _RD5            set	69
   256     0044                     _RD4            set	68
   257     0043                     _RD3            set	67
   258     0042                     _RD2            set	66
   259     0040                     _RD0            set	64
   260     0041                     _RD1            set	65
   261     008F                     _OSCCON         set	143
   262     0088                     _TRISD          set	136
   263     0439                     _TRISC1         set	1081
   264     0438                     _TRISC0         set	1080
   265                           
   266                           	psect	strings
   267     1800                     __pstrings:
   268     1800                     stringtab:
   269     1800                     __stringtab:
   270                           
   271                           ;	String table - string pointers are 1 byte each
   272     1800  1BFF               	btfsc	btemp+1,7
   273     1801  280A               	ljmp	stringcode
   274     1802  1383               	bcf	3,7
   275     1803  187F               	btfsc	btemp+1,0
   276     1804  1783               	bsf	3,7
   277     1805  0800               	movf	0,w
   278     1806  0A84               	incf	4,f
   279     1807  1903               	skipnz
   280     1808  0AFF               	incf	btemp+1,f
   281     1809  0008               	return
   282     180A                     stringcode:
   283     180A                     stringdir:
   284     180A  3018               	movlw	high stringdir
   285     180B  008A               	movwf	10
   286     180C  0804               	movf	4,w
   287     180D  0A84               	incf	4,f
   288     180E  0782               	addwf	2,f
   289     180F                     __stringbase:
   290     180F  3400               	retlw	0
   291     1810                     __end_of__stringtab:
   292     1810                     STR_3:
   293     1810  3453               	retlw	83	;'S'
   294     1811  3469               	retlw	105	;'i'
   295     1812  346E               	retlw	110	;'n'
   296     1813  3420               	retlw	32	;' '
   297     1814  3472               	retlw	114	;'r'
   298     1815  3465               	retlw	101	;'e'
   299     1816  3473               	retlw	115	;'s'
   300     1817  3470               	retlw	112	;'p'
   301     1818  3475               	retlw	117	;'u'
   302     1819  3465               	retlw	101	;'e'
   303     181A  3473               	retlw	115	;'s'
   304     181B  3474               	retlw	116	;'t'
   305     181C  3461               	retlw	97	;'a'
   306     181D  3400               	retlw	0
   307     181E                     STR_2:
   308     181E  344C               	retlw	76	;'L'
   309     181F  3461               	retlw	97	;'a'
   310     1820  3420               	retlw	32	;' '
   311     1821  3464               	retlw	100	;'d'
   312     1822  3469               	retlw	105	;'i'
   313     1823  3473               	retlw	115	;'s'
   314     1824  3474               	retlw	116	;'t'
   315     1825  3461               	retlw	97	;'a'
   316     1826  346E               	retlw	110	;'n'
   317     1827  3463               	retlw	99	;'c'
   318     1828  3469               	retlw	105	;'i'
   319     1829  3461               	retlw	97	;'a'
   320     182A  3400               	retlw	0
   321     182B                     STR_1:
   322     182B  3453               	retlw	83	;'S'
   323     182C  3465               	retlw	101	;'e'
   324     182D  346E               	retlw	110	;'n'
   325     182E  3473               	retlw	115	;'s'
   326     182F  346F               	retlw	111	;'o'
   327     1830  3472               	retlw	114	;'r'
   328     1831  3420               	retlw	32	;' '
   329     1832  3455               	retlw	85	;'U'
   330     1833  346C               	retlw	108	;'l'
   331     1834  3474               	retlw	116	;'t'
   332     1835  3472               	retlw	114	;'r'
   333     1836  3461               	retlw	97	;'a'
   334     1837  3400               	retlw	0
   335     1838                     STR_4:
   336     1838  3465               	retlw	101	;'e'
   337     1839  3473               	retlw	115	;'s'
   338     183A  343A               	retlw	58	;':'
   339     183B  3420               	retlw	32	;' '
   340     183C  3425               	retlw	37	;'%'
   341     183D  342E               	retlw	46	;'.'
   342     183E  3432               	retlw	50	;'2'
   343     183F  3466               	retlw	102	;'f'
   344     1840  3420               	retlw	32	;' '
   345     1841  3463               	retlw	99	;'c'
   346     1842  346D               	retlw	109	;'m'
   347     1843  3400               	retlw	0
   348     1844                     STR_5:
   349     1844  3469               	retlw	105	;'i'
   350     1845  346E               	retlw	110	;'n'
   351     1846  3466               	retlw	102	;'f'
   352     1847  3400               	retlw	0
   353     1848                     STR_8:
   354     1848  346E               	retlw	110	;'n'
   355     1849  3461               	retlw	97	;'a'
   356     184A  346E               	retlw	110	;'n'
   357     184B  3400               	retlw	0
   358     1848                     STR_9           equ	STR_8
   359     1848                     STR_10          equ	STR_8
   360     1844                     STR_6           equ	STR_5
   361     1844                     STR_7           equ	STR_5
   362                           
   363                           	psect	cinit
   364     07EA                     start_initialization:	
   365                           ; #config settings
   366                           
   367     07EA                     __initialization:
   368                           
   369                           ; Clear objects allocated to BANK1
   370     07EA  1383               	bcf	3,7	;select IRP bank0
   371     07EB  30DC               	movlw	low __pbssBANK1
   372     07EC  0084               	movwf	4
   373     07ED  30E9               	movlw	low (__pbssBANK1+13)
   374     07EE  160A  118A  2000  120A  118A  	fcall	clear_ram0
   375                           
   376                           ; Clear objects allocated to BANK2
   377     07F3  1783               	bsf	3,7	;select IRP bank2
   378     07F4  3010               	movlw	low __pbssBANK2
   379     07F5  0084               	movwf	4
   380     07F6  3060               	movlw	low (__pbssBANK2+80)
   381     07F7  160A  118A  2000  120A  118A  	fcall	clear_ram0
   382     07FC                     end_of_initialization:	
   383                           ;End of C runtime variable initialization code
   384                           
   385     07FC                     __end_of__initialization:
   386     07FC  0183               	clrf	3
   387     07FD  160A  118A  2CF3   	ljmp	_main	;jump to C main() function
   388                           
   389                           	psect	bssBANK1
   390     00DC                     __pbssBANK1:
   391     00DC                     floorf@F521:
   392     00DC                     	ds	4
   393     00E0                     ___fpclassifyf@F465:
   394     00E0                     	ds	4
   395     00E4                     _width:
   396     00E4                     	ds	2
   397     00E6                     _prec:
   398     00E6                     	ds	2
   399     00E8                     _flags:
   400     00E8                     	ds	1
   401                           
   402                           	psect	bssBANK2
   403     0110                     __pbssBANK2:
   404     0110                     _dbuf:
   405     0110                     	ds	80
   406                           
   407                           	psect	clrtext
   408     1000                     clear_ram0:	
   409                           ;	Called with FSR containing the base address, and
   410                           ;	W with the last address+1
   411                           
   412     1000  0064               	clrwdt	;clear the watchdog before getting into this loop
   413     1001                     clrloop0:
   414     1001  0180               	clrf	0	;clear RAM location pointed to by FSR
   415     1002  0A84               	incf	4,f	;increment pointer
   416     1003  0604               	xorwf	4,w	;XOR with final address
   417     1004  1903               	btfsc	3,2	;have we reached the end yet?
   418     1005  3400               	retlw	0	;all done for this memory range, return
   419     1006  0604               	xorwf	4,w	;XOR again to restore value
   420     1007  2801               	goto	clrloop0	;do the next byte
   421                           
   422                           	psect	cstackBANK3
   423     0190                     __pcstackBANK3:
   424     0190                     main@buffer:
   425                           
   426                           ; 16 bytes @ 0x0
   427     0190                     	ds	16
   428     01A0                     main@distance:
   429                           
   430                           ; 4 bytes @ 0x10
   431     01A0                     	ds	4
   432     01A4                     main@time:
   433                           
   434                           ; 2 bytes @ 0x14
   435     01A4                     	ds	2
   436                           
   437                           	psect	cstackBANK1
   438     00A0                     __pcstackBANK1:
   439     00A0                     efgtoa@ne:
   440                           
   441                           ; 2 bytes @ 0x0
   442     00A0                     	ds	2
   443     00A2                     efgtoa@p:
   444                           
   445                           ; 2 bytes @ 0x2
   446     00A2                     	ds	2
   447     00A4                     efgtoa@t:
   448                           
   449                           ; 2 bytes @ 0x4
   450     00A4                     	ds	2
   451     00A6                     _efgtoa$653:
   452                           
   453                           ; 2 bytes @ 0x6
   454     00A6                     	ds	2
   455     00A8                     efgtoa@pp:
   456                           
   457                           ; 1 bytes @ 0x8
   458     00A8                     	ds	1
   459     00A9                     efgtoa@mode:
   460                           
   461                           ; 1 bytes @ 0x9
   462     00A9                     	ds	1
   463     00AA                     efgtoa@nmode:
   464                           
   465                           ; 1 bytes @ 0xA
   466     00AA                     	ds	1
   467     00AB                     efgtoa@d:
   468                           
   469                           ; 2 bytes @ 0xB
   470     00AB                     	ds	2
   471     00AD                     efgtoa@m:
   472                           
   473                           ; 2 bytes @ 0xD
   474     00AD                     	ds	2
   475     00AF                     efgtoa@e:
   476                           
   477                           ; 2 bytes @ 0xF
   478     00AF                     	ds	2
   479     00B1                     efgtoa@w:
   480                           
   481                           ; 2 bytes @ 0x11
   482     00B1                     	ds	2
   483     00B3                     efgtoa@ou:
   484                           
   485                           ; 4 bytes @ 0x13
   486     00B3                     	ds	4
   487     00B7                     efgtoa@i:
   488                           
   489                           ; 2 bytes @ 0x17
   490     00B7                     	ds	2
   491     00B9                     efgtoa@h:
   492                           
   493                           ; 4 bytes @ 0x19
   494     00B9                     	ds	4
   495     00BD                     efgtoa@l:
   496                           
   497                           ; 4 bytes @ 0x1D
   498     00BD                     	ds	4
   499     00C1                     efgtoa@sign:
   500                           
   501                           ; 1 bytes @ 0x21
   502     00C1                     	ds	1
   503     00C2                     efgtoa@n:
   504                           
   505                           ; 2 bytes @ 0x22
   506     00C2                     	ds	2
   507     00C4                     efgtoa@g:
   508                           
   509                           ; 4 bytes @ 0x24
   510     00C4                     	ds	4
   511     00C8                     efgtoa@u:
   512                           
   513                           ; 4 bytes @ 0x28
   514     00C8                     	ds	4
   515     00CC                     ??_sprintf:
   516                           
   517                           ; 1 bytes @ 0x2C
   518     00CC                     	ds	1
   519     00CD                     sprintf@ap:
   520                           
   521                           ; 1 bytes @ 0x2D
   522     00CD                     	ds	1
   523     00CE                     sprintf@f:
   524                           
   525                           ; 11 bytes @ 0x2E
   526     00CE                     	ds	11
   527     00D9                     ??_main:
   528                           
   529                           ; 1 bytes @ 0x39
   530     00D9                     	ds	3
   531                           
   532                           	psect	cstackCOMMON
   533     0070                     __pcstackCOMMON:
   534     0070                     ?_strcpy:
   535     0070                     ?_memcpy:	
   536                           ; 1 bytes @ 0x0
   537                           
   538     0070                     ?_putch:	
   539                           ; 1 bytes @ 0x0
   540                           
   541     0070                     ?_LCD_PulseEnable:	
   542                           ; 1 bytes @ 0x0
   543                           
   544     0070                     ?_LCD_Cmd:	
   545                           ; 1 bytes @ 0x0
   546                           
   547     0070                     ?_LCD_Char:	
   548                           ; 1 bytes @ 0x0
   549                           
   550     0070                     ?_LCD_Init:	
   551                           ; 1 bytes @ 0x0
   552                           
   553     0070                     ?_LCD_Clear:	
   554                           ; 1 bytes @ 0x0
   555                           
   556     0070                     ?_send_trigger:	
   557                           ; 1 bytes @ 0x0
   558                           
   559     0070                     ?_main:	
   560                           ; 1 bytes @ 0x0
   561                           
   562     0070                     ?___fleq:	
   563                           ; 1 bytes @ 0x0
   564                           
   565     0070                     ?__Umul8_16:	
   566                           ; 1 bit 
   567                           
   568     0070                     ?_fputc:	
   569                           ; 2 bytes @ 0x0
   570                           
   571     0070                     ?___fpclassifyf:	
   572                           ; 2 bytes @ 0x0
   573                           
   574     0070                     ?_read_echo:	
   575                           ; 2 bytes @ 0x0
   576                           
   577     0070                     ?___wmul:	
   578                           ; 2 bytes @ 0x0
   579                           
   580     0070                     ?_labs:	
   581                           ; 2 bytes @ 0x0
   582                           
   583     0070                     ?___flneg:	
   584                           ; 4 bytes @ 0x0
   585                           
   586     0070                     ?___fltol:	
   587                           ; 4 bytes @ 0x0
   588                           
   589     0070                     ?___fladd:	
   590                           ; 4 bytes @ 0x0
   591                           
   592     0070                     ?___xxtofl:	
   593                           ; 4 bytes @ 0x0
   594                           
   595     0070                     __Umul8_16@multiplicand:	
   596                           ; 4 bytes @ 0x0
   597                           
   598     0070                     memcpy@d1:	
   599                           ; 1 bytes @ 0x0
   600                           
   601     0070                     putch@c:	
   602                           ; 1 bytes @ 0x0
   603                           
   604     0070                     strcpy@dest:	
   605                           ; 1 bytes @ 0x0
   606                           
   607     0070                     ___wmul@multiplier:	
   608                           ; 1 bytes @ 0x0
   609                           
   610     0070                     fputc@c:	
   611                           ; 2 bytes @ 0x0
   612                           
   613     0070                     ___fleq@ff1:	
   614                           ; 2 bytes @ 0x0
   615                           
   616     0070                     ___flneg@f1:	
   617                           ; 4 bytes @ 0x0
   618                           
   619     0070                     ___fltol@f1:	
   620                           ; 4 bytes @ 0x0
   621                           
   622     0070                     ___fladd@b:	
   623                           ; 4 bytes @ 0x0
   624                           
   625     0070                     ___xxtofl@val:	
   626                           ; 4 bytes @ 0x0
   627                           
   628     0070                     ___fpclassifyf@x:	
   629                           ; 4 bytes @ 0x0
   630                           
   631     0070                     labs@a:	
   632                           ; 4 bytes @ 0x0
   633                           
   634     0070                     ??_putch:	
   635                           ; 4 bytes @ 0x0
   636                           
   637     0070                     ??_LCD_PulseEnable:	
   638                           ; 1 bytes @ 0x0
   639                           
   640     0070                     ??_LCD_Cmd:	
   641                           ; 1 bytes @ 0x0
   642                           
   643     0070                     ??_LCD_Char:	
   644                           ; 1 bytes @ 0x0
   645                           
   646     0070                     ??_send_trigger:	
   647                           ; 1 bytes @ 0x0
   648                           
   649                           
   650                           ; 1 bytes @ 0x0
   651     0070                     	ds	1
   652     0071                     memcpy@s1:
   653     0071                     strcpy@src:	
   654                           ; 1 bytes @ 0x1
   655                           
   656                           
   657                           ; 1 bytes @ 0x1
   658     0071                     	ds	1
   659     0072                     LCD_Cmd@cmd:
   660     0072                     LCD_Char@data:	
   661                           ; 1 bytes @ 0x2
   662                           
   663     0072                     strcpy@d:	
   664                           ; 1 bytes @ 0x2
   665                           
   666     0072                     ___wmul@multiplicand:	
   667                           ; 1 bytes @ 0x2
   668                           
   669     0072                     memcpy@n:	
   670                           ; 2 bytes @ 0x2
   671                           
   672     0072                     fputc@fp:	
   673                           ; 2 bytes @ 0x2
   674                           
   675     0072                     ??__Umul8_16:	
   676                           ; 2 bytes @ 0x2
   677                           
   678     0072                     ??_strcpy:	
   679                           ; 1 bytes @ 0x2
   680                           
   681     0072                     ??_read_echo:	
   682                           ; 1 bytes @ 0x2
   683                           
   684                           
   685                           ; 1 bytes @ 0x2
   686     0072                     	ds	1
   687     0073                     ?_LCD_String:
   688     0073                     ?_LCD_Set_Cursor:	
   689                           ; 1 bytes @ 0x3
   690                           
   691     0073                     LCD_Set_Cursor@col:	
   692                           ; 1 bytes @ 0x3
   693                           
   694     0073                     LCD_String@str:	
   695                           ; 1 bytes @ 0x3
   696                           
   697     0073                     ??_LCD_Init:	
   698                           ; 2 bytes @ 0x3
   699                           
   700     0073                     ??_LCD_Clear:	
   701                           ; 1 bytes @ 0x3
   702                           
   703                           
   704                           ; 1 bytes @ 0x3
   705     0073                     	ds	1
   706     0074                     LCD_Set_Cursor@row:
   707     0074                     memcpy@tmp:	
   708                           ; 1 bytes @ 0x4
   709                           
   710     0074                     read_echo@timeout:	
   711                           ; 1 bytes @ 0x4
   712                           
   713     0074                     ___wmul@product:	
   714                           ; 2 bytes @ 0x4
   715                           
   716     0074                     __Umul8_16@product:	
   717                           ; 2 bytes @ 0x4
   718                           
   719     0074                     ___fleq@ff2:	
   720                           ; 2 bytes @ 0x4
   721                           
   722     0074                     ___fladd@a:	
   723                           ; 4 bytes @ 0x4
   724                           
   725     0074                     ??_fputc:	
   726                           ; 4 bytes @ 0x4
   727                           
   728     0074                     ??___fpclassifyf:	
   729                           ; 1 bytes @ 0x4
   730                           
   731     0074                     ??_labs:	
   732                           ; 1 bytes @ 0x4
   733                           
   734     0074                     ??_memcpy:	
   735                           ; 1 bytes @ 0x4
   736                           
   737     0074                     ??_LCD_Set_Cursor:	
   738                           ; 1 bytes @ 0x4
   739                           
   740     0074                     ??___wmul:	
   741                           ; 1 bytes @ 0x4
   742                           
   743     0074                     ??___flneg:	
   744                           ; 1 bytes @ 0x4
   745                           
   746     0074                     ??___fltol:	
   747                           ; 1 bytes @ 0x4
   748                           
   749     0074                     ??___xxtofl:	
   750                           ; 1 bytes @ 0x4
   751                           
   752                           
   753                           ; 1 bytes @ 0x4
   754     0074                     	ds	1
   755     0075                     memcpy@d:
   756     0075                     _LCD_Set_Cursor$64:	
   757                           ; 1 bytes @ 0x5
   758                           
   759     0075                     ??_LCD_String:	
   760                           ; 2 bytes @ 0x5
   761                           
   762                           
   763                           ; 1 bytes @ 0x5
   764     0075                     	ds	1
   765     0076                     ?_read_prec_or_width:
   766     0076                     read_prec_or_width@fmt:	
   767                           ; 2 bytes @ 0x6
   768                           
   769     0076                     memcpy@s:	
   770                           ; 1 bytes @ 0x6
   771                           
   772     0076                     __Umul8_16@word_mpld:	
   773                           ; 1 bytes @ 0x6
   774                           
   775                           
   776                           ; 2 bytes @ 0x6
   777     0076                     	ds	1
   778     0077                     LCD_Set_Cursor@pos:
   779     0077                     read_prec_or_width@ap:	
   780                           ; 1 bytes @ 0x7
   781                           
   782                           
   783                           ; 1 bytes @ 0x7
   784     0077                     	ds	1
   785     0078                     ___fltol@sign1:
   786     0078                     ___fladd@signs:	
   787                           ; 1 bytes @ 0x8
   788                           
   789     0078                     __Umul8_16@multiplier:	
   790                           ; 1 bytes @ 0x8
   791                           
   792     0078                     ___xxtofl@sign:	
   793                           ; 1 bytes @ 0x8
   794                           
   795     0078                     read_prec_or_width@c:	
   796                           ; 1 bytes @ 0x8
   797                           
   798     0078                     ??___fleq:	
   799                           ; 1 bytes @ 0x8
   800                           
   801     0078                     ??_read_prec_or_width:	
   802                           ; 1 bytes @ 0x8
   803                           
   804                           
   805                           ; 1 bytes @ 0x8
   806     0078                     	ds	1
   807     0079                     ___fltol@exp1:
   808     0079                     ___fladd@aexp:	
   809                           ; 1 bytes @ 0x9
   810                           
   811     0079                     ___xxtofl@exp:	
   812                           ; 1 bytes @ 0x9
   813                           
   814     0079                     read_prec_or_width@n:	
   815                           ; 1 bytes @ 0x9
   816                           
   817     0079                     ??___flmul:	
   818                           ; 2 bytes @ 0x9
   819                           
   820                           
   821                           ; 1 bytes @ 0x9
   822     0079                     	ds	1
   823     007A                     ___fladd@bexp:
   824     007A                     ___xxtofl@arg:	
   825                           ; 1 bytes @ 0xA
   826                           
   827                           
   828                           ; 4 bytes @ 0xA
   829     007A                     	ds	1
   830     007B                     ___fladd@grs:
   831                           
   832                           ; 1 bytes @ 0xB
   833     007B                     	ds	2
   834     007D                     ??_pad:
   835                           
   836                           ; 1 bytes @ 0xD
   837     007D                     	ds	1
   838     007E                     ??_vfprintf:
   839     007E                     ??___flsub:	
   840                           ; 1 bytes @ 0xE
   841                           
   842                           
   843                           	psect	cstackBANK0
   844     0020                     __pcstackBANK0:	
   845                           ; 1 bytes @ 0xE
   846                           
   847     0020                     ?_fputs:
   848     0020                     ?___fldiv:	
   849                           ; 2 bytes @ 0x0
   850                           
   851     0020                     ?___flmul:	
   852                           ; 4 bytes @ 0x0
   853                           
   854     0020                     fputs@s:	
   855                           ; 4 bytes @ 0x0
   856                           
   857     0020                     ___fpclassifyf@e:	
   858                           ; 1 bytes @ 0x0
   859                           
   860     0020                     ___fldiv@a:	
   861                           ; 2 bytes @ 0x0
   862                           
   863     0020                     ___flmul@b:	
   864                           ; 4 bytes @ 0x0
   865                           
   866     0020                     ??___fladd:	
   867                           ; 4 bytes @ 0x0
   868                           
   869                           
   870                           ; 1 bytes @ 0x0
   871     0020                     	ds	1
   872     0021                     fputs@fp:
   873                           
   874                           ; 2 bytes @ 0x1
   875     0021                     	ds	1
   876     0022                     ___fpclassifyf@u:
   877                           
   878                           ; 4 bytes @ 0x2
   879     0022                     	ds	1
   880     0023                     ??_fputs:
   881                           
   882                           ; 1 bytes @ 0x3
   883     0023                     	ds	1
   884     0024                     ___fldiv@b:
   885     0024                     ___flmul@a:	
   886                           ; 4 bytes @ 0x4
   887                           
   888                           
   889                           ; 4 bytes @ 0x4
   890     0024                     	ds	1
   891     0025                     fputs@c:
   892                           
   893                           ; 1 bytes @ 0x5
   894     0025                     	ds	1
   895     0026                     fputs@i:
   896                           
   897                           ; 2 bytes @ 0x6
   898     0026                     	ds	2
   899     0028                     ?_pad:
   900     0028                     ___flmul@sign:	
   901                           ; 1 bytes @ 0x8
   902                           
   903     0028                     pad@fp:	
   904                           ; 1 bytes @ 0x8
   905                           
   906     0028                     ??___fldiv:	
   907                           ; 2 bytes @ 0x8
   908                           
   909                           
   910                           ; 1 bytes @ 0x8
   911     0028                     	ds	1
   912     0029                     ___flmul@grs:
   913                           
   914                           ; 4 bytes @ 0x9
   915     0029                     	ds	1
   916     002A                     pad@buf:
   917                           
   918                           ; 1 bytes @ 0xA
   919     002A                     	ds	1
   920     002B                     pad@p:
   921                           
   922                           ; 2 bytes @ 0xB
   923     002B                     	ds	2
   924     002D                     ___flmul@aexp:
   925     002D                     pad@i:	
   926                           ; 1 bytes @ 0xD
   927                           
   928     002D                     ___fldiv@rem:	
   929                           ; 2 bytes @ 0xD
   930                           
   931                           
   932                           ; 4 bytes @ 0xD
   933     002D                     	ds	1
   934     002E                     ___flmul@bexp:
   935                           
   936                           ; 1 bytes @ 0xE
   937     002E                     	ds	1
   938     002F                     ___flmul@prod:
   939                           
   940                           ; 4 bytes @ 0xF
   941     002F                     	ds	2
   942     0031                     ___fldiv@sign:
   943                           
   944                           ; 1 bytes @ 0x11
   945     0031                     	ds	1
   946     0032                     ___fldiv@new_exp:
   947                           
   948                           ; 2 bytes @ 0x12
   949     0032                     	ds	1
   950     0033                     ___flmul@temp:
   951                           
   952                           ; 2 bytes @ 0x13
   953     0033                     	ds	1
   954     0034                     ___fldiv@grs:
   955                           
   956                           ; 4 bytes @ 0x14
   957     0034                     	ds	1
   958     0035                     ?___flge:
   959     0035                     ?___flsub:	
   960                           ; 1 bit 
   961                           
   962     0035                     ___flge@ff1:	
   963                           ; 4 bytes @ 0x15
   964                           
   965     0035                     ___flsub@a:	
   966                           ; 4 bytes @ 0x15
   967                           
   968                           
   969                           ; 4 bytes @ 0x15
   970     0035                     	ds	3
   971     0038                     ___fldiv@bexp:
   972                           
   973                           ; 1 bytes @ 0x18
   974     0038                     	ds	1
   975     0039                     ___fldiv@aexp:
   976     0039                     ___flge@ff2:	
   977                           ; 1 bytes @ 0x19
   978                           
   979     0039                     ___flsub@b:	
   980                           ; 4 bytes @ 0x19
   981                           
   982                           
   983                           ; 4 bytes @ 0x19
   984     0039                     	ds	1
   985     003A                     ?_floorf:
   986     003A                     floorf@x:	
   987                           ; 4 bytes @ 0x1A
   988                           
   989                           
   990                           ; 4 bytes @ 0x1A
   991     003A                     	ds	3
   992     003D                     ??___flge:
   993                           
   994                           ; 1 bytes @ 0x1D
   995     003D                     	ds	1
   996     003E                     ??_floorf:
   997                           
   998                           ; 1 bytes @ 0x1E
   999     003E                     	ds	6
  1000     0044                     floorf@m:
  1001                           
  1002                           ; 4 bytes @ 0x24
  1003     0044                     	ds	4
  1004     0048                     floorf@e:
  1005                           
  1006                           ; 2 bytes @ 0x28
  1007     0048                     	ds	2
  1008     004A                     floorf@u:
  1009                           
  1010                           ; 4 bytes @ 0x2A
  1011     004A                     	ds	4
  1012     004E                     ?_efgtoa:
  1013     004E                     efgtoa@fp:	
  1014                           ; 1 bytes @ 0x2E
  1015                           
  1016                           
  1017                           ; 2 bytes @ 0x2E
  1018     004E                     	ds	2
  1019     0050                     efgtoa@f:
  1020                           
  1021                           ; 4 bytes @ 0x30
  1022     0050                     	ds	4
  1023     0054                     efgtoa@c:
  1024                           
  1025                           ; 1 bytes @ 0x34
  1026     0054                     	ds	1
  1027     0055                     ??_efgtoa:
  1028                           
  1029                           ; 1 bytes @ 0x35
  1030     0055                     	ds	4
  1031     0059                     ?_vfpfcnvrt:
  1032     0059                     vfpfcnvrt@fp:	
  1033                           ; 1 bytes @ 0x39
  1034                           
  1035                           
  1036                           ; 2 bytes @ 0x39
  1037     0059                     	ds	2
  1038     005B                     vfpfcnvrt@fmt:
  1039                           
  1040                           ; 1 bytes @ 0x3B
  1041     005B                     	ds	1
  1042     005C                     vfpfcnvrt@ap:
  1043                           
  1044                           ; 1 bytes @ 0x3C
  1045     005C                     	ds	1
  1046     005D                     ??_vfpfcnvrt:
  1047                           
  1048                           ; 1 bytes @ 0x3D
  1049     005D                     	ds	2
  1050     005F                     vfpfcnvrt@convarg:
  1051                           
  1052                           ; 4 bytes @ 0x3F
  1053     005F                     	ds	4
  1054     0063                     vfpfcnvrt@c:
  1055                           
  1056                           ; 1 bytes @ 0x43
  1057     0063                     	ds	1
  1058     0064                     vfpfcnvrt@cp:
  1059                           
  1060                           ; 1 bytes @ 0x44
  1061     0064                     	ds	1
  1062     0065                     ?_vfprintf:
  1063     0065                     vfprintf@fp:	
  1064                           ; 2 bytes @ 0x45
  1065                           
  1066                           
  1067                           ; 2 bytes @ 0x45
  1068     0065                     	ds	2
  1069     0067                     vfprintf@fmt:
  1070                           
  1071                           ; 1 bytes @ 0x47
  1072     0067                     	ds	1
  1073     0068                     vfprintf@ap:
  1074                           
  1075                           ; 1 bytes @ 0x48
  1076     0068                     	ds	1
  1077     0069                     vfprintf@cfmt:
  1078                           
  1079                           ; 1 bytes @ 0x49
  1080     0069                     	ds	1
  1081     006A                     ?_sprintf:
  1082     006A                     sprintf@s:	
  1083                           ; 2 bytes @ 0x4A
  1084                           
  1085                           
  1086                           ; 1 bytes @ 0x4A
  1087     006A                     	ds	1
  1088     006B                     sprintf@fmt:
  1089                           
  1090                           ; 1 bytes @ 0x4B
  1091     006B                     	ds	5
  1092                           
  1093                           	psect	maintext
  1094     14F3                     __pmaintext:	
  1095 ;;
  1096 ;;Main: autosize = 0, tempsize = 3, incstack = 0, save=0
  1097 ;;
  1098 ;; *************** function _main *****************
  1099 ;; Defined at:
  1100 ;;		line 115 in file "Proy3.c"
  1101 ;; Parameters:    Size  Location     Type
  1102 ;;		None
  1103 ;; Auto vars:     Size  Location     Type
  1104 ;;  buffer         16    0[BANK3 ] unsigned char [16]
  1105 ;;  distance        4   16[BANK3 ] float 
  1106 ;;  time            2   20[BANK3 ] unsigned int 
  1107 ;; Return value:  Size  Location     Type
  1108 ;;                  1    wreg      void 
  1109 ;; Registers used:
  1110 ;;		wreg, fsr0l, fsr0h, status,2, status,0, btemp+1, pclath, cstack
  1111 ;; Tracked objects:
  1112 ;;		On entry : B00/0
  1113 ;;		On exit  : 0/0
  1114 ;;		Unchanged: 0/0
  1115 ;; Data sizes:     COMMON   BANK0   BANK1   BANK3   BANK2
  1116 ;;      Params:         0       0       0       0       0
  1117 ;;      Locals:         0       0       0      22       0
  1118 ;;      Temps:          0       0       3       0       0
  1119 ;;      Totals:         0       0       3      22       0
  1120 ;;Total ram usage:       25 bytes
  1121 ;; Hardware stack levels required when called: 8
  1122 ;; This function calls:
  1123 ;;		_LCD_Clear
  1124 ;;		_LCD_Init
  1125 ;;		_LCD_Set_Cursor
  1126 ;;		_LCD_String
  1127 ;;		___fldiv
  1128 ;;		___xxtofl
  1129 ;;		_read_echo
  1130 ;;		_send_trigger
  1131 ;;		_sprintf
  1132 ;; This function is called by:
  1133 ;;		Startup code after reset
  1134 ;; This function uses a non-reentrant model
  1135 ;;
  1136                           
  1137     14F3                     _main:	
  1138                           ;psect for function _main
  1139                           
  1140     14F3                     l3172:	
  1141                           ;incstack = 0
  1142                           ; Regs used in _main: [wreg-fsr0h+status,2+status,0+btemp+1+pclath+cstack]
  1143                           
  1144                           
  1145                           ;Proy3.c: 116:     OSCCON = 0x71;
  1146     14F3  3071               	movlw	113
  1147     14F4  1683               	bsf	3,5	;RP0=1, select bank1
  1148     14F5  1303               	bcf	3,6	;RP1=0, select bank1
  1149     14F6  008F               	movwf	15	;volatile
  1150                           
  1151                           ;Proy3.c: 117:     TRISC0 = 0;
  1152     14F7  1007               	bcf	7,0	;volatile
  1153                           
  1154                           ;Proy3.c: 118:     TRISC1 = 1;
  1155     14F8  1487               	bsf	7,1	;volatile
  1156     14F9                     l3174:
  1157                           
  1158                           ;Proy3.c: 120:     LCD_Init();
  1159     14F9  160A  158A  273E  160A  118A  	fcall	_LCD_Init
  1160                           
  1161                           ;Proy3.c: 121:     LCD_Clear();
  1162     14FE  160A  158A  25B0  160A  118A  	fcall	_LCD_Clear
  1163                           
  1164                           ;Proy3.c: 122:     LCD_Set_Cursor(1, 1);
  1165     1503  01F3               	clrf	LCD_Set_Cursor@col
  1166     1504  0AF3               	incf	LCD_Set_Cursor@col,f
  1167     1505  3001               	movlw	1
  1168     1506  160A  158A  25EE  160A  118A  	fcall	_LCD_Set_Cursor
  1169     150B                     l3176:
  1170                           
  1171                           ;Proy3.c: 123:     LCD_String("Sensor Ultra");
  1172     150B  301C               	movlw	(low ((STR_1-__stringbase)| (0+32768)))& (0+255)
  1173     150C  00F3               	movwf	LCD_String@str
  1174     150D  3080               	movlw	128
  1175     150E  00F4               	movwf	LCD_String@str+1
  1176     150F  160A  158A  2699  160A  118A  	fcall	_LCD_String
  1177     1514                     l3178:
  1178                           
  1179                           ;Proy3.c: 124:     _delay((unsigned long)((1500)*(8000000/4000.0)));
  1180     1514  3010               	movlw	16
  1181     1515  1683               	bsf	3,5	;RP0=1, select bank1
  1182     1516  1303               	bcf	3,6	;RP1=0, select bank1
  1183     1517  00DB               	movwf	(??_main^(0+128)+2)
  1184     1518  3039               	movlw	57
  1185     1519  00DA               	movwf	(??_main^(0+128)+1)
  1186     151A  300D               	movlw	13
  1187     151B  00D9               	movwf	??_main^(0+128)
  1188     151C                     u5617:
  1189     151C  0BD9               	decfsz	??_main^(0+128),f
  1190     151D  2D1C               	goto	u5617
  1191     151E  0BDA               	decfsz	(??_main^(0+128)+1),f
  1192     151F  2D1C               	goto	u5617
  1193     1520  0BDB               	decfsz	(??_main^(0+128)+2),f
  1194     1521  2D1C               	goto	u5617
  1195     1522                     l3180:
  1196                           
  1197                           ;Proy3.c: 127:         send_trigger();
  1198     1522  160A  158A  25A4  160A  118A  	fcall	_send_trigger
  1199     1527                     l3182:
  1200                           
  1201                           ;Proy3.c: 128:         _delay((unsigned long)((100)*(8000000/4000000.0)));
  1202     1527  3041               	movlw	65
  1203     1528  1683               	bsf	3,5	;RP0=1, select bank1
  1204     1529  1303               	bcf	3,6	;RP1=0, select bank1
  1205     152A  00D9               	movwf	??_main^(0+128)
  1206     152B                     u5627:
  1207     152B  0BD9               	decfsz	??_main^(0+128),f
  1208     152C  2D2B               	goto	u5627
  1209     152D  2D2E               	nop2
  1210     152E                     l3184:
  1211                           
  1212                           ;Proy3.c: 129:         unsigned int time = read_echo();
  1213     152E  160A  158A  2776  160A  118A  	fcall	_read_echo
  1214     1533  0871               	movf	?_read_echo+1,w
  1215     1534  1683               	bsf	3,5	;RP0=1, select bank3
  1216     1535  1703               	bsf	3,6	;RP1=1, select bank3
  1217     1536  00A5               	movwf	(main@time+1)^(0+384)
  1218     1537  0870               	movf	?_read_echo,w
  1219     1538  00A4               	movwf	main@time^(0+384)
  1220     1539                     l3186:
  1221                           
  1222                           ;Proy3.c: 130:         float distance = time / 58.0;
  1223     1539  3042               	movlw	66
  1224     153A  1283               	bcf	3,5	;RP0=0, select bank0
  1225     153B  1303               	bcf	3,6	;RP1=0, select bank0
  1226     153C  00A3               	movwf	___fldiv@a+3
  1227     153D  3068               	movlw	104
  1228     153E  00A2               	movwf	___fldiv@a+2
  1229     153F  3000               	movlw	0
  1230     1540  00A1               	movwf	___fldiv@a+1
  1231     1541  3000               	movlw	0
  1232     1542  00A0               	movwf	___fldiv@a
  1233     1543  1683               	bsf	3,5	;RP0=1, select bank3
  1234     1544  1703               	bsf	3,6	;RP1=1, select bank3
  1235     1545  0824               	movf	main@time^(0+384),w
  1236     1546  00F0               	movwf	___xxtofl@val
  1237     1547  0825               	movf	(main@time+1)^(0+384),w
  1238     1548  00F1               	movwf	___xxtofl@val+1
  1239     1549  01F2               	clrf	___xxtofl@val+2
  1240     154A  01F3               	clrf	___xxtofl@val+3
  1241     154B  3000               	movlw	0
  1242     154C  160A  118A  2351  160A  118A  	fcall	___xxtofl
  1243     1551  0873               	movf	?___xxtofl+3,w
  1244     1552  1283               	bcf	3,5	;RP0=0, select bank0
  1245     1553  1303               	bcf	3,6	;RP1=0, select bank0
  1246     1554  00A7               	movwf	___fldiv@b+3
  1247     1555  0872               	movf	?___xxtofl+2,w
  1248     1556  00A6               	movwf	___fldiv@b+2
  1249     1557  0871               	movf	?___xxtofl+1,w
  1250     1558  00A5               	movwf	___fldiv@b+1
  1251     1559  0870               	movf	?___xxtofl,w
  1252     155A  00A4               	movwf	___fldiv@b
  1253     155B  120A  158A  2098  160A  118A  	fcall	___fldiv
  1254     1560  1283               	bcf	3,5	;RP0=0, select bank0
  1255     1561  1303               	bcf	3,6	;RP1=0, select bank0
  1256     1562  0823               	movf	?___fldiv+3,w
  1257     1563  1683               	bsf	3,5	;RP0=1, select bank3
  1258     1564  1703               	bsf	3,6	;RP1=1, select bank3
  1259     1565  00A3               	movwf	(main@distance+3)^(0+384)
  1260     1566  1283               	bcf	3,5	;RP0=0, select bank0
  1261     1567  1303               	bcf	3,6	;RP1=0, select bank0
  1262     1568  0822               	movf	?___fldiv+2,w
  1263     1569  1683               	bsf	3,5	;RP0=1, select bank3
  1264     156A  1703               	bsf	3,6	;RP1=1, select bank3
  1265     156B  00A2               	movwf	(main@distance+2)^(0+384)
  1266     156C  1283               	bcf	3,5	;RP0=0, select bank0
  1267     156D  1303               	bcf	3,6	;RP1=0, select bank0
  1268     156E  0821               	movf	?___fldiv+1,w
  1269     156F  1683               	bsf	3,5	;RP0=1, select bank3
  1270     1570  1703               	bsf	3,6	;RP1=1, select bank3
  1271     1571  00A1               	movwf	(main@distance+1)^(0+384)
  1272     1572  1283               	bcf	3,5	;RP0=0, select bank0
  1273     1573  1303               	bcf	3,6	;RP1=0, select bank0
  1274     1574  0820               	movf	?___fldiv,w
  1275     1575  1683               	bsf	3,5	;RP0=1, select bank3
  1276     1576  1703               	bsf	3,6	;RP1=1, select bank3
  1277     1577  00A0               	movwf	main@distance^(0+384)
  1278     1578                     l3188:
  1279                           
  1280                           ;Proy3.c: 132:         char buffer[16];;Proy3.c: 133:         LCD_Clear();
  1281     1578  160A  158A  25B0  160A  118A  	fcall	_LCD_Clear
  1282     157D                     l3190:
  1283                           
  1284                           ;Proy3.c: 134:         LCD_Set_Cursor(1, 1);
  1285     157D  01F3               	clrf	LCD_Set_Cursor@col
  1286     157E  0AF3               	incf	LCD_Set_Cursor@col,f
  1287     157F  3001               	movlw	1
  1288     1580  160A  158A  25EE  160A  118A  	fcall	_LCD_Set_Cursor
  1289     1585                     l3192:
  1290                           
  1291                           ;Proy3.c: 135:         LCD_String("La distancia");
  1292     1585  300F               	movlw	(low ((STR_2-__stringbase)| (0+32768)))& (0+255)
  1293     1586  00F3               	movwf	LCD_String@str
  1294     1587  3080               	movlw	128
  1295     1588  00F4               	movwf	LCD_String@str+1
  1296     1589  160A  158A  2699  160A  118A  	fcall	_LCD_String
  1297     158E                     l3194:
  1298                           
  1299                           ;Proy3.c: 137:         LCD_Set_Cursor(2, 1);
  1300     158E  01F3               	clrf	LCD_Set_Cursor@col
  1301     158F  0AF3               	incf	LCD_Set_Cursor@col,f
  1302     1590  3002               	movlw	2
  1303     1591  160A  158A  25EE  160A  118A  	fcall	_LCD_Set_Cursor
  1304     1596                     l3196:
  1305                           
  1306                           ;Proy3.c: 138:         if (time == 0) {
  1307     1596  1683               	bsf	3,5	;RP0=1, select bank3
  1308     1597  1703               	bsf	3,6	;RP1=1, select bank3
  1309     1598  0824               	movf	main@time^(0+384),w
  1310     1599  0425               	iorwf	(main@time+1)^(0+384),w
  1311     159A  1D03               	btfss	3,2
  1312     159B  2D9D               	goto	u5601
  1313     159C  2D9E               	goto	u5600
  1314     159D                     u5601:
  1315     159D  2DA8               	goto	l3200
  1316     159E                     u5600:
  1317     159E                     l3198:
  1318                           
  1319                           ;Proy3.c: 139:             LCD_String("Sin respuesta");
  1320     159E  3001               	movlw	(low ((STR_3-__stringbase)| (0+32768)))& (0+255)
  1321     159F  00F3               	movwf	LCD_String@str
  1322     15A0  3080               	movlw	128
  1323     15A1  00F4               	movwf	LCD_String@str+1
  1324     15A2  160A  158A  2699  160A  118A  	fcall	_LCD_String
  1325                           
  1326                           ;Proy3.c: 140:         } else {
  1327     15A7  2DD4               	goto	l3202
  1328     15A8                     l3200:
  1329                           
  1330                           ;Proy3.c: 141:             sprintf(buffer, "es: %.2f cm", distance);
  1331     15A8  3090               	movlw	(low (main@buffer| (0+256)))& (0+255)
  1332     15A9  1283               	bcf	3,5	;RP0=0, select bank0
  1333     15AA  1303               	bcf	3,6	;RP1=0, select bank0
  1334     15AB  00EA               	movwf	sprintf@s
  1335     15AC  3029               	movlw	(low ((STR_4-__stringbase)| (0+32768)))& (0+255)
  1336     15AD  00EB               	movwf	sprintf@fmt
  1337     15AE  1683               	bsf	3,5	;RP0=1, select bank3
  1338     15AF  1703               	bsf	3,6	;RP1=1, select bank3
  1339     15B0  0823               	movf	(main@distance+3)^(0+384),w
  1340     15B1  1283               	bcf	3,5	;RP0=0, select bank0
  1341     15B2  1303               	bcf	3,6	;RP1=0, select bank0
  1342     15B3  00EF               	movwf	?_sprintf+5
  1343     15B4  1683               	bsf	3,5	;RP0=1, select bank3
  1344     15B5  1703               	bsf	3,6	;RP1=1, select bank3
  1345     15B6  0822               	movf	(main@distance+2)^(0+384),w
  1346     15B7  1283               	bcf	3,5	;RP0=0, select bank0
  1347     15B8  1303               	bcf	3,6	;RP1=0, select bank0
  1348     15B9  00EE               	movwf	?_sprintf+4
  1349     15BA  1683               	bsf	3,5	;RP0=1, select bank3
  1350     15BB  1703               	bsf	3,6	;RP1=1, select bank3
  1351     15BC  0821               	movf	(main@distance+1)^(0+384),w
  1352     15BD  1283               	bcf	3,5	;RP0=0, select bank0
  1353     15BE  1303               	bcf	3,6	;RP1=0, select bank0
  1354     15BF  00ED               	movwf	?_sprintf+3
  1355     15C0  1683               	bsf	3,5	;RP0=1, select bank3
  1356     15C1  1703               	bsf	3,6	;RP1=1, select bank3
  1357     15C2  0820               	movf	main@distance^(0+384),w
  1358     15C3  1283               	bcf	3,5	;RP0=0, select bank0
  1359     15C4  1303               	bcf	3,6	;RP1=0, select bank0
  1360     15C5  00EC               	movwf	?_sprintf+2
  1361     15C6  160A  158A  2711  160A  118A  	fcall	_sprintf
  1362                           
  1363                           ;Proy3.c: 142:             LCD_String(buffer);
  1364     15CB  3090               	movlw	(low (main@buffer| (0+256)))& (0+255)
  1365     15CC  00F3               	movwf	LCD_String@str
  1366     15CD  3001               	movlw	1
  1367     15CE  00F4               	movwf	LCD_String@str+1
  1368     15CF  160A  158A  2699  160A  118A  	fcall	_LCD_String
  1369     15D4                     l3202:
  1370                           
  1371                           ;Proy3.c: 145:         _delay((unsigned long)((500)*(8000000/4000.0)));
  1372     15D4  3006               	movlw	6
  1373     15D5  1683               	bsf	3,5	;RP0=1, select bank1
  1374     15D6  1303               	bcf	3,6	;RP1=0, select bank1
  1375     15D7  00DB               	movwf	(??_main^(0+128)+2)
  1376     15D8  3013               	movlw	19
  1377     15D9  00DA               	movwf	(??_main^(0+128)+1)
  1378     15DA  30AD               	movlw	173
  1379     15DB  00D9               	movwf	??_main^(0+128)
  1380     15DC                     u5637:
  1381     15DC  0BD9               	decfsz	??_main^(0+128),f
  1382     15DD  2DDC               	goto	u5637
  1383     15DE  0BDA               	decfsz	(??_main^(0+128)+1),f
  1384     15DF  2DDC               	goto	u5637
  1385     15E0  0BDB               	decfsz	(??_main^(0+128)+2),f
  1386     15E1  2DDC               	goto	u5637
  1387     15E2  2D22               	goto	l3180
  1388     15E3  120A  118A  2800   	ljmp	start
  1389     15E6                     __end_of_main:
  1390                           
  1391                           	psect	text1
  1392     1F11                     __ptext1:	
  1393 ;; *************** function _sprintf *****************
  1394 ;; Defined at:
  1395 ;;		line 9 in file "C:\Program Files\Microchip\xc8\v3.00\pic\sources\c99\common\nf_sprintf.c"
  1396 ;; Parameters:    Size  Location     Type
  1397 ;;  s               1   74[BANK0 ] PTR unsigned char 
  1398 ;;		 -> main@buffer(16), 
  1399 ;;  fmt             1   75[BANK0 ] PTR const unsigned char 
  1400 ;;		 -> STR_4(12), 
  1401 ;; Auto vars:     Size  Location     Type
  1402 ;;  f              11   46[BANK1 ] struct _IO_FILE
  1403 ;;  ret             2    0        int 
  1404 ;;  ap              1   45[BANK1 ] PTR void [1]
  1405 ;;		 -> ?_sprintf(2), 
  1406 ;; Return value:  Size  Location     Type
  1407 ;;                  2   74[BANK0 ] int 
  1408 ;; Registers used:
  1409 ;;		wreg, fsr0l, fsr0h, status,2, status,0, btemp+1, pclath, cstack
  1410 ;; Tracked objects:
  1411 ;;		On entry : 0/0
  1412 ;;		On exit  : 0/0
  1413 ;;		Unchanged: 0/0
  1414 ;; Data sizes:     COMMON   BANK0   BANK1   BANK3   BANK2
  1415 ;;      Params:         0       6       0       0       0
  1416 ;;      Locals:         0       0      12       0       0
  1417 ;;      Temps:          0       0       1       0       0
  1418 ;;      Totals:         0       6      13       0       0
  1419 ;;Total ram usage:       19 bytes
  1420 ;; Hardware stack levels used: 1
  1421 ;; Hardware stack levels required when called: 7
  1422 ;; This function calls:
  1423 ;;		_vfprintf
  1424 ;; This function is called by:
  1425 ;;		_main
  1426 ;; This function uses a non-reentrant model
  1427 ;;
  1428                           
  1429     1F11                     _sprintf:	
  1430                           ;psect for function _sprintf
  1431                           
  1432     1F11                     l3116:	
  1433                           ;incstack = 0
  1434                           ; Regs used in _sprintf: [wreg-fsr0h+status,2+status,0+btemp+1+pclath+cstack]
  1435                           
  1436     1F11  306C               	movlw	(low ((?_sprintf| 0+2)))& (0+255)
  1437     1F12  1683               	bsf	3,5	;RP0=1, select bank1
  1438     1F13  1303               	bcf	3,6	;RP1=0, select bank1
  1439     1F14  00CD               	movwf	sprintf@ap^(0+128)
  1440     1F15                     l3118:
  1441     1F15  1283               	bcf	3,5	;RP0=0, select bank0
  1442     1F16  1303               	bcf	3,6	;RP1=0, select bank0
  1443     1F17  086A               	movf	sprintf@s,w
  1444     1F18  1683               	bsf	3,5	;RP0=1, select bank1
  1445     1F19  1303               	bcf	3,6	;RP1=0, select bank1
  1446     1F1A  00CE               	movwf	sprintf@f^(0+128)
  1447     1F1B  3001               	movlw	1
  1448     1F1C  00CF               	movwf	(sprintf@f+1)^(0+128)
  1449     1F1D                     l3120:
  1450     1F1D  01D0               	clrf	(sprintf@f^(0+128)+2)
  1451     1F1E  01D1               	clrf	((sprintf@f+1)^(0+128)+2)
  1452     1F1F                     l3122:
  1453     1F1F  01D7               	clrf	(sprintf@f^(0+128)+9)
  1454     1F20  01D8               	clrf	((sprintf@f+1)^(0+128)+9)
  1455     1F21                     l3124:
  1456     1F21  30CE               	movlw	low sprintf@f
  1457     1F22  1283               	bcf	3,5	;RP0=0, select bank0
  1458     1F23  1303               	bcf	3,6	;RP1=0, select bank0
  1459     1F24  00E5               	movwf	vfprintf@fp
  1460     1F25  3000               	movlw	high sprintf@f
  1461     1F26  00E6               	movwf	vfprintf@fp+1
  1462     1F27  086B               	movf	sprintf@fmt,w
  1463     1F28  00E7               	movwf	vfprintf@fmt
  1464     1F29  30CD               	movlw	(low (sprintf@ap| 0))& (0+255)
  1465     1F2A  00E8               	movwf	vfprintf@ap
  1466     1F2B  160A  158A  262D  160A  158A  	fcall	_vfprintf
  1467     1F30                     l3126:
  1468     1F30  1683               	bsf	3,5	;RP0=1, select bank1
  1469     1F31  1303               	bcf	3,6	;RP1=0, select bank1
  1470     1F32  0850               	movf	(sprintf@f^(0+128)+2),w
  1471     1F33  1283               	bcf	3,5	;RP0=0, select bank0
  1472     1F34  1303               	bcf	3,6	;RP1=0, select bank0
  1473     1F35  076A               	addwf	sprintf@s,w
  1474     1F36  1683               	bsf	3,5	;RP0=1, select bank1
  1475     1F37  1303               	bcf	3,6	;RP1=0, select bank1
  1476     1F38  00CC               	movwf	??_sprintf^(0+128)
  1477     1F39  084C               	movf	??_sprintf^(0+128),w
  1478     1F3A  0084               	movwf	4
  1479     1F3B  1783               	bsf	3,7	;select IRP bank2
  1480     1F3C  0180               	clrf	0
  1481     1F3D                     l638:
  1482     1F3D  0008               	return
  1483     1F3E                     __end_of_sprintf:
  1484                           
  1485                           	psect	text2
  1486     1E2D                     __ptext2:	
  1487 ;; *************** function _vfprintf *****************
  1488 ;; Defined at:
  1489 ;;		line 1817 in file "C:\Program Files\Microchip\xc8\v3.00\pic\sources\c99\common\doprnt.c"
  1490 ;; Parameters:    Size  Location     Type
  1491 ;;  fp              2   69[BANK0 ] PTR struct _IO_FILE
  1492 ;;		 -> sprintf@f(11), 
  1493 ;;  fmt             1   71[BANK0 ] PTR const unsigned char 
  1494 ;;		 -> STR_4(12), 
  1495 ;;  ap              1   72[BANK0 ] PTR PTR void 
  1496 ;;		 -> sprintf@ap(1), 
  1497 ;; Auto vars:     Size  Location     Type
  1498 ;;  cfmt            1   73[BANK0 ] PTR unsigned char 
  1499 ;;		 -> STR_4(12), 
  1500 ;; Return value:  Size  Location     Type
  1501 ;;                  2   69[BANK0 ] int 
  1502 ;; Registers used:
  1503 ;;		wreg, fsr0l, fsr0h, status,2, status,0, btemp+1, pclath, cstack
  1504 ;; Tracked objects:
  1505 ;;		On entry : 0/0
  1506 ;;		On exit  : 0/0
  1507 ;;		Unchanged: 0/0
  1508 ;; Data sizes:     COMMON   BANK0   BANK1   BANK3   BANK2
  1509 ;;      Params:         0       4       0       0       0
  1510 ;;      Locals:         0       1       0       0       0
  1511 ;;      Temps:          0       0       0       0       0
  1512 ;;      Totals:         0       5       0       0       0
  1513 ;;Total ram usage:        5 bytes
  1514 ;; Hardware stack levels used: 1
  1515 ;; Hardware stack levels required when called: 6
  1516 ;; This function calls:
  1517 ;;		_vfpfcnvrt
  1518 ;; This function is called by:
  1519 ;;		_sprintf
  1520 ;; This function uses a non-reentrant model
  1521 ;;
  1522                           
  1523     1E2D                     _vfprintf:	
  1524                           ;psect for function _vfprintf
  1525                           
  1526     1E2D                     l3040:	
  1527                           ;incstack = 0
  1528 ;; using string table level
  1529                           ; Regs used in _vfprintf: [wreg-fsr0h+status,2+status,0+btemp+1+pclath+cstack]
  1530                           
  1531                           
  1532                           ;C:\Program Files\Microchip\xc8\v3.00\pic\sources\c99\common\doprnt.c: 1817: int vfprint
      +                          f(FILE *fp, const char *fmt, va_list ap);C:\Program Files\Microchip\xc8\v3.00\pic\source
      +                          s\c99\common\doprnt.c: 1818: {;C:\Program Files\Microchip\xc8\v3.00\pic\sources\c99\comm
      +                          on\doprnt.c: 1820:     char *cfmt;;C:\Program Files\Microchip\xc8\v3.00\pic\sources\c99\
      +                          common\doprnt.c: 1822:     cfmt = (char *)fmt;
  1533     1E2D  1283               	bcf	3,5	;RP0=0, select bank0
  1534     1E2E  1303               	bcf	3,6	;RP1=0, select bank0
  1535     1E2F  0867               	movf	vfprintf@fmt,w
  1536     1E30  00E9               	movwf	vfprintf@cfmt
  1537                           
  1538                           ;C:\Program Files\Microchip\xc8\v3.00\pic\sources\c99\common\doprnt.c: 1826:     while (
      +                          *cfmt) {
  1539     1E31  2E3F               	goto	l3044
  1540     1E32                     l3042:
  1541                           
  1542                           ;C:\Program Files\Microchip\xc8\v3.00\pic\sources\c99\common\doprnt.c: 1830:    vfpfcnvr
      +                          t(fp, &cfmt, ap);
  1543     1E32  0865               	movf	vfprintf@fp,w
  1544     1E33  00D9               	movwf	vfpfcnvrt@fp
  1545     1E34  0866               	movf	vfprintf@fp+1,w
  1546     1E35  00DA               	movwf	vfpfcnvrt@fp+1
  1547     1E36  3069               	movlw	(low (vfprintf@cfmt| 0))& (0+255)
  1548     1E37  00DB               	movwf	vfpfcnvrt@fmt
  1549     1E38  0868               	movf	vfprintf@ap,w
  1550     1E39  00DC               	movwf	vfpfcnvrt@ap
  1551     1E3A  160A  118A  2405  160A  158A  	fcall	_vfpfcnvrt
  1552     1E3F                     l3044:
  1553                           
  1554                           ;C:\Program Files\Microchip\xc8\v3.00\pic\sources\c99\common\doprnt.c: 1826:     while (
      +                          *cfmt) {
  1555     1E3F  1283               	bcf	3,5	;RP0=0, select bank0
  1556     1E40  1303               	bcf	3,6	;RP1=0, select bank0
  1557     1E41  0869               	movf	vfprintf@cfmt,w
  1558     1E42  0084               	movwf	4
  1559     1E43  160A  158A  200A  160A  158A  	fcall	stringdir
  1560     1E48  3A00               	xorlw	0
  1561     1E49  1D03               	skipz
  1562     1E4A  2E4C               	goto	u5381
  1563     1E4B  2E4D               	goto	u5380
  1564     1E4C                     u5381:
  1565     1E4C  2E32               	goto	l3042
  1566     1E4D                     u5380:
  1567     1E4D                     l3046:
  1568                           
  1569                           ;C:\Program Files\Microchip\xc8\v3.00\pic\sources\c99\common\doprnt.c: 1835:  return 0;
  1570     1E4D  01E5               	clrf	?_vfprintf
  1571     1E4E  01E6               	clrf	?_vfprintf+1
  1572     1E4F                     l756:
  1573     1E4F  0008               	return
  1574     1E50                     __end_of_vfprintf:
  1575                           
  1576                           	psect	text3
  1577     1405                     __ptext3:	
  1578 ;; *************** function _vfpfcnvrt *****************
  1579 ;; Defined at:
  1580 ;;		line 1177 in file "C:\Program Files\Microchip\xc8\v3.00\pic\sources\c99\common\doprnt.c"
  1581 ;; Parameters:    Size  Location     Type
  1582 ;;  fp              2   57[BANK0 ] PTR struct _IO_FILE
  1583 ;;		 -> sprintf@f(11), 
  1584 ;;  fmt             1   59[BANK0 ] PTR PTR unsigned char 
  1585 ;;		 -> vfprintf@cfmt(1), 
  1586 ;;  ap              1   60[BANK0 ] PTR PTR void 
  1587 ;;		 -> sprintf@ap(1), 
  1588 ;; Auto vars:     Size  Location     Type
  1589 ;;  convarg         4   63[BANK0 ] struct .
  1590 ;;  cp              1   68[BANK0 ] PTR unsigned char 
  1591 ;;		 -> STR_4(12), 
  1592 ;;  c               1   67[BANK0 ] unsigned char 
  1593 ;;  done            1    0        _Bool 
  1594 ;; Return value:  Size  Location     Type
  1595 ;;                  1    wreg      void 
  1596 ;; Registers used:
  1597 ;;		wreg, fsr0l, fsr0h, status,2, status,0, btemp+1, pclath, cstack
  1598 ;; Tracked objects:
  1599 ;;		On entry : 0/0
  1600 ;;		On exit  : 0/0
  1601 ;;		Unchanged: 0/0
  1602 ;; Data sizes:     COMMON   BANK0   BANK1   BANK3   BANK2
  1603 ;;      Params:         0       4       0       0       0
  1604 ;;      Locals:         0       6       0       0       0
  1605 ;;      Temps:          0       2       0       0       0
  1606 ;;      Totals:         0      12       0       0       0
  1607 ;;Total ram usage:       12 bytes
  1608 ;; Hardware stack levels used: 1
  1609 ;; Hardware stack levels required when called: 5
  1610 ;; This function calls:
  1611 ;;		_efgtoa
  1612 ;;		_fputc
  1613 ;;		_read_prec_or_width
  1614 ;; This function is called by:
  1615 ;;		_vfprintf
  1616 ;; This function uses a non-reentrant model
  1617 ;;
  1618                           
  1619     1405                     _vfpfcnvrt:	
  1620                           ;psect for function _vfpfcnvrt
  1621                           
  1622     1405                     l2950:	
  1623                           ;incstack = 0
  1624 ;; using string table level
  1625                           ; Regs used in _vfpfcnvrt: [wreg-fsr0h+status,2+status,0+btemp+1+pclath+cstack]
  1626                           
  1627                           
  1628                           ;C:\Program Files\Microchip\xc8\v3.00\pic\sources\c99\common\doprnt.c: 1177: vfpfcnvrt(F
      +                          ILE *fp, char *fmt[], va_list ap);C:\Program Files\Microchip\xc8\v3.00\pic\sources\c99\c
      +                          ommon\doprnt.c: 1178: {;C:\Program Files\Microchip\xc8\v3.00\pic\sources\c99\common\dopr
      +                          nt.c: 1179:     char c, *cp;;C:\Program Files\Microchip\xc8\v3.00\pic\sources\c99\common
      +                          \doprnt.c: 1180:     _Bool done;;C:\Program Files\Microchip\xc8\v3.00\pic\sources\c99\co
      +                          mmon\doprnt.c: 1188:  } convarg;;C:\Program Files\Microchip\xc8\v3.00\pic\sources\c99\co
      +                          mmon\doprnt.c: 1201:     if ((*fmt)[0] == '%') {
  1629     1405  1283               	bcf	3,5	;RP0=0, select bank0
  1630     1406  1303               	bcf	3,6	;RP1=0, select bank0
  1631     1407  085B               	movf	vfpfcnvrt@fmt,w
  1632     1408  0084               	movwf	4
  1633     1409  1383               	bcf	3,7	;select IRP bank0
  1634     140A  0800               	movf	0,w
  1635     140B  0084               	movwf	4
  1636     140C  160A  158A  200A  160A  118A  	fcall	stringdir
  1637     1411  3A25               	xorlw	37
  1638     1412  1D03               	skipz
  1639     1413  2C15               	goto	u4891
  1640     1414  2C16               	goto	u4890
  1641     1415                     u4891:
  1642     1415  2CD9               	goto	l3000
  1643     1416                     u4890:
  1644     1416                     l2952:
  1645                           
  1646                           ;C:\Program Files\Microchip\xc8\v3.00\pic\sources\c99\common\doprnt.c: 1202:         ++*
      +                          fmt;
  1647     1416  085B               	movf	vfpfcnvrt@fmt,w
  1648     1417  0084               	movwf	4
  1649     1418  3001               	movlw	1
  1650     1419  0780               	addwf	0,f
  1651     141A                     l2954:
  1652                           
  1653                           ;C:\Program Files\Microchip\xc8\v3.00\pic\sources\c99\common\doprnt.c: 1204:         fla
      +                          gs = width = 0;
  1654     141A  1683               	bsf	3,5	;RP0=1, select bank1
  1655     141B  1303               	bcf	3,6	;RP1=0, select bank1
  1656     141C  01E4               	clrf	_width^(0+128)
  1657     141D  01E5               	clrf	(_width+1)^(0+128)
  1658     141E  3000               	movlw	0
  1659     141F  00E8               	movwf	_flags^(0+128)
  1660     1420                     l2956:
  1661                           
  1662                           ;C:\Program Files\Microchip\xc8\v3.00\pic\sources\c99\common\doprnt.c: 1205:         pre
      +                          c = -1;
  1663     1420  30FF               	movlw	255
  1664     1421  00E6               	movwf	_prec^(0+128)
  1665     1422  30FF               	movlw	255
  1666     1423  00E7               	movwf	(_prec^(0+128)+1)
  1667     1424                     l2958:
  1668                           
  1669                           ;C:\Program Files\Microchip\xc8\v3.00\pic\sources\c99\common\doprnt.c: 1265:         if 
      +                          ((*fmt)[0] == '.') {
  1670     1424  1283               	bcf	3,5	;RP0=0, select bank0
  1671     1425  1303               	bcf	3,6	;RP1=0, select bank0
  1672     1426  085B               	movf	vfpfcnvrt@fmt,w
  1673     1427  0084               	movwf	4
  1674     1428  0800               	movf	0,w
  1675     1429  0084               	movwf	4
  1676     142A  160A  158A  200A  160A  118A  	fcall	stringdir
  1677     142F  3A2E               	xorlw	46
  1678     1430  1D03               	skipz
  1679     1431  2C33               	goto	u4901
  1680     1432  2C34               	goto	u4900
  1681     1433                     u4901:
  1682     1433  2C47               	goto	l2964
  1683     1434                     u4900:
  1684     1434                     l2960:
  1685                           
  1686                           ;C:\Program Files\Microchip\xc8\v3.00\pic\sources\c99\common\doprnt.c: 1266:            
      +                           ++*fmt;
  1687     1434  085B               	movf	vfpfcnvrt@fmt,w
  1688     1435  0084               	movwf	4
  1689     1436  3001               	movlw	1
  1690     1437  0780               	addwf	0,f
  1691     1438                     l2962:
  1692                           
  1693                           ;C:\Program Files\Microchip\xc8\v3.00\pic\sources\c99\common\doprnt.c: 1267:    prec = r
      +                          ead_prec_or_width(fmt, ap);
  1694     1438  085B               	movf	vfpfcnvrt@fmt,w
  1695     1439  00F6               	movwf	read_prec_or_width@fmt
  1696     143A  085C               	movf	vfpfcnvrt@ap,w
  1697     143B  00F7               	movwf	read_prec_or_width@ap
  1698     143C  160A  118A  2008  160A  118A  	fcall	_read_prec_or_width
  1699     1441  0877               	movf	?_read_prec_or_width+1,w
  1700     1442  1683               	bsf	3,5	;RP0=1, select bank1
  1701     1443  1303               	bcf	3,6	;RP1=0, select bank1
  1702     1444  00E7               	movwf	(_prec+1)^(0+128)
  1703     1445  0876               	movf	?_read_prec_or_width,w
  1704     1446  00E6               	movwf	_prec^(0+128)
  1705     1447                     l2964:
  1706                           
  1707                           ;C:\Program Files\Microchip\xc8\v3.00\pic\sources\c99\common\doprnt.c: 1689:   cp = *fmt
      +                          ;
  1708     1447  1283               	bcf	3,5	;RP0=0, select bank0
  1709     1448  085B               	movf	vfpfcnvrt@fmt,w
  1710     1449  0084               	movwf	4
  1711     144A  1383               	bcf	3,7	;select IRP bank0
  1712     144B  0800               	movf	0,w
  1713     144C  00E4               	movwf	vfpfcnvrt@cp
  1714     144D                     l2966:
  1715                           
  1716                           ;C:\Program Files\Microchip\xc8\v3.00\pic\sources\c99\common\doprnt.c: 1690:   c = *cp;
  1717     144D  0864               	movf	vfpfcnvrt@cp,w
  1718     144E  0084               	movwf	4
  1719     144F  160A  158A  200A  160A  118A  	fcall	stringdir
  1720     1454  00E3               	movwf	vfpfcnvrt@c
  1721                           
  1722                           ;C:\Program Files\Microchip\xc8\v3.00\pic\sources\c99\common\doprnt.c: 1691:   switch(c)
      +                           {
  1723     1455  2C5E               	goto	l2974
  1724     1456                     l2968:
  1725                           
  1726                           ;C:\Program Files\Microchip\xc8\v3.00\pic\sources\c99\common\doprnt.c: 1695:     cp++;
  1727     1456  3001               	movlw	1
  1728     1457  07E4               	addwf	vfpfcnvrt@cp,f
  1729                           
  1730                           ;C:\Program Files\Microchip\xc8\v3.00\pic\sources\c99\common\doprnt.c: 1696:     break;
  1731     1458  2C69               	goto	l2976
  1732     1459                     l738:	
  1733                           ;C:\Program Files\Microchip\xc8\v3.00\pic\sources\c99\common\doprnt.c: 1710:    case 'f'
      +                          :
  1734                           
  1735                           
  1736                           ;C:\Program Files\Microchip\xc8\v3.00\pic\sources\c99\common\doprnt.c: 1721:     c = 'l'
      +                          ;
  1737     1459  306C               	movlw	108
  1738     145A  00E3               	movwf	vfpfcnvrt@c
  1739                           
  1740                           ;C:\Program Files\Microchip\xc8\v3.00\pic\sources\c99\common\doprnt.c: 1722:     break;
  1741     145B  2C69               	goto	l2976
  1742     145C                     l2970:
  1743                           
  1744                           ;C:\Program Files\Microchip\xc8\v3.00\pic\sources\c99\common\doprnt.c: 1724:     c = 0;
  1745     145C  01E3               	clrf	vfpfcnvrt@c
  1746                           
  1747                           ;C:\Program Files\Microchip\xc8\v3.00\pic\sources\c99\common\doprnt.c: 1725:     break;
  1748     145D  2C69               	goto	l2976
  1749     145E                     l2974:
  1750     145E  0863               	movf	vfpfcnvrt@c,w
  1751                           
  1752                           ; Switch size 1, requested type "simple"
  1753                           ; Number of cases is 3, Range of values is 76 to 108
  1754                           ; switch strategies available:
  1755                           ; Name         Instructions Cycles
  1756                           ; simple_byte           10     6 (average)
  1757                           ; direct_byte          110    11 (fixed)
  1758                           ; jumptable            263     9 (fixed)
  1759                           ;	Chosen strategy is simple_byte
  1760     145F  3A4C               	xorlw	76	; case 76
  1761     1460  1903               	skipnz
  1762     1461  2C56               	goto	l2968
  1763     1462  3A2A               	xorlw	42	; case 102
  1764     1463  1903               	skipnz
  1765     1464  2C59               	goto	l738
  1766     1465  3A0A               	xorlw	10	; case 108
  1767     1466  1903               	skipnz
  1768     1467  2C56               	goto	l2968
  1769     1468  2C5C               	goto	l2970
  1770     1469                     l2976:
  1771     1469  0864               	movf	vfpfcnvrt@cp,w
  1772     146A  0084               	movwf	4
  1773     146B  160A  158A  200A  160A  118A  	fcall	stringdir
  1774     1470  3A66               	xorlw	102
  1775     1471  1D03               	skipz
  1776     1472  2C74               	goto	u4911
  1777     1473  2C75               	goto	u4910
  1778     1474                     u4911:
  1779     1474  2CD1               	goto	l2996
  1780     1475                     u4910:
  1781     1475  2C9E               	goto	l2984
  1782     1476                     l2978:
  1783                           
  1784                           ;C:\Program Files\Microchip\xc8\v3.00\pic\sources\c99\common\doprnt.c: 1756:      convar
      +                          g.f = (long double)(*(double *)__va_arg(*(double **)ap, (double)0));
  1785     1476  085C               	movf	vfpfcnvrt@ap,w
  1786     1477  0084               	movwf	4
  1787     1478  0800               	movf	0,w
  1788     1479  00FF               	movwf	btemp+1
  1789     147A  3004               	movlw	4
  1790     147B  0780               	addwf	0,f
  1791     147C  087F               	movf	btemp+1,w
  1792     147D  0084               	movwf	4
  1793     147E  0800               	movf	0,w
  1794     147F  00DF               	movwf	vfpfcnvrt@convarg
  1795     1480  0A84               	incf	4,f
  1796     1481  0800               	movf	0,w
  1797     1482  00E0               	movwf	vfpfcnvrt@convarg+1
  1798     1483  0A84               	incf	4,f
  1799     1484  0800               	movf	0,w
  1800     1485  00E1               	movwf	vfpfcnvrt@convarg+2
  1801     1486  0A84               	incf	4,f
  1802     1487  0800               	movf	0,w
  1803     1488  00E2               	movwf	vfpfcnvrt@convarg+3
  1804                           
  1805                           ;C:\Program Files\Microchip\xc8\v3.00\pic\sources\c99\common\doprnt.c: 1757:      break;
  1806     1489  2CA6               	goto	l2986
  1807     148A                     l2980:
  1808                           
  1809                           ;C:\Program Files\Microchip\xc8\v3.00\pic\sources\c99\common\doprnt.c: 1759:      convar
      +                          g.f = (long double)(*(long double *)__va_arg(*(long double **)ap, (long double)0));
  1810     148A  085C               	movf	vfpfcnvrt@ap,w
  1811     148B  0084               	movwf	4
  1812     148C  0800               	movf	0,w
  1813     148D  00FF               	movwf	btemp+1
  1814     148E  3004               	movlw	4
  1815     148F  0780               	addwf	0,f
  1816     1490  087F               	movf	btemp+1,w
  1817     1491  0084               	movwf	4
  1818     1492  0800               	movf	0,w
  1819     1493  00DF               	movwf	vfpfcnvrt@convarg
  1820     1494  0A84               	incf	4,f
  1821     1495  0800               	movf	0,w
  1822     1496  00E0               	movwf	vfpfcnvrt@convarg+1
  1823     1497  0A84               	incf	4,f
  1824     1498  0800               	movf	0,w
  1825     1499  00E1               	movwf	vfpfcnvrt@convarg+2
  1826     149A  0A84               	incf	4,f
  1827     149B  0800               	movf	0,w
  1828     149C  00E2               	movwf	vfpfcnvrt@convarg+3
  1829                           
  1830                           ;C:\Program Files\Microchip\xc8\v3.00\pic\sources\c99\common\doprnt.c: 1760:      break;
  1831     149D  2CA6               	goto	l2986
  1832     149E                     l2984:
  1833     149E  0863               	movf	vfpfcnvrt@c,w
  1834                           
  1835                           ; Switch size 1, requested type "simple"
  1836                           ; Number of cases is 2, Range of values is 76 to 108
  1837                           ; switch strategies available:
  1838                           ; Name         Instructions Cycles
  1839                           ; simple_byte            7     4 (average)
  1840                           ; direct_byte          110    11 (fixed)
  1841                           ; jumptable            263     9 (fixed)
  1842                           ;	Chosen strategy is simple_byte
  1843     149F  3A4C               	xorlw	76	; case 76
  1844     14A0  1903               	skipnz
  1845     14A1  2C8A               	goto	l2980
  1846     14A2  3A20               	xorlw	32	; case 108
  1847     14A3  1903               	skipnz
  1848     14A4  2C76               	goto	l2978
  1849     14A5  2CA6               	goto	l2986
  1850     14A6                     l2986:
  1851                           
  1852                           ;C:\Program Files\Microchip\xc8\v3.00\pic\sources\c99\common\doprnt.c: 1762:    *fmt = c
      +                          p+1;
  1853     14A6  085B               	movf	vfpfcnvrt@fmt,w
  1854     14A7  0084               	movwf	4
  1855     14A8  0864               	movf	vfpfcnvrt@cp,w
  1856     14A9  3E01               	addlw	1
  1857     14AA  0080               	movwf	0
  1858                           
  1859                           ;C:\Program Files\Microchip\xc8\v3.00\pic\sources\c99\common\doprnt.c: 1763:    switch (
      +                          *cp) {
  1860     14AB  2CC6               	goto	l2994
  1861     14AC                     l2988:
  1862                           
  1863                           ;C:\Program Files\Microchip\xc8\v3.00\pic\sources\c99\common\doprnt.c: 1790:      return
      +                           (void) efgtoa(fp, convarg.f, *cp);;	Return value of _vfpfcnvrt is never used
  1864     14AC  0859               	movf	vfpfcnvrt@fp,w
  1865     14AD  00CE               	movwf	efgtoa@fp
  1866     14AE  085A               	movf	vfpfcnvrt@fp+1,w
  1867     14AF  00CF               	movwf	efgtoa@fp+1
  1868     14B0  0862               	movf	vfpfcnvrt@convarg+3,w
  1869     14B1  00D3               	movwf	efgtoa@f+3
  1870     14B2  0861               	movf	vfpfcnvrt@convarg+2,w
  1871     14B3  00D2               	movwf	efgtoa@f+2
  1872     14B4  0860               	movf	vfpfcnvrt@convarg+1,w
  1873     14B5  00D1               	movwf	efgtoa@f+1
  1874     14B6  085F               	movf	vfpfcnvrt@convarg,w
  1875     14B7  00D0               	movwf	efgtoa@f
  1876     14B8  0864               	movf	vfpfcnvrt@cp,w
  1877     14B9  0084               	movwf	4
  1878     14BA  160A  158A  200A  160A  118A  	fcall	stringdir
  1879     14BF  00D4               	movwf	efgtoa@c
  1880     14C0  160A  118A  25E6  160A  118A  	fcall	_efgtoa
  1881     14C5  2CF2               	goto	l749
  1882     14C6                     l2994:
  1883     14C6  0864               	movf	vfpfcnvrt@cp,w
  1884     14C7  0084               	movwf	4
  1885     14C8  160A  158A  200A  160A  118A  	fcall	stringdir
  1886                           
  1887                           ; Switch size 1, requested type "simple"
  1888                           ; Number of cases is 1, Range of values is 102 to 102
  1889                           ; switch strategies available:
  1890                           ; Name         Instructions Cycles
  1891                           ; simple_byte            4     3 (average)
  1892                           ; direct_byte           14    11 (fixed)
  1893                           ; jumptable            263     9 (fixed)
  1894                           ;	Chosen strategy is simple_byte
  1895     14CD  3A66               	xorlw	102	; case 102
  1896     14CE  1903               	skipnz
  1897     14CF  2CAC               	goto	l2988
  1898     14D0  2CD1               	goto	l2996
  1899     14D1                     l2996:
  1900                           
  1901                           ;C:\Program Files\Microchip\xc8\v3.00\pic\sources\c99\common\doprnt.c: 1806:         ++*
      +                          fmt;
  1902     14D1  1283               	bcf	3,5	;RP0=0, select bank0
  1903     14D2  1303               	bcf	3,6	;RP1=0, select bank0
  1904     14D3  085B               	movf	vfpfcnvrt@fmt,w
  1905     14D4  0084               	movwf	4
  1906     14D5  3001               	movlw	1
  1907     14D6  1383               	bcf	3,7	;select IRP bank0
  1908     14D7  0780               	addwf	0,f
  1909     14D8  2CF2               	goto	l749
  1910     14D9                     l3000:
  1911                           
  1912                           ;C:\Program Files\Microchip\xc8\v3.00\pic\sources\c99\common\doprnt.c: 1811:     fputc((
      +                          int)(*fmt)[0], fp);
  1913     14D9  085B               	movf	vfpfcnvrt@fmt,w
  1914     14DA  0084               	movwf	4
  1915     14DB  0800               	movf	0,w
  1916     14DC  0084               	movwf	4
  1917     14DD  160A  158A  200A  160A  118A  	fcall	stringdir
  1918     14E2  00DD               	movwf	??_vfpfcnvrt
  1919     14E3  01DE               	clrf	??_vfpfcnvrt+1
  1920     14E4  085D               	movf	??_vfpfcnvrt,w
  1921     14E5  00F0               	movwf	fputc@c
  1922     14E6  085E               	movf	??_vfpfcnvrt+1,w
  1923     14E7  00F1               	movwf	fputc@c+1
  1924     14E8  0859               	movf	vfpfcnvrt@fp,w
  1925     14E9  00F2               	movwf	fputc@fp
  1926     14EA  085A               	movf	vfpfcnvrt@fp+1,w
  1927     14EB  00F3               	movwf	fputc@fp+1
  1928     14EC  160A  118A  20CF  160A  118A  	fcall	_fputc
  1929     14F1  2CD1               	goto	l2996
  1930     14F2                     l749:
  1931     14F2  0008               	return
  1932     14F3                     __end_of_vfpfcnvrt:
  1933                           
  1934                           	psect	text4
  1935     1008                     __ptext4:	
  1936 ;; *************** function _read_prec_or_width *****************
  1937 ;; Defined at:
  1938 ;;		line 1158 in file "C:\Program Files\Microchip\xc8\v3.00\pic\sources\c99\common\doprnt.c"
  1939 ;; Parameters:    Size  Location     Type
  1940 ;;  fmt             1    6[COMMON] PTR PTR const unsigned c
  1941 ;;		 -> vfprintf@cfmt(1), 
  1942 ;;  ap              1    7[COMMON] PTR PTR void [1]
  1943 ;;		 -> sprintf@ap(1), 
  1944 ;; Auto vars:     Size  Location     Type
  1945 ;;  c               1    8[COMMON] unsigned char 
  1946 ;;  n               2    9[COMMON] int 
  1947 ;; Return value:  Size  Location     Type
  1948 ;;                  2    6[COMMON] int 
  1949 ;; Registers used:
  1950 ;;		wreg, fsr0l, fsr0h, status,2, status,0, btemp+1, pclath, cstack
  1951 ;; Tracked objects:
  1952 ;;		On entry : 0/0
  1953 ;;		On exit  : 0/0
  1954 ;;		Unchanged: 0/0
  1955 ;; Data sizes:     COMMON   BANK0   BANK1   BANK3   BANK2
  1956 ;;      Params:         2       0       0       0       0
  1957 ;;      Locals:         3       0       0       0       0
  1958 ;;      Temps:          0       0       0       0       0
  1959 ;;      Totals:         5       0       0       0       0
  1960 ;;Total ram usage:        5 bytes
  1961 ;; Hardware stack levels used: 1
  1962 ;; Hardware stack levels required when called: 1
  1963 ;; This function calls:
  1964 ;;		___wmul
  1965 ;; This function is called by:
  1966 ;;		_vfpfcnvrt
  1967 ;; This function uses a non-reentrant model
  1968 ;;
  1969                           
  1970     1008                     _read_prec_or_width:	
  1971                           ;psect for function _read_prec_or_width
  1972                           
  1973     1008                     l2930:	
  1974                           ;incstack = 0
  1975                           ; Regs used in _read_prec_or_width: [wreg-fsr0h+status,2+status,0+btemp+1+pclath+cstack]
  1976                           
  1977                           
  1978                           ;C:\Program Files\Microchip\xc8\v3.00\pic\sources\c99\common\doprnt.c: 1159:     int n =
      +                           0;
  1979     1008  01F9               	clrf	read_prec_or_width@n
  1980     1009  01FA               	clrf	read_prec_or_width@n+1
  1981     100A                     l2932:
  1982                           
  1983                           ;C:\Program Files\Microchip\xc8\v3.00\pic\sources\c99\common\doprnt.c: 1160:     if ((*f
      +                          mt)[0] == '*') {
  1984     100A  0876               	movf	read_prec_or_width@fmt,w
  1985     100B  0084               	movwf	4
  1986     100C  1383               	bcf	3,7	;select IRP bank0
  1987     100D  0800               	movf	0,w
  1988     100E  0084               	movwf	4
  1989     100F  160A  158A  200A  160A  118A  	fcall	stringdir
  1990     1014  3A2A               	xorlw	42
  1991     1015  1D03               	skipz
  1992     1016  2818               	goto	u4871
  1993     1017  2819               	goto	u4870
  1994     1018                     u4871:
  1995     1018  2845               	goto	l2942
  1996     1019                     u4870:
  1997     1019                     l2934:
  1998                           
  1999                           ;C:\Program Files\Microchip\xc8\v3.00\pic\sources\c99\common\doprnt.c: 1161:         ++*
      +                          fmt;
  2000     1019  0876               	movf	read_prec_or_width@fmt,w
  2001     101A  0084               	movwf	4
  2002     101B  3001               	movlw	1
  2003     101C  0780               	addwf	0,f
  2004     101D                     l2936:
  2005                           
  2006                           ;C:\Program Files\Microchip\xc8\v3.00\pic\sources\c99\common\doprnt.c: 1162:         n =
      +                           (*(int *)__va_arg(*(int **)*ap, (int)0));
  2007     101D  0877               	movf	read_prec_or_width@ap,w
  2008     101E  0084               	movwf	4
  2009     101F  0800               	movf	0,w
  2010     1020  00FF               	movwf	btemp+1
  2011     1021  3002               	movlw	2
  2012     1022  0780               	addwf	0,f
  2013     1023  087F               	movf	btemp+1,w
  2014     1024  0084               	movwf	4
  2015     1025  0800               	movf	0,w
  2016     1026  00F9               	movwf	read_prec_or_width@n
  2017     1027  0A84               	incf	4,f
  2018     1028  0800               	movf	0,w
  2019     1029  00FA               	movwf	read_prec_or_width@n+1
  2020                           
  2021                           ;C:\Program Files\Microchip\xc8\v3.00\pic\sources\c99\common\doprnt.c: 1163:     } else 
      +                          {
  2022     102A  2856               	goto	l2944
  2023     102B                     l2938:
  2024                           
  2025                           ;C:\Program Files\Microchip\xc8\v3.00\pic\sources\c99\common\doprnt.c: 1166:            
      +                           n = n * 10 + c;
  2026     102B  087A               	movf	read_prec_or_width@n+1,w
  2027     102C  00F1               	movwf	___wmul@multiplier+1
  2028     102D  0879               	movf	read_prec_or_width@n,w
  2029     102E  00F0               	movwf	___wmul@multiplier
  2030     102F  300A               	movlw	10
  2031     1030  00F2               	movwf	___wmul@multiplicand
  2032     1031  3000               	movlw	0
  2033     1032  00F3               	movwf	___wmul@multiplicand+1
  2034     1033  160A  158A  2674  160A  118A  	fcall	___wmul
  2035     1038  0878               	movf	read_prec_or_width@c,w
  2036     1039  0770               	addwf	?___wmul,w
  2037     103A  00F9               	movwf	read_prec_or_width@n
  2038     103B  3000               	movlw	0
  2039     103C  1803               	skipnc
  2040     103D  3001               	movlw	1
  2041     103E  0771               	addwf	?___wmul+1,w
  2042     103F  00FA               	movwf	read_prec_or_width@n+1
  2043     1040                     l2940:
  2044                           
  2045                           ;C:\Program Files\Microchip\xc8\v3.00\pic\sources\c99\common\doprnt.c: 1167:            
      +                           ++*fmt;
  2046     1040  0876               	movf	read_prec_or_width@fmt,w
  2047     1041  0084               	movwf	4
  2048     1042  3001               	movlw	1
  2049     1043  1383               	bcf	3,7	;select IRP bank0
  2050     1044  0780               	addwf	0,f
  2051     1045                     l2942:
  2052                           
  2053                           ;C:\Program Files\Microchip\xc8\v3.00\pic\sources\c99\common\doprnt.c: 1165:         whi
      +                          le ((c = ((unsigned)(*fmt)[0]) - '0') < 10) {
  2054     1045  0876               	movf	read_prec_or_width@fmt,w
  2055     1046  0084               	movwf	4
  2056     1047  0800               	movf	0,w
  2057     1048  0084               	movwf	4
  2058     1049  160A  158A  200A  160A  118A  	fcall	stringdir
  2059     104E  3ED0               	addlw	208
  2060     104F  00F8               	movwf	read_prec_or_width@c
  2061     1050  300A               	movlw	10
  2062     1051  0278               	subwf	read_prec_or_width@c,w
  2063     1052  1C03               	skipc
  2064     1053  2855               	goto	u4881
  2065     1054  2856               	goto	u4880
  2066     1055                     u4881:
  2067     1055  282B               	goto	l2938
  2068     1056                     u4880:
  2069     1056                     l2944:
  2070                           
  2071                           ;C:\Program Files\Microchip\xc8\v3.00\pic\sources\c99\common\doprnt.c: 1170:     return 
      +                          n;
  2072     1056  087A               	movf	read_prec_or_width@n+1,w
  2073     1057  00F7               	movwf	?_read_prec_or_width+1
  2074     1058  0879               	movf	read_prec_or_width@n,w
  2075     1059  00F6               	movwf	?_read_prec_or_width
  2076     105A                     l729:
  2077     105A  0008               	return
  2078     105B                     __end_of_read_prec_or_width:
  2079                           
  2080                           	psect	text5
  2081     1E74                     __ptext5:	
  2082 ;; *************** function ___wmul *****************
  2083 ;; Defined at:
  2084 ;;		line 15 in file "C:\Program Files\Microchip\xc8\v3.00\pic\sources\c99\common\Umul16.c"
  2085 ;; Parameters:    Size  Location     Type
  2086 ;;  multiplier      2    0[COMMON] unsigned int 
  2087 ;;  multiplicand    2    2[COMMON] unsigned int 
  2088 ;; Auto vars:     Size  Location     Type
  2089 ;;  product         2    4[COMMON] unsigned int 
  2090 ;; Return value:  Size  Location     Type
  2091 ;;                  2    0[COMMON] unsigned int 
  2092 ;; Registers used:
  2093 ;;		wreg, status,2, status,0
  2094 ;; Tracked objects:
  2095 ;;		On entry : 0/0
  2096 ;;		On exit  : 0/0
  2097 ;;		Unchanged: 0/0
  2098 ;; Data sizes:     COMMON   BANK0   BANK1   BANK3   BANK2
  2099 ;;      Params:         4       0       0       0       0
  2100 ;;      Locals:         2       0       0       0       0
  2101 ;;      Temps:          0       0       0       0       0
  2102 ;;      Totals:         6       0       0       0       0
  2103 ;;Total ram usage:        6 bytes
  2104 ;; Hardware stack levels used: 1
  2105 ;; This function calls:
  2106 ;;		Nothing
  2107 ;; This function is called by:
  2108 ;;		_read_prec_or_width
  2109 ;; This function uses a non-reentrant model
  2110 ;;
  2111                           
  2112     1E74                     ___wmul:	
  2113                           ;psect for function ___wmul
  2114                           
  2115     1E74                     l2248:	
  2116                           ;incstack = 0
  2117                           ; Regs used in ___wmul: [wreg+status,2+status,0]
  2118                           
  2119     1E74  01F4               	clrf	___wmul@product
  2120     1E75  01F5               	clrf	___wmul@product+1
  2121     1E76                     l2250:
  2122     1E76  1C70               	btfss	___wmul@multiplier,0
  2123     1E77  2E79               	goto	u3361
  2124     1E78  2E7A               	goto	u3360
  2125     1E79                     u3361:
  2126     1E79  2E80               	goto	l175
  2127     1E7A                     u3360:
  2128     1E7A                     l2252:
  2129     1E7A  0872               	movf	___wmul@multiplicand,w
  2130     1E7B  07F4               	addwf	___wmul@product,f
  2131     1E7C  1803               	skipnc
  2132     1E7D  0AF5               	incf	___wmul@product+1,f
  2133     1E7E  0873               	movf	___wmul@multiplicand+1,w
  2134     1E7F  07F5               	addwf	___wmul@product+1,f
  2135     1E80                     l175:
  2136     1E80  3001               	movlw	1
  2137     1E81                     u3375:
  2138     1E81  1003               	clrc
  2139     1E82  0DF2               	rlf	___wmul@multiplicand,f
  2140     1E83  0DF3               	rlf	___wmul@multiplicand+1,f
  2141     1E84  3EFF               	addlw	-1
  2142     1E85  1D03               	skipz
  2143     1E86  2E81               	goto	u3375
  2144     1E87                     l2254:
  2145     1E87  3001               	movlw	1
  2146     1E88                     u3385:
  2147     1E88  1003               	clrc
  2148     1E89  0CF1               	rrf	___wmul@multiplier+1,f
  2149     1E8A  0CF0               	rrf	___wmul@multiplier,f
  2150     1E8B  3EFF               	addlw	-1
  2151     1E8C  1D03               	skipz
  2152     1E8D  2E88               	goto	u3385
  2153     1E8E                     l2256:
  2154     1E8E  0870               	movf	___wmul@multiplier,w
  2155     1E8F  0471               	iorwf	___wmul@multiplier+1,w
  2156     1E90  1D03               	btfss	3,2
  2157     1E91  2E93               	goto	u3391
  2158     1E92  2E94               	goto	u3390
  2159     1E93                     u3391:
  2160     1E93  2E76               	goto	l2250
  2161     1E94                     u3390:
  2162     1E94                     l2258:
  2163     1E94  0875               	movf	___wmul@product+1,w
  2164     1E95  00F1               	movwf	?___wmul+1
  2165     1E96  0874               	movf	___wmul@product,w
  2166     1E97  00F0               	movwf	?___wmul
  2167     1E98                     l177:
  2168     1E98  0008               	return
  2169     1E99                     __end_of___wmul:
  2170                           
  2171                           	psect	text6
  2172     15E6                     __ptext6:	
  2173 ;; *************** function _efgtoa *****************
  2174 ;; Defined at:
  2175 ;;		line 587 in file "C:\Program Files\Microchip\xc8\v3.00\pic\sources\c99\common\doprnt.c"
  2176 ;; Parameters:    Size  Location     Type
  2177 ;;  fp              2   46[BANK0 ] PTR struct _IO_FILE
  2178 ;;		 -> sprintf@f(11), 
  2179 ;;  f               4   48[BANK0 ] PTR struct _IO_FILE
  2180 ;;  c               1   52[BANK0 ] unsigned char 
  2181 ;; Auto vars:     Size  Location     Type
  2182 ;;  u               4   40[BANK1 ] struct flui
  2183 ;;  g               4   36[BANK1 ] struct flui
  2184 ;;  l               4   29[BANK1 ] struct flui
  2185 ;;  h               4   25[BANK1 ] struct flui
  2186 ;;  ou              4   19[BANK1 ] struct flui
  2187 ;;  n               2   34[BANK1 ] int 
  2188 ;;  i               2   23[BANK1 ] int 
  2189 ;;  w               2   17[BANK1 ] int 
  2190 ;;  e               2   15[BANK1 ] int 
  2191 ;;  m               2   13[BANK1 ] int 
  2192 ;;  d               2   11[BANK1 ] int 
  2193 ;;  t               2    4[BANK1 ] int 
  2194 ;;  p               2    2[BANK1 ] int 
  2195 ;;  ne              2    0[BANK1 ] int 
  2196 ;;  sign            1   33[BANK1 ] unsigned char 
  2197 ;;  nmode           1   10[BANK1 ] unsigned char 
  2198 ;;  mode            1    9[BANK1 ] unsigned char 
  2199 ;;  pp              1    8[BANK1 ] unsigned char 
  2200 ;;  esign           1    0        unsigned char 
  2201 ;; Return value:  Size  Location     Type
  2202 ;;                  1    wreg      void 
  2203 ;; Registers used:
  2204 ;;		wreg, fsr0l, fsr0h, status,2, status,0, btemp+1, pclath, cstack
  2205 ;; Tracked objects:
  2206 ;;		On entry : 0/0
  2207 ;;		On exit  : 0/0
  2208 ;;		Unchanged: 0/0
  2209 ;; Data sizes:     COMMON   BANK0   BANK1   BANK3   BANK2
  2210 ;;      Params:         0       7       0       0       0
  2211 ;;      Locals:         0       0      44       0       0
  2212 ;;      Temps:          0       4       0       0       0
  2213 ;;      Totals:         0      11      44       0       0
  2214 ;;Total ram usage:       55 bytes
  2215 ;; Hardware stack levels used: 1
  2216 ;; Hardware stack levels required when called: 4
  2217 ;; This function calls:
  2218 ;;		___fladd
  2219 ;;		___fldiv
  2220 ;;		___fleq
  2221 ;;		___flge
  2222 ;;		___flmul
  2223 ;;		___flneg
  2224 ;;		___flsub
  2225 ;;		___fltol
  2226 ;;		___fpclassifyf
  2227 ;;		_floorf
  2228 ;;		_labs
  2229 ;;		_memcpy
  2230 ;;		_pad
  2231 ;;		_strcpy
  2232 ;; This function is called by:
  2233 ;;		_vfpfcnvrt
  2234 ;; This function uses a non-reentrant model
  2235 ;;
  2236                           
  2237     15E6                     _efgtoa:	
  2238                           ;psect for function _efgtoa
  2239                           
  2240     15E6                     l2716:	
  2241                           ;incstack = 0
  2242                           ; Regs used in _efgtoa: [wreg-fsr0h+status,2+status,0+btemp+1+pclath+cstack]
  2243                           
  2244                           
  2245                           ;C:\Program Files\Microchip\xc8\v3.00\pic\sources\c99\common\doprnt.c: 587: static void 
      +                          efgtoa(FILE *fp, long double f, char c);C:\Program Files\Microchip\xc8\v3.00\pic\sources
      +                          \c99\common\doprnt.c: 588: {;C:\Program Files\Microchip\xc8\v3.00\pic\sources\c99\common
      +                          \doprnt.c: 589:     char mode, nmode, pp, sign, esign;;C:\Program Files\Microchip\xc8\v3
      +                          .00\pic\sources\c99\common\doprnt.c: 590:     int d, e, i, m, n, ne, p, t, w;;C:\Program
      +                           Files\Microchip\xc8\v3.00\pic\sources\c99\common\doprnt.c: 591:     long double h, l;
  2246     15E6  1683               	bsf	3,5	;RP0=1, select bank1
  2247     15E7  1303               	bcf	3,6	;RP1=0, select bank1
  2248     15E8  01C1               	clrf	efgtoa@sign^(0+128)
  2249     15E9                     l2718:
  2250                           
  2251                           ;C:\Program Files\Microchip\xc8\v3.00\pic\sources\c99\common\doprnt.c: 596:     g.f = f;
  2252     15E9  1283               	bcf	3,5	;RP0=0, select bank0
  2253     15EA  1303               	bcf	3,6	;RP1=0, select bank0
  2254     15EB  0853               	movf	efgtoa@f+3,w
  2255     15EC  1683               	bsf	3,5	;RP0=1, select bank1
  2256     15ED  1303               	bcf	3,6	;RP1=0, select bank1
  2257     15EE  00C7               	movwf	(efgtoa@g+3)^(0+128)
  2258     15EF  1283               	bcf	3,5	;RP0=0, select bank0
  2259     15F0  1303               	bcf	3,6	;RP1=0, select bank0
  2260     15F1  0852               	movf	efgtoa@f+2,w
  2261     15F2  1683               	bsf	3,5	;RP0=1, select bank1
  2262     15F3  1303               	bcf	3,6	;RP1=0, select bank1
  2263     15F4  00C6               	movwf	(efgtoa@g+2)^(0+128)
  2264     15F5  1283               	bcf	3,5	;RP0=0, select bank0
  2265     15F6  1303               	bcf	3,6	;RP1=0, select bank0
  2266     15F7  0851               	movf	efgtoa@f+1,w
  2267     15F8  1683               	bsf	3,5	;RP0=1, select bank1
  2268     15F9  1303               	bcf	3,6	;RP1=0, select bank1
  2269     15FA  00C5               	movwf	(efgtoa@g+1)^(0+128)
  2270     15FB  1283               	bcf	3,5	;RP0=0, select bank0
  2271     15FC  1303               	bcf	3,6	;RP1=0, select bank0
  2272     15FD  0850               	movf	efgtoa@f,w
  2273     15FE  1683               	bsf	3,5	;RP0=1, select bank1
  2274     15FF  1303               	bcf	3,6	;RP1=0, select bank1
  2275     1600  00C4               	movwf	efgtoa@g^(0+128)
  2276     1601                     l2720:
  2277                           
  2278                           ;C:\Program Files\Microchip\xc8\v3.00\pic\sources\c99\common\doprnt.c: 597:     if (g.f 
      +                          < 0.0) {
  2279     1601  0847               	movf	(efgtoa@g+3)^(0+128),w
  2280     1602  1283               	bcf	3,5	;RP0=0, select bank0
  2281     1603  1303               	bcf	3,6	;RP1=0, select bank0
  2282     1604  00B8               	movwf	___flge@ff1+3
  2283     1605  1683               	bsf	3,5	;RP0=1, select bank1
  2284     1606  1303               	bcf	3,6	;RP1=0, select bank1
  2285     1607  0846               	movf	(efgtoa@g+2)^(0+128),w
  2286     1608  1283               	bcf	3,5	;RP0=0, select bank0
  2287     1609  1303               	bcf	3,6	;RP1=0, select bank0
  2288     160A  00B7               	movwf	___flge@ff1+2
  2289     160B  1683               	bsf	3,5	;RP0=1, select bank1
  2290     160C  1303               	bcf	3,6	;RP1=0, select bank1
  2291     160D  0845               	movf	(efgtoa@g+1)^(0+128),w
  2292     160E  1283               	bcf	3,5	;RP0=0, select bank0
  2293     160F  1303               	bcf	3,6	;RP1=0, select bank0
  2294     1610  00B6               	movwf	___flge@ff1+1
  2295     1611  1683               	bsf	3,5	;RP0=1, select bank1
  2296     1612  1303               	bcf	3,6	;RP1=0, select bank1
  2297     1613  0844               	movf	efgtoa@g^(0+128),w
  2298     1614  1283               	bcf	3,5	;RP0=0, select bank0
  2299     1615  1303               	bcf	3,6	;RP1=0, select bank0
  2300     1616  00B5               	movwf	___flge@ff1
  2301     1617  3000               	movlw	0
  2302     1618  00BC               	movwf	___flge@ff2+3
  2303     1619  3000               	movlw	0
  2304     161A  00BB               	movwf	___flge@ff2+2
  2305     161B  3000               	movlw	0
  2306     161C  00BA               	movwf	___flge@ff2+1
  2307     161D  3000               	movlw	0
  2308     161E  00B9               	movwf	___flge@ff2
  2309     161F  160A  118A  22AD  160A  118A  	fcall	___flge
  2310     1624  1803               	btfsc	3,0
  2311     1625  2E27               	goto	u4521
  2312     1626  2E28               	goto	u4520
  2313     1627                     u4521:
  2314     1627  2E43               	goto	l2726
  2315     1628                     u4520:
  2316     1628                     l2722:
  2317                           
  2318                           ;C:\Program Files\Microchip\xc8\v3.00\pic\sources\c99\common\doprnt.c: 598:         sign
      +                           = 1;
  2319     1628  3001               	movlw	1
  2320     1629  1683               	bsf	3,5	;RP0=1, select bank1
  2321     162A  1303               	bcf	3,6	;RP1=0, select bank1
  2322     162B  00C1               	movwf	efgtoa@sign^(0+128)
  2323     162C                     l2724:
  2324                           
  2325                           ;C:\Program Files\Microchip\xc8\v3.00\pic\sources\c99\common\doprnt.c: 599:         g.f 
      +                          = -g.f;
  2326     162C  0847               	movf	(efgtoa@g+3)^(0+128),w
  2327     162D  00F3               	movwf	___flneg@f1+3
  2328     162E  0846               	movf	(efgtoa@g+2)^(0+128),w
  2329     162F  00F2               	movwf	___flneg@f1+2
  2330     1630  0845               	movf	(efgtoa@g+1)^(0+128),w
  2331     1631  00F1               	movwf	___flneg@f1+1
  2332     1632  0844               	movf	efgtoa@g^(0+128),w
  2333     1633  00F0               	movwf	___flneg@f1
  2334     1634  120A  158A  2000  160A  118A  	fcall	___flneg
  2335     1639  0873               	movf	?___flneg+3,w
  2336     163A  1683               	bsf	3,5	;RP0=1, select bank1
  2337     163B  1303               	bcf	3,6	;RP1=0, select bank1
  2338     163C  00C7               	movwf	(efgtoa@g+3)^(0+128)
  2339     163D  0872               	movf	?___flneg+2,w
  2340     163E  00C6               	movwf	(efgtoa@g+2)^(0+128)
  2341     163F  0871               	movf	?___flneg+1,w
  2342     1640  00C5               	movwf	(efgtoa@g+1)^(0+128)
  2343     1641  0870               	movf	?___flneg,w
  2344     1642  00C4               	movwf	efgtoa@g^(0+128)
  2345     1643                     l2726:
  2346                           
  2347                           ;C:\Program Files\Microchip\xc8\v3.00\pic\sources\c99\common\doprnt.c: 603:     n = 0;
  2348     1643  1683               	bsf	3,5	;RP0=1, select bank1
  2349     1644  1303               	bcf	3,6	;RP1=0, select bank1
  2350     1645  01C2               	clrf	efgtoa@n^(0+128)
  2351     1646  01C3               	clrf	(efgtoa@n+1)^(0+128)
  2352     1647                     l2728:
  2353                           
  2354                           ;C:\Program Files\Microchip\xc8\v3.00\pic\sources\c99\common\doprnt.c: 604:     w = widt
      +                          h;
  2355     1647  0865               	movf	(_width+1)^(0+128),w
  2356     1648  00B2               	movwf	(efgtoa@w+1)^(0+128)
  2357     1649  0864               	movf	_width^(0+128),w
  2358     164A  00B1               	movwf	efgtoa@w^(0+128)
  2359     164B                     l2730:
  2360                           
  2361                           ;C:\Program Files\Microchip\xc8\v3.00\pic\sources\c99\common\doprnt.c: 605:     if (sign
  2362     164B  0841               	movf	efgtoa@sign^(0+128),w
  2363     164C  1903               	btfsc	3,2
  2364     164D  2E4F               	goto	u4531
  2365     164E  2E50               	goto	u4530
  2366     164F                     u4531:
  2367     164F  2E60               	goto	l2738
  2368     1650                     u4530:
  2369     1650                     l2732:
  2370                           
  2371                           ;C:\Program Files\Microchip\xc8\v3.00\pic\sources\c99\common\doprnt.c: 609:    ) {;C:\Pr
      +                          ogram Files\Microchip\xc8\v3.00\pic\sources\c99\common\doprnt.c: 610:   sign = sign ? '-
      +                          ' : '+';
  2372     1650  0841               	movf	efgtoa@sign^(0+128),w
  2373     1651  1D03               	btfss	3,2
  2374     1652  2E54               	goto	u4541
  2375     1653  2E55               	goto	u4540
  2376     1654                     u4541:
  2377     1654  2E5A               	goto	l2736
  2378     1655                     u4540:
  2379     1655                     l2734:
  2380     1655  302B               	movlw	43
  2381     1656  00A6               	movwf	_efgtoa$653^(0+128)
  2382     1657  3000               	movlw	0
  2383     1658  00A7               	movwf	(_efgtoa$653^(0+128)+1)
  2384     1659  2E5E               	goto	l677
  2385     165A                     l2736:
  2386     165A  302D               	movlw	45
  2387     165B  00A6               	movwf	_efgtoa$653^(0+128)
  2388     165C  3000               	movlw	0
  2389     165D  00A7               	movwf	(_efgtoa$653^(0+128)+1)
  2390     165E                     l677:
  2391     165E  0826               	movf	_efgtoa$653^(0+128),w
  2392     165F  00C1               	movwf	efgtoa@sign^(0+128)
  2393     1660                     l2738:
  2394                           
  2395                           ;C:\Program Files\Microchip\xc8\v3.00\pic\sources\c99\common\doprnt.c: 619:     if (( __
      +                          fpclassifyf(g.f) == 1 )) {
  2396     1660  0847               	movf	(efgtoa@g+3)^(0+128),w
  2397     1661  00F3               	movwf	___fpclassifyf@x+3
  2398     1662  0846               	movf	(efgtoa@g+2)^(0+128),w
  2399     1663  00F2               	movwf	___fpclassifyf@x+2
  2400     1664  0845               	movf	(efgtoa@g+1)^(0+128),w
  2401     1665  00F1               	movwf	___fpclassifyf@x+1
  2402     1666  0844               	movf	efgtoa@g^(0+128),w
  2403     1667  00F0               	movwf	___fpclassifyf@x
  2404     1668  120A  158A  200B  160A  118A  	fcall	___fpclassifyf
  2405     166D  0370               	decf	?___fpclassifyf,w
  2406     166E  0471               	iorwf	?___fpclassifyf+1,w
  2407     166F  1D03               	btfss	3,2
  2408     1670  2E72               	goto	u4551
  2409     1671  2E73               	goto	u4550
  2410     1672                     u4551:
  2411     1672  2EB8               	goto	l2752
  2412     1673                     u4550:
  2413     1673                     l2740:
  2414                           
  2415                           ;C:\Program Files\Microchip\xc8\v3.00\pic\sources\c99\common\doprnt.c: 620:   if (sign) 
      +                          {
  2416     1673  1683               	bsf	3,5	;RP0=1, select bank1
  2417     1674  1303               	bcf	3,6	;RP1=0, select bank1
  2418     1675  0841               	movf	efgtoa@sign^(0+128),w
  2419     1676  1903               	btfsc	3,2
  2420     1677  2E79               	goto	u4561
  2421     1678  2E7A               	goto	u4560
  2422     1679                     u4561:
  2423     1679  2E8A               	goto	l2744
  2424     167A                     u4560:
  2425     167A                     l2742:
  2426                           
  2427                           ;C:\Program Files\Microchip\xc8\v3.00\pic\sources\c99\common\doprnt.c: 621:    dbuf[0] =
      +                           sign;
  2428     167A  0841               	movf	efgtoa@sign^(0+128),w
  2429     167B  1283               	bcf	3,5	;RP0=0, select bank2
  2430     167C  1703               	bsf	3,6	;RP1=1, select bank2
  2431     167D  0090               	movwf	_dbuf^(0+256)
  2432                           
  2433                           ;C:\Program Files\Microchip\xc8\v3.00\pic\sources\c99\common\doprnt.c: 622:    w--;
  2434     167E  30FF               	movlw	255
  2435     167F  1683               	bsf	3,5	;RP0=1, select bank1
  2436     1680  1303               	bcf	3,6	;RP1=0, select bank1
  2437     1681  07B1               	addwf	efgtoa@w^(0+128),f
  2438     1682  1803               	skipnc
  2439     1683  0AB2               	incf	(efgtoa@w+1)^(0+128),f
  2440     1684  30FF               	movlw	255
  2441     1685  07B2               	addwf	(efgtoa@w+1)^(0+128),f
  2442                           
  2443                           ;C:\Program Files\Microchip\xc8\v3.00\pic\sources\c99\common\doprnt.c: 623:    n = 1;
  2444     1686  3001               	movlw	1
  2445     1687  00C2               	movwf	efgtoa@n^(0+128)
  2446     1688  3000               	movlw	0
  2447     1689  00C3               	movwf	(efgtoa@n^(0+128)+1)
  2448     168A                     l2744:
  2449                           
  2450                           ;C:\Program Files\Microchip\xc8\v3.00\pic\sources\c99\common\doprnt.c: 631:   {;C:\Progr
      +                          am Files\Microchip\xc8\v3.00\pic\sources\c99\common\doprnt.c: 632:             strcpy(&d
      +                          buf[n], "inf");
  2451     168A  0842               	movf	efgtoa@n^(0+128),w
  2452     168B  3E10               	addlw	(low (_dbuf| (0+256)))& (0+255)
  2453     168C  00F0               	movwf	strcpy@dest
  2454     168D  3035               	movlw	(low ((STR_5-__stringbase)| (0+32768)))& (0+255)
  2455     168E  00F1               	movwf	strcpy@src
  2456     168F  160A  158A  25D5  160A  118A  	fcall	_strcpy
  2457     1694                     l2746:
  2458                           
  2459                           ;C:\Program Files\Microchip\xc8\v3.00\pic\sources\c99\common\doprnt.c: 633:         };C:
      +                          \Program Files\Microchip\xc8\v3.00\pic\sources\c99\common\doprnt.c: 634:         w -= ((
      +                          sizeof("inf")/sizeof("inf"[0]))-1);
  2460     1694  30FD               	movlw	253
  2461     1695  1683               	bsf	3,5	;RP0=1, select bank1
  2462     1696  1303               	bcf	3,6	;RP1=0, select bank1
  2463     1697  07B1               	addwf	efgtoa@w^(0+128),f
  2464     1698  1803               	skipnc
  2465     1699  0AB2               	incf	(efgtoa@w+1)^(0+128),f
  2466     169A  30FF               	movlw	255
  2467     169B  07B2               	addwf	(efgtoa@w+1)^(0+128),f
  2468     169C                     l2748:
  2469                           
  2470                           ;C:\Program Files\Microchip\xc8\v3.00\pic\sources\c99\common\doprnt.c: 635:         retu
      +                          rn (void) pad(fp, &dbuf[0], w);
  2471     169C  1283               	bcf	3,5	;RP0=0, select bank0
  2472     169D  1303               	bcf	3,6	;RP1=0, select bank0
  2473     169E  084E               	movf	efgtoa@fp,w
  2474     169F  00A8               	movwf	pad@fp
  2475     16A0  084F               	movf	efgtoa@fp+1,w
  2476     16A1  00A9               	movwf	pad@fp+1
  2477     16A2  3010               	movlw	(low (_dbuf| (0+256)))& (0+255)
  2478     16A3  00AA               	movwf	pad@buf
  2479     16A4  1683               	bsf	3,5	;RP0=1, select bank1
  2480     16A5  1303               	bcf	3,6	;RP1=0, select bank1
  2481     16A6  0832               	movf	(efgtoa@w+1)^(0+128),w
  2482     16A7  1283               	bcf	3,5	;RP0=0, select bank0
  2483     16A8  1303               	bcf	3,6	;RP1=0, select bank0
  2484     16A9  00AC               	movwf	pad@p+1
  2485     16AA  1683               	bsf	3,5	;RP0=1, select bank1
  2486     16AB  1303               	bcf	3,6	;RP1=0, select bank1
  2487     16AC  0831               	movf	efgtoa@w^(0+128),w
  2488     16AD  1283               	bcf	3,5	;RP0=0, select bank0
  2489     16AE  1303               	bcf	3,6	;RP1=0, select bank0
  2490     16AF  00AB               	movwf	pad@p
  2491     16B0  120A  118A  2009  160A  118A  	fcall	_pad
  2492     16B5  120A  118A  2FE9   	goto	l680
  2493     16B8                     l2752:
  2494                           
  2495                           ;C:\Program Files\Microchip\xc8\v3.00\pic\sources\c99\common\doprnt.c: 637:     if (( __
      +                          fpclassifyf(g.f) == 0 )) {
  2496     16B8  1683               	bsf	3,5	;RP0=1, select bank1
  2497     16B9  1303               	bcf	3,6	;RP1=0, select bank1
  2498     16BA  0847               	movf	(efgtoa@g+3)^(0+128),w
  2499     16BB  00F3               	movwf	___fpclassifyf@x+3
  2500     16BC  0846               	movf	(efgtoa@g+2)^(0+128),w
  2501     16BD  00F2               	movwf	___fpclassifyf@x+2
  2502     16BE  0845               	movf	(efgtoa@g+1)^(0+128),w
  2503     16BF  00F1               	movwf	___fpclassifyf@x+1
  2504     16C0  0844               	movf	efgtoa@g^(0+128),w
  2505     16C1  00F0               	movwf	___fpclassifyf@x
  2506     16C2  120A  158A  200B  160A  118A  	fcall	___fpclassifyf
  2507     16C7  0870               	movf	?___fpclassifyf,w
  2508     16C8  0471               	iorwf	?___fpclassifyf+1,w
  2509     16C9  1D03               	btfss	3,2
  2510     16CA  2ECC               	goto	u4571
  2511     16CB  2ECF               	goto	u4570
  2512     16CC                     u4571:
  2513     16CC  120A  118A  2847   	goto	l2766
  2514     16CF                     u4570:
  2515     16CF                     l2754:
  2516                           
  2517                           ;C:\Program Files\Microchip\xc8\v3.00\pic\sources\c99\common\doprnt.c: 638:   if (sign) 
      +                          {
  2518     16CF  1683               	bsf	3,5	;RP0=1, select bank1
  2519     16D0  1303               	bcf	3,6	;RP1=0, select bank1
  2520     16D1  0841               	movf	efgtoa@sign^(0+128),w
  2521     16D2  1903               	btfsc	3,2
  2522     16D3  2ED5               	goto	u4581
  2523     16D4  2ED6               	goto	u4580
  2524     16D5                     u4581:
  2525     16D5  2EE6               	goto	l2758
  2526     16D6                     u4580:
  2527     16D6                     l2756:
  2528                           
  2529                           ;C:\Program Files\Microchip\xc8\v3.00\pic\sources\c99\common\doprnt.c: 639:    dbuf[0] =
      +                           sign;
  2530     16D6  0841               	movf	efgtoa@sign^(0+128),w
  2531     16D7  1283               	bcf	3,5	;RP0=0, select bank2
  2532     16D8  1703               	bsf	3,6	;RP1=1, select bank2
  2533     16D9  0090               	movwf	_dbuf^(0+256)
  2534                           
  2535                           ;C:\Program Files\Microchip\xc8\v3.00\pic\sources\c99\common\doprnt.c: 640:    w--;
  2536     16DA  30FF               	movlw	255
  2537     16DB  1683               	bsf	3,5	;RP0=1, select bank1
  2538     16DC  1303               	bcf	3,6	;RP1=0, select bank1
  2539     16DD  07B1               	addwf	efgtoa@w^(0+128),f
  2540     16DE  1803               	skipnc
  2541     16DF  0AB2               	incf	(efgtoa@w+1)^(0+128),f
  2542     16E0  30FF               	movlw	255
  2543     16E1  07B2               	addwf	(efgtoa@w+1)^(0+128),f
  2544                           
  2545                           ;C:\Program Files\Microchip\xc8\v3.00\pic\sources\c99\common\doprnt.c: 641:    n = 1;
  2546     16E2  3001               	movlw	1
  2547     16E3  00C2               	movwf	efgtoa@n^(0+128)
  2548     16E4  3000               	movlw	0
  2549     16E5  00C3               	movwf	(efgtoa@n^(0+128)+1)
  2550     16E6                     l2758:
  2551                           
  2552                           ;C:\Program Files\Microchip\xc8\v3.00\pic\sources\c99\common\doprnt.c: 649:   {;C:\Progr
      +                          am Files\Microchip\xc8\v3.00\pic\sources\c99\common\doprnt.c: 650:             strcpy(&d
      +                          buf[n], "nan");
  2553     16E6  0842               	movf	efgtoa@n^(0+128),w
  2554     16E7  3E10               	addlw	(low (_dbuf| (0+256)))& (0+255)
  2555     16E8  00F0               	movwf	strcpy@dest
  2556     16E9  3039               	movlw	(low ((STR_8-__stringbase)| (0+32768)))& (0+255)
  2557     16EA  00F1               	movwf	strcpy@src
  2558     16EB  160A  158A  25D5  160A  118A  	fcall	_strcpy
  2559     16F0  2E94               	goto	l2746
  2560                           
  2561                           	psect	text7
  2562     1DD5                     __ptext7:	
  2563 ;; *************** function _strcpy *****************
  2564 ;; Defined at:
  2565 ;;		line 3 in file "C:\Program Files\Microchip\xc8\v3.00\pic\sources\c99\common\strcpy.c"
  2566 ;; Parameters:    Size  Location     Type
  2567 ;;  dest            1    0[COMMON] PTR unsigned char 
  2568 ;;		 -> dbuf(80), 
  2569 ;;  src             1    1[COMMON] PTR const unsigned char 
  2570 ;;		 -> STR_8(4), STR_5(4), 
  2571 ;; Auto vars:     Size  Location     Type
  2572 ;;  d               1    2[COMMON] PTR unsigned char 
  2573 ;;		 -> dbuf(80), 
  2574 ;; Return value:  Size  Location     Type
  2575 ;;                  1    0[COMMON] PTR unsigned char 
  2576 ;; Registers used:
  2577 ;;		wreg, fsr0l, fsr0h, status,2, status,0, btemp+1, pclath
  2578 ;; Tracked objects:
  2579 ;;		On entry : 0/0
  2580 ;;		On exit  : 0/0
  2581 ;;		Unchanged: 0/0
  2582 ;; Data sizes:     COMMON   BANK0   BANK1   BANK3   BANK2
  2583 ;;      Params:         2       0       0       0       0
  2584 ;;      Locals:         1       0       0       0       0
  2585 ;;      Temps:          0       0       0       0       0
  2586 ;;      Totals:         3       0       0       0       0
  2587 ;;Total ram usage:        3 bytes
  2588 ;; Hardware stack levels used: 2
  2589 ;; This function calls:
  2590 ;;		Nothing
  2591 ;; This function is called by:
  2592 ;;		_efgtoa
  2593 ;; This function uses a non-reentrant model
  2594 ;;
  2595                           
  2596     1DD5                     _strcpy:	
  2597                           ;psect for function _strcpy
  2598                           
  2599     1DD5                     l2666:	
  2600                           ;incstack = 0
  2601                           ; Regs used in _strcpy: [wreg-fsr0h+status,2+status,0+btemp+1+pclath]
  2602                           
  2603     1DD5  0870               	movf	strcpy@dest,w
  2604     1DD6  00F2               	movwf	strcpy@d
  2605     1DD7                     l2668:
  2606     1DD7  3001               	movlw	1
  2607     1DD8  07F1               	addwf	strcpy@src,f
  2608     1DD9  30FF               	movlw	-1
  2609     1DDA  0771               	addwf	strcpy@src,w
  2610     1DDB  0084               	movwf	4
  2611     1DDC  160A  158A  200A  160A  158A  	fcall	stringdir
  2612     1DE1  00FF               	movwf	btemp+1
  2613     1DE2  0872               	movf	strcpy@d,w
  2614     1DE3  0AF2               	incf	strcpy@d,f
  2615     1DE4  0084               	movwf	4
  2616     1DE5  087F               	movf	btemp+1,w
  2617     1DE6  1783               	bsf	3,7	;select IRP bank2
  2618     1DE7  0080               	movwf	0
  2619     1DE8  0800               	movf	0,w
  2620     1DE9  1D03               	btfss	3,2
  2621     1DEA  2DEC               	goto	u4371
  2622     1DEB  2DED               	goto	u4370
  2623     1DEC                     u4371:
  2624     1DEC  2DD7               	goto	l2668
  2625     1DED                     u4370:
  2626     1DED                     l822:
  2627     1DED  0008               	return
  2628     1DEE                     __end_of_strcpy:
  2629                           
  2630                           	psect	text8
  2631     0009                     __ptext8:	
  2632 ;; *************** function _pad *****************
  2633 ;; Defined at:
  2634 ;;		line 193 in file "C:\Program Files\Microchip\xc8\v3.00\pic\sources\c99\common\doprnt.c"
  2635 ;; Parameters:    Size  Location     Type
  2636 ;;  fp              2    8[BANK0 ] PTR struct _IO_FILE
  2637 ;;		 -> sprintf@f(11), 
  2638 ;;  buf             1   10[BANK0 ] PTR unsigned char 
  2639 ;;		 -> dbuf(80), 
  2640 ;;  p               2   11[BANK0 ] int 
  2641 ;; Auto vars:     Size  Location     Type
  2642 ;;  i               2   13[BANK0 ] int 
  2643 ;; Return value:  Size  Location     Type
  2644 ;;                  1    wreg      void 
  2645 ;; Registers used:
  2646 ;;		wreg, fsr0l, fsr0h, status,2, status,0, pclath, cstack
  2647 ;; Tracked objects:
  2648 ;;		On entry : 0/0
  2649 ;;		On exit  : 0/0
  2650 ;;		Unchanged: 0/0
  2651 ;; Data sizes:     COMMON   BANK0   BANK1   BANK3   BANK2
  2652 ;;      Params:         0       5       0       0       0
  2653 ;;      Locals:         0       2       0       0       0
  2654 ;;      Temps:          1       0       0       0       0
  2655 ;;      Totals:         1       7       0       0       0
  2656 ;;Total ram usage:        8 bytes
  2657 ;; Hardware stack levels used: 1
  2658 ;; Hardware stack levels required when called: 3
  2659 ;; This function calls:
  2660 ;;		_fputc
  2661 ;;		_fputs
  2662 ;; This function is called by:
  2663 ;;		_efgtoa
  2664 ;; This function uses a non-reentrant model
  2665 ;;
  2666                           
  2667     0009                     _pad:	
  2668                           ;psect for function _pad
  2669                           
  2670     0009                     l2630:	
  2671                           ;incstack = 0
  2672                           ; Regs used in _pad: [wreg-fsr0h+status,2+status,0+pclath+cstack]
  2673                           
  2674                           
  2675                           ;C:\Program Files\Microchip\xc8\v3.00\pic\sources\c99\common\doprnt.c: 193: static void 
      +                          pad(FILE *fp, char *buf, int p);C:\Program Files\Microchip\xc8\v3.00\pic\sources\c99\com
      +                          mon\doprnt.c: 194: {;C:\Program Files\Microchip\xc8\v3.00\pic\sources\c99\common\doprnt.
      +                          c: 195:     int i;;C:\Program Files\Microchip\xc8\v3.00\pic\sources\c99\common\doprnt.c:
      +                           205:  if (p < 0) {
  2676     0009  1283               	bcf	3,5	;RP0=0, select bank0
  2677     000A  1303               	bcf	3,6	;RP1=0, select bank0
  2678     000B  1FAC               	btfss	pad@p+1,7
  2679     000C  280E               	goto	u4271
  2680     000D  280F               	goto	u4270
  2681     000E                     u4271:
  2682     000E  2811               	goto	l665
  2683     000F                     u4270:
  2684     000F                     l2632:
  2685                           
  2686                           ;C:\Program Files\Microchip\xc8\v3.00\pic\sources\c99\common\doprnt.c: 206:   p = 0;
  2687     000F  01AB               	clrf	pad@p
  2688     0010  01AC               	clrf	pad@p+1
  2689     0011                     l665:	
  2690                           ;C:\Program Files\Microchip\xc8\v3.00\pic\sources\c99\common\doprnt.c: 207:  }
  2691                           
  2692                           
  2693                           ;C:\Program Files\Microchip\xc8\v3.00\pic\sources\c99\common\doprnt.c: 208:     i = 0;
  2694     0011  01AD               	clrf	pad@i
  2695     0012  01AE               	clrf	pad@i+1
  2696                           
  2697                           ;C:\Program Files\Microchip\xc8\v3.00\pic\sources\c99\common\doprnt.c: 209:     while (i
      +                           < p) {
  2698     0013  282B               	goto	l2638
  2699     0014                     l2634:
  2700                           
  2701                           ;C:\Program Files\Microchip\xc8\v3.00\pic\sources\c99\common\doprnt.c: 210:         fput
      +                          c(' ', fp);
  2702     0014  3020               	movlw	32
  2703     0015  00F0               	movwf	fputc@c
  2704     0016  3000               	movlw	0
  2705     0017  00F1               	movwf	fputc@c+1
  2706     0018  1283               	bcf	3,5	;RP0=0, select bank0
  2707     0019  1303               	bcf	3,6	;RP1=0, select bank0
  2708     001A  0828               	movf	pad@fp,w
  2709     001B  00F2               	movwf	fputc@fp
  2710     001C  0829               	movf	pad@fp+1,w
  2711     001D  00F3               	movwf	fputc@fp+1
  2712     001E  160A  118A  20CF  120A  118A  	fcall	_fputc
  2713     0023                     l2636:
  2714                           
  2715                           ;C:\Program Files\Microchip\xc8\v3.00\pic\sources\c99\common\doprnt.c: 211:         ++i;
  2716     0023  3001               	movlw	1
  2717     0024  1283               	bcf	3,5	;RP0=0, select bank0
  2718     0025  1303               	bcf	3,6	;RP1=0, select bank0
  2719     0026  07AD               	addwf	pad@i,f
  2720     0027  1803               	skipnc
  2721     0028  0AAE               	incf	pad@i+1,f
  2722     0029  3000               	movlw	0
  2723     002A  07AE               	addwf	pad@i+1,f
  2724     002B                     l2638:
  2725                           
  2726                           ;C:\Program Files\Microchip\xc8\v3.00\pic\sources\c99\common\doprnt.c: 209:     while (i
      +                           < p) {
  2727     002B  082E               	movf	pad@i+1,w
  2728     002C  3A80               	xorlw	128
  2729     002D  00FD               	movwf	??_pad
  2730     002E  082C               	movf	pad@p+1,w
  2731     002F  3A80               	xorlw	128
  2732     0030  027D               	subwf	??_pad,w
  2733     0031  1D03               	skipz
  2734     0032  2835               	goto	u4285
  2735     0033  082B               	movf	pad@p,w
  2736     0034  022D               	subwf	pad@i,w
  2737     0035                     u4285:
  2738     0035  1C03               	skipc
  2739     0036  2838               	goto	u4281
  2740     0037  2839               	goto	u4280
  2741     0038                     u4281:
  2742     0038  2814               	goto	l2634
  2743     0039                     u4280:
  2744     0039                     l2640:
  2745                           
  2746                           ;C:\Program Files\Microchip\xc8\v3.00\pic\sources\c99\common\doprnt.c: 218:         fput
      +                          s((const char *)buf, fp);
  2747     0039  1283               	bcf	3,5	;RP0=0, select bank0
  2748     003A  1303               	bcf	3,6	;RP1=0, select bank0
  2749     003B  082A               	movf	pad@buf,w
  2750     003C  00A0               	movwf	fputs@s
  2751     003D  0828               	movf	pad@fp,w
  2752     003E  00A1               	movwf	fputs@fp
  2753     003F  0829               	movf	pad@fp+1,w
  2754     0040  00A2               	movwf	fputs@fp+1
  2755     0041  160A  158A  26E6  120A  118A  	fcall	_fputs
  2756     0046                     l669:
  2757     0046  0008               	return
  2758     0047                     __end_of_pad:
  2759                           
  2760                           	psect	text9
  2761     1EE6                     __ptext9:	
  2762 ;; *************** function _fputs *****************
  2763 ;; Defined at:
  2764 ;;		line 8 in file "C:\Program Files\Microchip\xc8\v3.00\pic\sources\c99\common\nf_fputs.c"
  2765 ;; Parameters:    Size  Location     Type
  2766 ;;  s               1    0[BANK0 ] PTR const unsigned char 
  2767 ;;		 -> dbuf(80), 
  2768 ;;  fp              2    1[BANK0 ] PTR struct _IO_FILE
  2769 ;;		 -> sprintf@f(11), 
  2770 ;; Auto vars:     Size  Location     Type
  2771 ;;  i               2    6[BANK0 ] int 
  2772 ;;  c               1    5[BANK0 ] unsigned char 
  2773 ;; Return value:  Size  Location     Type
  2774 ;;                  2    0[BANK0 ] int 
  2775 ;; Registers used:
  2776 ;;		wreg, fsr0l, fsr0h, status,2, status,0, pclath, cstack
  2777 ;; Tracked objects:
  2778 ;;		On entry : 0/0
  2779 ;;		On exit  : 0/0
  2780 ;;		Unchanged: 0/0
  2781 ;; Data sizes:     COMMON   BANK0   BANK1   BANK3   BANK2
  2782 ;;      Params:         0       3       0       0       0
  2783 ;;      Locals:         0       3       0       0       0
  2784 ;;      Temps:          0       2       0       0       0
  2785 ;;      Totals:         0       8       0       0       0
  2786 ;;Total ram usage:        8 bytes
  2787 ;; Hardware stack levels used: 1
  2788 ;; Hardware stack levels required when called: 2
  2789 ;; This function calls:
  2790 ;;		_fputc
  2791 ;; This function is called by:
  2792 ;;		_pad
  2793 ;; This function uses a non-reentrant model
  2794 ;;
  2795                           
  2796     1EE6                     _fputs:	
  2797                           ;psect for function _fputs
  2798                           
  2799     1EE6                     l2240:	
  2800                           ;incstack = 0
  2801                           ; Regs used in _fputs: [wreg-fsr0h+status,2+status,0+pclath+cstack]
  2802                           
  2803     1EE6  1283               	bcf	3,5	;RP0=0, select bank0
  2804     1EE7  1303               	bcf	3,6	;RP1=0, select bank0
  2805     1EE8  01A6               	clrf	fputs@i
  2806     1EE9  01A7               	clrf	fputs@i+1
  2807     1EEA  2F03               	goto	l2246
  2808     1EEB                     l2242:
  2809     1EEB  0825               	movf	fputs@c,w
  2810     1EEC  00A3               	movwf	??_fputs
  2811     1EED  01A4               	clrf	??_fputs+1
  2812     1EEE  0823               	movf	??_fputs,w
  2813     1EEF  00F0               	movwf	fputc@c
  2814     1EF0  0824               	movf	??_fputs+1,w
  2815     1EF1  00F1               	movwf	fputc@c+1
  2816     1EF2  0821               	movf	fputs@fp,w
  2817     1EF3  00F2               	movwf	fputc@fp
  2818     1EF4  0822               	movf	fputs@fp+1,w
  2819     1EF5  00F3               	movwf	fputc@fp+1
  2820     1EF6  160A  118A  20CF  160A  158A  	fcall	_fputc
  2821     1EFB                     l2244:
  2822     1EFB  3001               	movlw	1
  2823     1EFC  1283               	bcf	3,5	;RP0=0, select bank0
  2824     1EFD  1303               	bcf	3,6	;RP1=0, select bank0
  2825     1EFE  07A6               	addwf	fputs@i,f
  2826     1EFF  1803               	skipnc
  2827     1F00  0AA7               	incf	fputs@i+1,f
  2828     1F01  3000               	movlw	0
  2829     1F02  07A7               	addwf	fputs@i+1,f
  2830     1F03                     l2246:
  2831     1F03  0826               	movf	fputs@i,w
  2832     1F04  0720               	addwf	fputs@s,w
  2833     1F05  00A3               	movwf	??_fputs
  2834     1F06  0823               	movf	??_fputs,w
  2835     1F07  0084               	movwf	4
  2836     1F08  1783               	bsf	3,7	;select IRP bank2
  2837     1F09  0800               	movf	0,w
  2838     1F0A  00A5               	movwf	fputs@c
  2839     1F0B  0825               	movf	fputs@c,w
  2840     1F0C  1D03               	btfss	3,2
  2841     1F0D  2F0F               	goto	u3351
  2842     1F0E  2F10               	goto	u3350
  2843     1F0F                     u3351:
  2844     1F0F  2EEB               	goto	l2242
  2845     1F10                     u3350:
  2846     1F10                     l813:
  2847     1F10  0008               	return
  2848     1F11                     __end_of_fputs:
  2849                           
  2850                           	psect	text10
  2851     10CF                     __ptext10:	
  2852 ;; *************** function _fputc *****************
  2853 ;; Defined at:
  2854 ;;		line 8 in file "C:\Program Files\Microchip\xc8\v3.00\pic\sources\c99\common\nf_fputc.c"
  2855 ;; Parameters:    Size  Location     Type
  2856 ;;  c               2    0[COMMON] int 
  2857 ;;  fp              2    2[COMMON] PTR struct _IO_FILE
  2858 ;;		 -> sprintf@f(11), 
  2859 ;; Auto vars:     Size  Location     Type
  2860 ;;		None
  2861 ;; Return value:  Size  Location     Type
  2862 ;;                  2    0[COMMON] int 
  2863 ;; Registers used:
  2864 ;;		wreg, fsr0l, fsr0h, status,2, status,0, pclath, cstack
  2865 ;; Tracked objects:
  2866 ;;		On entry : 0/0
  2867 ;;		On exit  : 0/0
  2868 ;;		Unchanged: 0/0
  2869 ;; Data sizes:     COMMON   BANK0   BANK1   BANK3   BANK2
  2870 ;;      Params:         4       0       0       0       0
  2871 ;;      Locals:         0       0       0       0       0
  2872 ;;      Temps:          9       0       0       0       0
  2873 ;;      Totals:        13       0       0       0       0
  2874 ;;Total ram usage:       13 bytes
  2875 ;; Hardware stack levels used: 1
  2876 ;; Hardware stack levels required when called: 1
  2877 ;; This function calls:
  2878 ;;		_putch
  2879 ;; This function is called by:
  2880 ;;		_pad
  2881 ;;		_vfpfcnvrt
  2882 ;;		_fputs
  2883 ;; This function uses a non-reentrant model
  2884 ;;
  2885                           
  2886     10CF                     _fputc:	
  2887                           ;psect for function _fputc
  2888                           
  2889     10CF                     l2014:	
  2890                           ;incstack = 0
  2891                           ; Regs used in _fputc: [wreg-fsr0h+status,2+status,0+pclath+cstack]
  2892                           
  2893     10CF  0872               	movf	fputc@fp,w
  2894     10D0  0473               	iorwf	fputc@fp+1,w
  2895     10D1  1903               	btfsc	3,2
  2896     10D2  28D4               	goto	u2811
  2897     10D3  28D5               	goto	u2810
  2898     10D4                     u2811:
  2899     10D4  28DB               	goto	l2018
  2900     10D5                     u2810:
  2901     10D5                     l2016:
  2902     10D5  0872               	movf	fputc@fp,w
  2903     10D6  0473               	iorwf	fputc@fp+1,w
  2904     10D7  1D03               	btfss	3,2
  2905     10D8  28DA               	goto	u2821
  2906     10D9  28DB               	goto	u2820
  2907     10DA                     u2821:
  2908     10DA  28E2               	goto	l2020
  2909     10DB                     u2820:
  2910     10DB                     l2018:
  2911     10DB  0870               	movf	fputc@c,w
  2912     10DC  120A  118A  2008  160A  118A  	fcall	_putch
  2913     10E1  2968               	goto	l805
  2914     10E2                     l2020:
  2915     10E2  0872               	movf	fputc@fp,w
  2916     10E3  3E09               	addlw	9
  2917     10E4  00F4               	movwf	??_fputc
  2918     10E5  0873               	movf	fputc@fp+1,w
  2919     10E6  1803               	skipnc
  2920     10E7  3E01               	addlw	1
  2921     10E8  3E00               	addlw	0
  2922     10E9  00F5               	movwf	??_fputc+1
  2923     10EA  0874               	movf	??_fputc,w
  2924     10EB  0084               	movwf	4
  2925     10EC  1783               	bsf	3,7
  2926     10ED  1C75               	btfss	??_fputc+1,0
  2927     10EE  1383               	bcf	3,7
  2928     10EF  0800               	movf	0,w
  2929     10F0  00F6               	movwf	??_fputc+2
  2930     10F1  0A84               	incf	4,f
  2931     10F2  0800               	movf	0,w
  2932     10F3  00F7               	movwf	??_fputc+3
  2933     10F4  0876               	movf	??_fputc+2,w
  2934     10F5  0477               	iorwf	??_fputc+3,w
  2935     10F6  1903               	btfsc	3,2
  2936     10F7  28F9               	goto	u2831
  2937     10F8  28FA               	goto	u2830
  2938     10F9                     u2831:
  2939     10F9  292C               	goto	l2024
  2940     10FA                     u2830:
  2941     10FA                     l2022:
  2942     10FA  0872               	movf	fputc@fp,w
  2943     10FB  3E09               	addlw	9
  2944     10FC  00F4               	movwf	??_fputc
  2945     10FD  0873               	movf	fputc@fp+1,w
  2946     10FE  1803               	skipnc
  2947     10FF  3E01               	addlw	1
  2948     1100  3E00               	addlw	0
  2949     1101  00F5               	movwf	??_fputc+1
  2950     1102  0874               	movf	??_fputc,w
  2951     1103  0084               	movwf	4
  2952     1104  1783               	bsf	3,7
  2953     1105  1C75               	btfss	??_fputc+1,0
  2954     1106  1383               	bcf	3,7
  2955     1107  0800               	movf	0,w
  2956     1108  00F6               	movwf	??_fputc+2
  2957     1109  0A84               	incf	4,f
  2958     110A  0800               	movf	0,w
  2959     110B  00F7               	movwf	??_fputc+3
  2960     110C  0872               	movf	fputc@fp,w
  2961     110D  3E02               	addlw	2
  2962     110E  00F8               	movwf	??_fputc+4
  2963     110F  0873               	movf	fputc@fp+1,w
  2964     1110  1803               	skipnc
  2965     1111  3E01               	addlw	1
  2966     1112  3E00               	addlw	0
  2967     1113  00F9               	movwf	??_fputc+5
  2968     1114  0878               	movf	??_fputc+4,w
  2969     1115  0084               	movwf	4
  2970     1116  1783               	bsf	3,7
  2971     1117  1C79               	btfss	??_fputc+5,0
  2972     1118  1383               	bcf	3,7
  2973     1119  0800               	movf	0,w
  2974     111A  00FA               	movwf	??_fputc+6
  2975     111B  0A84               	incf	4,f
  2976     111C  0800               	movf	0,w
  2977     111D  00FB               	movwf	??_fputc+7
  2978     111E  087B               	movf	??_fputc+7,w
  2979     111F  3A80               	xorlw	128
  2980     1120  00FC               	movwf	??_fputc+8
  2981     1121  0877               	movf	??_fputc+3,w
  2982     1122  3A80               	xorlw	128
  2983     1123  027C               	subwf	??_fputc+8,w
  2984     1124  1D03               	skipz
  2985     1125  2928               	goto	u2845
  2986     1126  0876               	movf	??_fputc+2,w
  2987     1127  027A               	subwf	??_fputc+6,w
  2988     1128                     u2845:
  2989     1128  1803               	skipnc
  2990     1129  292B               	goto	u2841
  2991     112A  292C               	goto	u2840
  2992     112B                     u2841:
  2993     112B  2968               	goto	l805
  2994     112C                     u2840:
  2995     112C                     l2024:
  2996     112C  0872               	movf	fputc@fp,w
  2997     112D  0084               	movwf	4
  2998     112E  1783               	bsf	3,7
  2999     112F  1C73               	btfss	fputc@fp+1,0
  3000     1130  1383               	bcf	3,7
  3001     1131  0800               	movf	0,w
  3002     1132  00F4               	movwf	??_fputc
  3003     1133  0A84               	incf	4,f
  3004     1134  0800               	movf	0,w
  3005     1135  00F5               	movwf	??_fputc+1
  3006     1136  0872               	movf	fputc@fp,w
  3007     1137  3E02               	addlw	2
  3008     1138  00F6               	movwf	??_fputc+2
  3009     1139  0873               	movf	fputc@fp+1,w
  3010     113A  1803               	skipnc
  3011     113B  3E01               	addlw	1
  3012     113C  3E00               	addlw	0
  3013     113D  00F7               	movwf	??_fputc+3
  3014     113E  0876               	movf	??_fputc+2,w
  3015     113F  0084               	movwf	4
  3016     1140  1783               	bsf	3,7
  3017     1141  1C77               	btfss	??_fputc+3,0
  3018     1142  1383               	bcf	3,7
  3019     1143  0800               	movf	0,w
  3020     1144  0774               	addwf	??_fputc,w
  3021     1145  00F9               	movwf	??_fputc+5
  3022     1146  0875               	movf	??_fputc+1,w
  3023     1147  00F8               	movwf	??_fputc+4
  3024     1148  1803               	skipnc
  3025     1149  0AF8               	incf	??_fputc+4,f
  3026     114A  1F80               	btfss	0,7
  3027     114B  294D               	goto	u2850
  3028     114C  03F8               	decf	??_fputc+4,f
  3029     114D                     u2850:
  3030     114D  0878               	movf	??_fputc+4,w
  3031     114E  00FA               	movwf	??_fputc+6
  3032     114F  0879               	movf	??_fputc+5,w
  3033     1150  0084               	movwf	4
  3034     1151  1783               	bsf	3,7
  3035     1152  1C7A               	btfss	??_fputc+6,0
  3036     1153  1383               	bcf	3,7
  3037     1154  0870               	movf	fputc@c,w
  3038     1155  0080               	movwf	0
  3039     1156  0872               	movf	fputc@fp,w
  3040     1157  3E02               	addlw	2
  3041     1158  00F4               	movwf	??_fputc
  3042     1159  0873               	movf	fputc@fp+1,w
  3043     115A  1803               	skipnc
  3044     115B  3E01               	addlw	1
  3045     115C  3E00               	addlw	0
  3046     115D  00F5               	movwf	??_fputc+1
  3047     115E  0874               	movf	??_fputc,w
  3048     115F  0084               	movwf	4
  3049     1160  1783               	bsf	3,7
  3050     1161  1C75               	btfss	??_fputc+1,0
  3051     1162  1383               	bcf	3,7
  3052     1163  3001               	movlw	1
  3053     1164  0780               	addwf	0,f
  3054     1165  0A84               	incf	4,f
  3055     1166  1803               	skipnc
  3056     1167  0A80               	incf	0,f
  3057     1168                     l805:
  3058     1168  0008               	return
  3059     1169                     __end_of_fputc:
  3060                           
  3061                           	psect	text11
  3062     0008                     __ptext11:	
  3063 ;; *************** function _putch *****************
  3064 ;; Defined at:
  3065 ;;		line 7 in file "C:\Program Files\Microchip\xc8\v3.00\pic\sources\c99\common\putch.c"
  3066 ;; Parameters:    Size  Location     Type
  3067 ;;  c               1    wreg     unsigned char 
  3068 ;; Auto vars:     Size  Location     Type
  3069 ;;  c               1    0[COMMON] unsigned char 
  3070 ;; Return value:  Size  Location     Type
  3071 ;;                  1    wreg      void 
  3072 ;; Registers used:
  3073 ;;		wreg
  3074 ;; Tracked objects:
  3075 ;;		On entry : 0/0
  3076 ;;		On exit  : 0/0
  3077 ;;		Unchanged: 0/0
  3078 ;; Data sizes:     COMMON   BANK0   BANK1   BANK3   BANK2
  3079 ;;      Params:         0       0       0       0       0
  3080 ;;      Locals:         0       0       0       0       0
  3081 ;;      Temps:          0       0       0       0       0
  3082 ;;      Totals:         0       0       0       0       0
  3083 ;;Total ram usage:        0 bytes
  3084 ;; Hardware stack levels used: 1
  3085 ;; This function calls:
  3086 ;;		Nothing
  3087 ;; This function is called by:
  3088 ;;		_fputc
  3089 ;; This function uses a non-reentrant model
  3090 ;;
  3091                           
  3092     0008                     _putch:	
  3093                           ;psect for function _putch
  3094                           
  3095     0008                     l816:	
  3096                           ;incstack = 0
  3097                           ; Regs used in _putch: [wreg]
  3098                           
  3099     0008  0008               	return
  3100     0009                     __end_of_putch:
  3101                           
  3102                           	psect	text12
  3103     1E0C                     __ptext12:	
  3104 ;; *************** function _memcpy *****************
  3105 ;; Defined at:
  3106 ;;		line 4 in file "C:\Program Files\Microchip\xc8\v3.00\pic\sources\c99\common\memcpy.c"
  3107 ;; Parameters:    Size  Location     Type
  3108 ;;  d1              1    0[COMMON] PTR void 
  3109 ;;		 -> dbuf(80), 
  3110 ;;  s1              1    1[COMMON] PTR const void 
  3111 ;;		 -> dbuf(80), 
  3112 ;;  n               2    2[COMMON] unsigned int 
  3113 ;; Auto vars:     Size  Location     Type
  3114 ;;  s               1    6[COMMON] PTR const unsigned char 
  3115 ;;		 -> dbuf(80), 
  3116 ;;  d               1    5[COMMON] PTR unsigned char 
  3117 ;;		 -> dbuf(80), 
  3118 ;;  tmp             1    4[COMMON] unsigned char 
  3119 ;; Return value:  Size  Location     Type
  3120 ;;                  1    0[COMMON] PTR void 
  3121 ;; Registers used:
  3122 ;;		wreg, fsr0l, fsr0h, status,2, status,0
  3123 ;; Tracked objects:
  3124 ;;		On entry : 0/0
  3125 ;;		On exit  : 0/0
  3126 ;;		Unchanged: 0/0
  3127 ;; Data sizes:     COMMON   BANK0   BANK1   BANK3   BANK2
  3128 ;;      Params:         4       0       0       0       0
  3129 ;;      Locals:         3       0       0       0       0
  3130 ;;      Temps:          0       0       0       0       0
  3131 ;;      Totals:         7       0       0       0       0
  3132 ;;Total ram usage:        7 bytes
  3133 ;; Hardware stack levels used: 1
  3134 ;; This function calls:
  3135 ;;		Nothing
  3136 ;; This function is called by:
  3137 ;;		_efgtoa
  3138 ;; This function uses a non-reentrant model
  3139 ;;
  3140                           
  3141     1E0C                     _memcpy:	
  3142                           ;psect for function _memcpy
  3143                           
  3144     1E0C                     l2708:	
  3145                           ;incstack = 0
  3146                           ; Regs used in _memcpy: [wreg-fsr0h+status,2+status,0]
  3147                           
  3148     1E0C  0871               	movf	memcpy@s1,w
  3149     1E0D  00F6               	movwf	memcpy@s
  3150     1E0E  0870               	movf	memcpy@d1,w
  3151     1E0F  00F5               	movwf	memcpy@d
  3152     1E10  2E1E               	goto	l790
  3153     1E11                     l2710:
  3154     1E11  0876               	movf	memcpy@s,w
  3155     1E12  0084               	movwf	4
  3156     1E13  1783               	bsf	3,7	;select IRP bank2
  3157     1E14  0800               	movf	0,w
  3158     1E15  00F4               	movwf	memcpy@tmp
  3159     1E16                     l2712:
  3160     1E16  3001               	movlw	1
  3161     1E17  07F6               	addwf	memcpy@s,f
  3162     1E18                     l2714:
  3163     1E18  0875               	movf	memcpy@d,w
  3164     1E19  0084               	movwf	4
  3165     1E1A  0874               	movf	memcpy@tmp,w
  3166     1E1B  0080               	movwf	0
  3167     1E1C  3001               	movlw	1
  3168     1E1D  07F5               	addwf	memcpy@d,f
  3169     1E1E                     l790:
  3170     1E1E  3001               	movlw	1
  3171     1E1F  02F2               	subwf	memcpy@n,f
  3172     1E20  3000               	movlw	0
  3173     1E21  1C03               	skipc
  3174     1E22  03F3               	decf	memcpy@n+1,f
  3175     1E23  02F3               	subwf	memcpy@n+1,f
  3176     1E24  0A72               	incf	memcpy@n,w
  3177     1E25  1D03               	skipz
  3178     1E26  2E2B               	goto	u4511
  3179     1E27  0A73               	incf	memcpy@n+1,w
  3180     1E28  1D03               	btfss	3,2
  3181     1E29  2E2B               	goto	u4511
  3182     1E2A  2E2C               	goto	u4510
  3183     1E2B                     u4511:
  3184     1E2B  2E11               	goto	l2710
  3185     1E2C                     u4510:
  3186     1E2C                     l793:
  3187     1E2C  0008               	return
  3188     1E2D                     __end_of_memcpy:
  3189                           
  3190                           	psect	text13
  3191     1DC0                     __ptext13:	
  3192 ;; *************** function _labs *****************
  3193 ;; Defined at:
  3194 ;;		line 1 in file "C:\Program Files\Microchip\xc8\v3.00\pic\sources\c99\common\labs.c"
  3195 ;; Parameters:    Size  Location     Type
  3196 ;;  a               4    0[COMMON] long 
  3197 ;; Auto vars:     Size  Location     Type
  3198 ;;		None
  3199 ;; Return value:  Size  Location     Type
  3200 ;;                  4    0[COMMON] long 
  3201 ;; Registers used:
  3202 ;;		wreg, status,2, status,0
  3203 ;; Tracked objects:
  3204 ;;		On entry : 0/0
  3205 ;;		On exit  : 0/0
  3206 ;;		Unchanged: 0/0
  3207 ;; Data sizes:     COMMON   BANK0   BANK1   BANK3   BANK2
  3208 ;;      Params:         4       0       0       0       0
  3209 ;;      Locals:         0       0       0       0       0
  3210 ;;      Temps:          0       0       0       0       0
  3211 ;;      Totals:         4       0       0       0       0
  3212 ;;Total ram usage:        4 bytes
  3213 ;; Hardware stack levels used: 1
  3214 ;; This function calls:
  3215 ;;		Nothing
  3216 ;; This function is called by:
  3217 ;;		_efgtoa
  3218 ;; This function uses a non-reentrant model
  3219 ;;
  3220                           
  3221     1DC0                     _labs:	
  3222                           ;psect for function _labs
  3223                           
  3224     1DC0                     l2670:	
  3225                           ;incstack = 0
  3226                           ; Regs used in _labs: [wreg+status,2+status,0]
  3227                           
  3228     1DC0  1BF3               	btfsc	labs@a+3,7
  3229     1DC1  2DC3               	goto	u4381
  3230     1DC2  2DC4               	goto	u4380
  3231     1DC3                     u4381:
  3232     1DC3  2DC5               	goto	l2674
  3233     1DC4                     u4380:
  3234     1DC4                     l2672:
  3235     1DC4  2DD4               	goto	l787
  3236     1DC5                     l2674:
  3237     1DC5  0970               	comf	labs@a,w
  3238     1DC6  00F0               	movwf	?_labs
  3239     1DC7  0971               	comf	labs@a+1,w
  3240     1DC8  00F1               	movwf	?_labs+1
  3241     1DC9  0972               	comf	labs@a+2,w
  3242     1DCA  00F2               	movwf	?_labs+2
  3243     1DCB  0973               	comf	labs@a+3,w
  3244     1DCC  00F3               	movwf	?_labs+3
  3245     1DCD  0AF0               	incf	?_labs,f
  3246     1DCE  1903               	skipnz
  3247     1DCF  0AF1               	incf	?_labs+1,f
  3248     1DD0  1903               	skipnz
  3249     1DD1  0AF2               	incf	?_labs+2,f
  3250     1DD2  1903               	skipnz
  3251     1DD3  0AF3               	incf	?_labs+3,f
  3252     1DD4                     l787:
  3253     1DD4  0008               	return
  3254     1DD5                     __end_of_labs:
  3255                           
  3256                           	psect	text14
  3257     16F1                     __ptext14:	
  3258 ;; *************** function _floorf *****************
  3259 ;; Defined at:
  3260 ;;		line 3 in file "C:\Program Files\Microchip\xc8\v3.00\pic\sources\c99\common\floorf.c"
  3261 ;; Parameters:    Size  Location     Type
  3262 ;;  x               4   26[BANK0 ] float 
  3263 ;; Auto vars:     Size  Location     Type
  3264 ;;  u               4   42[BANK0 ] struct .
  3265 ;;  m               4   36[BANK0 ] unsigned long 
  3266 ;;  e               2   40[BANK0 ] int 
  3267 ;; Return value:  Size  Location     Type
  3268 ;;                  4   26[BANK0 ] float 
  3269 ;; Registers used:
  3270 ;;		wreg, status,2, status,0, btemp+1
  3271 ;; Tracked objects:
  3272 ;;		On entry : 0/0
  3273 ;;		On exit  : 0/0
  3274 ;;		Unchanged: 0/0
  3275 ;; Data sizes:     COMMON   BANK0   BANK1   BANK3   BANK2
  3276 ;;      Params:         0       4       0       0       0
  3277 ;;      Locals:         0      10       0       0       0
  3278 ;;      Temps:          0       6       0       0       0
  3279 ;;      Totals:         0      20       0       0       0
  3280 ;;Total ram usage:       20 bytes
  3281 ;; Hardware stack levels used: 1
  3282 ;; This function calls:
  3283 ;;		Nothing
  3284 ;; This function is called by:
  3285 ;;		_efgtoa
  3286 ;; This function uses a non-reentrant model
  3287 ;;
  3288                           
  3289     16F1                     _floorf:	
  3290                           ;psect for function _floorf
  3291                           
  3292     16F1                     l2678:	
  3293                           ;incstack = 0
  3294                           ; Regs used in _floorf: [wreg+status,2+status,0+btemp+1]
  3295                           
  3296     16F1  1683               	bsf	3,5	;RP0=1, select bank1
  3297     16F2  1303               	bcf	3,6	;RP1=0, select bank1
  3298     16F3  085F               	movf	(floorf@F521+3)^(0+128),w
  3299     16F4  1283               	bcf	3,5	;RP0=0, select bank0
  3300     16F5  1303               	bcf	3,6	;RP1=0, select bank0
  3301     16F6  00CD               	movwf	floorf@u+3
  3302     16F7  1683               	bsf	3,5	;RP0=1, select bank1
  3303     16F8  1303               	bcf	3,6	;RP1=0, select bank1
  3304     16F9  085E               	movf	(floorf@F521+2)^(0+128),w
  3305     16FA  1283               	bcf	3,5	;RP0=0, select bank0
  3306     16FB  1303               	bcf	3,6	;RP1=0, select bank0
  3307     16FC  00CC               	movwf	floorf@u+2
  3308     16FD  1683               	bsf	3,5	;RP0=1, select bank1
  3309     16FE  1303               	bcf	3,6	;RP1=0, select bank1
  3310     16FF  085D               	movf	(floorf@F521+1)^(0+128),w
  3311     1700  1283               	bcf	3,5	;RP0=0, select bank0
  3312     1701  1303               	bcf	3,6	;RP1=0, select bank0
  3313     1702  00CB               	movwf	floorf@u+1
  3314     1703  1683               	bsf	3,5	;RP0=1, select bank1
  3315     1704  1303               	bcf	3,6	;RP1=0, select bank1
  3316     1705  085C               	movf	floorf@F521^(0+128),w
  3317     1706  1283               	bcf	3,5	;RP0=0, select bank0
  3318     1707  1303               	bcf	3,6	;RP1=0, select bank0
  3319     1708  00CA               	movwf	floorf@u
  3320     1709  083D               	movf	floorf@x+3,w
  3321     170A  00CD               	movwf	floorf@u+3
  3322     170B  083C               	movf	floorf@x+2,w
  3323     170C  00CC               	movwf	floorf@u+2
  3324     170D  083B               	movf	floorf@x+1,w
  3325     170E  00CB               	movwf	floorf@u+1
  3326     170F  083A               	movf	floorf@x,w
  3327     1710  00CA               	movwf	floorf@u
  3328     1711                     l2680:
  3329     1711  084A               	movf	floorf@u,w
  3330     1712  00BE               	movwf	??_floorf
  3331     1713  084B               	movf	floorf@u+1,w
  3332     1714  00BF               	movwf	??_floorf+1
  3333     1715  084C               	movf	floorf@u+2,w
  3334     1716  00C0               	movwf	??_floorf+2
  3335     1717  084D               	movf	floorf@u+3,w
  3336     1718  00C1               	movwf	??_floorf+3
  3337     1719  3017               	movlw	23
  3338     171A                     u4395:
  3339     171A  1003               	clrc
  3340     171B  0CC1               	rrf	??_floorf+3,f
  3341     171C  0CC0               	rrf	??_floorf+2,f
  3342     171D  0CBF               	rrf	??_floorf+1,f
  3343     171E  0CBE               	rrf	??_floorf,f
  3344     171F                     u4390:
  3345     171F  3EFF               	addlw	-1
  3346     1720  1D03               	skipz
  3347     1721  2F1A               	goto	u4395
  3348     1722  30FF               	movlw	255
  3349     1723  053E               	andwf	??_floorf,w
  3350     1724  00C2               	movwf	??_floorf+4
  3351     1725  3000               	movlw	0
  3352     1726  053F               	andwf	??_floorf+1,w
  3353     1727  00C3               	movwf	??_floorf+5
  3354     1728  0842               	movf	??_floorf+4,w
  3355     1729  3E81               	addlw	129
  3356     172A  00C8               	movwf	floorf@e
  3357     172B  0843               	movf	??_floorf+5,w
  3358     172C  1803               	skipnc
  3359     172D  3E01               	addlw	1
  3360     172E  3EFF               	addlw	255
  3361     172F  00C9               	movwf	floorf@e+1
  3362     1730                     l2682:
  3363     1730  0849               	movf	floorf@e+1,w
  3364     1731  3A80               	xorlw	128
  3365     1732  00FF               	movwf	btemp+1
  3366     1733  3080               	movlw	128
  3367     1734  027F               	subwf	btemp+1,w
  3368     1735  1D03               	skipz
  3369     1736  2F39               	goto	u4405
  3370     1737  3017               	movlw	23
  3371     1738  0248               	subwf	floorf@e,w
  3372     1739                     u4405:
  3373     1739  1C03               	skipc
  3374     173A  2F3C               	goto	u4401
  3375     173B  2F3D               	goto	u4400
  3376     173C                     u4401:
  3377     173C  2F3E               	goto	l772
  3378     173D                     u4400:
  3379     173D                     l2684:
  3380     173D  2FFF               	goto	l773
  3381     173E                     l772:
  3382     173E  1283               	bcf	3,5	;RP0=0, select bank0
  3383     173F  1303               	bcf	3,6	;RP1=0, select bank0
  3384     1740  1BC9               	btfsc	floorf@e+1,7
  3385     1741  2F43               	goto	u4411
  3386     1742  2F44               	goto	u4410
  3387     1743                     u4411:
  3388     1743  2FB4               	goto	l2698
  3389     1744                     u4410:
  3390     1744                     l2686:
  3391     1744  0A48               	incf	floorf@e,w
  3392     1745  00FF               	movwf	btemp+1
  3393     1746  30FF               	movlw	255
  3394     1747  00BE               	movwf	??_floorf
  3395     1748  30FF               	movlw	255
  3396     1749  00BF               	movwf	??_floorf+1
  3397     174A  307F               	movlw	127
  3398     174B  00C0               	movwf	??_floorf+2
  3399     174C  3000               	movlw	0
  3400     174D  00C1               	movwf	??_floorf+3
  3401     174E  2F54               	goto	u4420
  3402     174F                     u4425:
  3403     174F  0D41               	rlf	??_floorf+3,w
  3404     1750  0CC1               	rrf	??_floorf+3,f
  3405     1751  0CC0               	rrf	??_floorf+2,f
  3406     1752  0CBF               	rrf	??_floorf+1,f
  3407     1753  0CBE               	rrf	??_floorf,f
  3408     1754                     u4420:
  3409     1754  0BFF               	decfsz	btemp+1,f
  3410     1755  2F4F               	goto	u4425
  3411     1756  0841               	movf	??_floorf+3,w
  3412     1757  00C7               	movwf	floorf@m+3
  3413     1758  0840               	movf	??_floorf+2,w
  3414     1759  00C6               	movwf	floorf@m+2
  3415     175A  083F               	movf	??_floorf+1,w
  3416     175B  00C5               	movwf	floorf@m+1
  3417     175C  083E               	movf	??_floorf,w
  3418     175D  00C4               	movwf	floorf@m
  3419     175E                     l2688:
  3420     175E  0844               	movf	floorf@m,w
  3421     175F  054A               	andwf	floorf@u,w
  3422     1760  00BE               	movwf	??_floorf
  3423     1761  0845               	movf	floorf@m+1,w
  3424     1762  054B               	andwf	floorf@u+1,w
  3425     1763  00BF               	movwf	??_floorf+1
  3426     1764  0846               	movf	floorf@m+2,w
  3427     1765  054C               	andwf	floorf@u+2,w
  3428     1766  00C0               	movwf	??_floorf+2
  3429     1767  0847               	movf	floorf@m+3,w
  3430     1768  054D               	andwf	floorf@u+3,w
  3431     1769  00C1               	movwf	??_floorf+3
  3432     176A  0841               	movf	??_floorf+3,w
  3433     176B  0440               	iorwf	??_floorf+2,w
  3434     176C  043F               	iorwf	??_floorf+1,w
  3435     176D  043E               	iorwf	??_floorf,w
  3436     176E  1D03               	skipz
  3437     176F  2F71               	goto	u4431
  3438     1770  2F72               	goto	u4430
  3439     1771                     u4431:
  3440     1771  2F73               	goto	l2692
  3441     1772                     u4430:
  3442     1772  2F3D               	goto	l2684
  3443     1773                     l2692:
  3444     1773  084A               	movf	floorf@u,w
  3445     1774  00BE               	movwf	??_floorf
  3446     1775  084B               	movf	floorf@u+1,w
  3447     1776  00BF               	movwf	??_floorf+1
  3448     1777  084C               	movf	floorf@u+2,w
  3449     1778  00C0               	movwf	??_floorf+2
  3450     1779  084D               	movf	floorf@u+3,w
  3451     177A  00C1               	movwf	??_floorf+3
  3452     177B  301F               	movlw	31
  3453     177C                     u4445:
  3454     177C  1003               	clrc
  3455     177D  0CC1               	rrf	??_floorf+3,f
  3456     177E  0CC0               	rrf	??_floorf+2,f
  3457     177F  0CBF               	rrf	??_floorf+1,f
  3458     1780  0CBE               	rrf	??_floorf,f
  3459     1781                     u4440:
  3460     1781  3EFF               	addlw	-1
  3461     1782  1D03               	skipz
  3462     1783  2F7C               	goto	u4445
  3463     1784  0841               	movf	??_floorf+3,w
  3464     1785  0440               	iorwf	??_floorf+2,w
  3465     1786  043F               	iorwf	??_floorf+1,w
  3466     1787  043E               	iorwf	??_floorf,w
  3467     1788  1903               	skipnz
  3468     1789  2F8B               	goto	u4451
  3469     178A  2F8C               	goto	u4450
  3470     178B                     u4451:
  3471     178B  2FA3               	goto	l2696
  3472     178C                     u4450:
  3473     178C                     l2694:
  3474     178C  0844               	movf	floorf@m,w
  3475     178D  07CA               	addwf	floorf@u,f
  3476     178E  0845               	movf	floorf@m+1,w
  3477     178F  1103               	clrz
  3478     1790  1803               	skipnc
  3479     1791  3E01               	addlw	1
  3480     1792  1903               	skipnz
  3481     1793  2F95               	goto	u4461
  3482     1794  07CB               	addwf	floorf@u+1,f
  3483     1795                     u4461:
  3484     1795  0846               	movf	floorf@m+2,w
  3485     1796  1103               	clrz
  3486     1797  1803               	skipnc
  3487     1798  3E01               	addlw	1
  3488     1799  1903               	skipnz
  3489     179A  2F9C               	goto	u4462
  3490     179B  07CC               	addwf	floorf@u+2,f
  3491     179C                     u4462:
  3492     179C  0847               	movf	floorf@m+3,w
  3493     179D  1103               	clrz
  3494     179E  1803               	skipnc
  3495     179F  3E01               	addlw	1
  3496     17A0  1903               	skipnz
  3497     17A1  2FA3               	goto	u4463
  3498     17A2  07CD               	addwf	floorf@u+3,f
  3499     17A3                     u4463:
  3500     17A3                     l2696:
  3501     17A3  0944               	comf	floorf@m,w
  3502     17A4  00BE               	movwf	??_floorf
  3503     17A5  0945               	comf	floorf@m+1,w
  3504     17A6  00BF               	movwf	??_floorf+1
  3505     17A7  0946               	comf	floorf@m+2,w
  3506     17A8  00C0               	movwf	??_floorf+2
  3507     17A9  0947               	comf	floorf@m+3,w
  3508     17AA  00C1               	movwf	??_floorf+3
  3509     17AB  083E               	movf	??_floorf,w
  3510     17AC  05CA               	andwf	floorf@u,f
  3511     17AD  083F               	movf	??_floorf+1,w
  3512     17AE  05CB               	andwf	floorf@u+1,f
  3513     17AF  0840               	movf	??_floorf+2,w
  3514     17B0  05CC               	andwf	floorf@u+2,f
  3515     17B1  0841               	movf	??_floorf+3,w
  3516     17B2  05CD               	andwf	floorf@u+3,f
  3517     17B3  2FF7               	goto	l777
  3518     17B4                     l2698:
  3519     17B4  084A               	movf	floorf@u,w
  3520     17B5  00BE               	movwf	??_floorf
  3521     17B6  084B               	movf	floorf@u+1,w
  3522     17B7  00BF               	movwf	??_floorf+1
  3523     17B8  084C               	movf	floorf@u+2,w
  3524     17B9  00C0               	movwf	??_floorf+2
  3525     17BA  084D               	movf	floorf@u+3,w
  3526     17BB  00C1               	movwf	??_floorf+3
  3527     17BC  301F               	movlw	31
  3528     17BD                     u4475:
  3529     17BD  1003               	clrc
  3530     17BE  0CC1               	rrf	??_floorf+3,f
  3531     17BF  0CC0               	rrf	??_floorf+2,f
  3532     17C0  0CBF               	rrf	??_floorf+1,f
  3533     17C1  0CBE               	rrf	??_floorf,f
  3534     17C2                     u4470:
  3535     17C2  3EFF               	addlw	-1
  3536     17C3  1D03               	skipz
  3537     17C4  2FBD               	goto	u4475
  3538     17C5  0841               	movf	??_floorf+3,w
  3539     17C6  0440               	iorwf	??_floorf+2,w
  3540     17C7  043F               	iorwf	??_floorf+1,w
  3541     17C8  043E               	iorwf	??_floorf,w
  3542     17C9  1D03               	skipz
  3543     17CA  2FCC               	goto	u4481
  3544     17CB  2FCD               	goto	u4480
  3545     17CC                     u4481:
  3546     17CC  2FD6               	goto	l2702
  3547     17CD                     u4480:
  3548     17CD                     l2700:
  3549     17CD  3000               	movlw	0
  3550     17CE  00CD               	movwf	floorf@u+3
  3551     17CF  3000               	movlw	0
  3552     17D0  00CC               	movwf	floorf@u+2
  3553     17D1  3000               	movlw	0
  3554     17D2  00CB               	movwf	floorf@u+1
  3555     17D3  3000               	movlw	0
  3556     17D4  00CA               	movwf	floorf@u
  3557     17D5  2FF7               	goto	l777
  3558     17D6                     l2702:
  3559     17D6  084A               	movf	floorf@u,w
  3560     17D7  00BE               	movwf	??_floorf
  3561     17D8  084B               	movf	floorf@u+1,w
  3562     17D9  00BF               	movwf	??_floorf+1
  3563     17DA  084C               	movf	floorf@u+2,w
  3564     17DB  00C0               	movwf	??_floorf+2
  3565     17DC  084D               	movf	floorf@u+3,w
  3566     17DD  00C1               	movwf	??_floorf+3
  3567     17DE  3001               	movlw	1
  3568     17DF                     u4495:
  3569     17DF  1003               	clrc
  3570     17E0  0DBE               	rlf	??_floorf,f
  3571     17E1  0DBF               	rlf	??_floorf+1,f
  3572     17E2  0DC0               	rlf	??_floorf+2,f
  3573     17E3  0DC1               	rlf	??_floorf+3,f
  3574     17E4                     u4490:
  3575     17E4  3EFF               	addlw	-1
  3576     17E5  1D03               	skipz
  3577     17E6  2FDF               	goto	u4495
  3578     17E7  0841               	movf	??_floorf+3,w
  3579     17E8  0440               	iorwf	??_floorf+2,w
  3580     17E9  043F               	iorwf	??_floorf+1,w
  3581     17EA  043E               	iorwf	??_floorf,w
  3582     17EB  1903               	skipnz
  3583     17EC  2FEE               	goto	u4501
  3584     17ED  2FEF               	goto	u4500
  3585     17EE                     u4501:
  3586     17EE  2FF7               	goto	l777
  3587     17EF                     u4500:
  3588     17EF                     l2704:
  3589     17EF  30BF               	movlw	191
  3590     17F0  00CD               	movwf	floorf@u+3
  3591     17F1  3080               	movlw	128
  3592     17F2  00CC               	movwf	floorf@u+2
  3593     17F3  3000               	movlw	0
  3594     17F4  00CB               	movwf	floorf@u+1
  3595     17F5  3000               	movlw	0
  3596     17F6  00CA               	movwf	floorf@u
  3597     17F7                     l777:
  3598     17F7  084D               	movf	floorf@u+3,w
  3599     17F8  00BD               	movwf	?_floorf+3
  3600     17F9  084C               	movf	floorf@u+2,w
  3601     17FA  00BC               	movwf	?_floorf+2
  3602     17FB  084B               	movf	floorf@u+1,w
  3603     17FC  00BB               	movwf	?_floorf+1
  3604     17FD  084A               	movf	floorf@u,w
  3605     17FE  00BA               	movwf	?_floorf
  3606     17FF                     l773:
  3607     17FF  0008               	return
  3608     1800                     __end_of_floorf:
  3609                           
  3610                           	psect	text15
  3611     080B                     __ptext15:	
  3612 ;; *************** function ___fpclassifyf *****************
  3613 ;; Defined at:
  3614 ;;		line 4 in file "C:\Program Files\Microchip\xc8\v3.00\pic\sources\c99\common\__fpclassifyf.c"
  3615 ;; Parameters:    Size  Location     Type
  3616 ;;  x               4    0[COMMON] float 
  3617 ;; Auto vars:     Size  Location     Type
  3618 ;;  u               4    2[BANK0 ] struct .
  3619 ;;  e               2    0[BANK0 ] int 
  3620 ;; Return value:  Size  Location     Type
  3621 ;;                  2    0[COMMON] int 
  3622 ;; Registers used:
  3623 ;;		wreg, status,2, status,0
  3624 ;; Tracked objects:
  3625 ;;		On entry : 0/0
  3626 ;;		On exit  : 0/0
  3627 ;;		Unchanged: 0/0
  3628 ;; Data sizes:     COMMON   BANK0   BANK1   BANK3   BANK2
  3629 ;;      Params:         4       0       0       0       0
  3630 ;;      Locals:         0       6       0       0       0
  3631 ;;      Temps:          6       0       0       0       0
  3632 ;;      Totals:        10       6       0       0       0
  3633 ;;Total ram usage:       16 bytes
  3634 ;; Hardware stack levels used: 1
  3635 ;; This function calls:
  3636 ;;		Nothing
  3637 ;; This function is called by:
  3638 ;;		_efgtoa
  3639 ;; This function uses a non-reentrant model
  3640 ;;
  3641                           
  3642     080B                     ___fpclassifyf:	
  3643                           ;psect for function ___fpclassifyf
  3644                           
  3645     080B                     l2642:	
  3646                           ;incstack = 0
  3647                           ; Regs used in ___fpclassifyf: [wreg+status,2+status,0]
  3648                           
  3649     080B  1683               	bsf	3,5	;RP0=1, select bank1
  3650     080C  1303               	bcf	3,6	;RP1=0, select bank1
  3651     080D  0863               	movf	(___fpclassifyf@F465+3)^(0+128),w
  3652     080E  1283               	bcf	3,5	;RP0=0, select bank0
  3653     080F  1303               	bcf	3,6	;RP1=0, select bank0
  3654     0810  00A5               	movwf	___fpclassifyf@u+3
  3655     0811  1683               	bsf	3,5	;RP0=1, select bank1
  3656     0812  1303               	bcf	3,6	;RP1=0, select bank1
  3657     0813  0862               	movf	(___fpclassifyf@F465+2)^(0+128),w
  3658     0814  1283               	bcf	3,5	;RP0=0, select bank0
  3659     0815  1303               	bcf	3,6	;RP1=0, select bank0
  3660     0816  00A4               	movwf	___fpclassifyf@u+2
  3661     0817  1683               	bsf	3,5	;RP0=1, select bank1
  3662     0818  1303               	bcf	3,6	;RP1=0, select bank1
  3663     0819  0861               	movf	(___fpclassifyf@F465+1)^(0+128),w
  3664     081A  1283               	bcf	3,5	;RP0=0, select bank0
  3665     081B  1303               	bcf	3,6	;RP1=0, select bank0
  3666     081C  00A3               	movwf	___fpclassifyf@u+1
  3667     081D  1683               	bsf	3,5	;RP0=1, select bank1
  3668     081E  1303               	bcf	3,6	;RP1=0, select bank1
  3669     081F  0860               	movf	___fpclassifyf@F465^(0+128),w
  3670     0820  1283               	bcf	3,5	;RP0=0, select bank0
  3671     0821  1303               	bcf	3,6	;RP1=0, select bank0
  3672     0822  00A2               	movwf	___fpclassifyf@u
  3673     0823  0873               	movf	___fpclassifyf@x+3,w
  3674     0824  00A5               	movwf	___fpclassifyf@u+3
  3675     0825  0872               	movf	___fpclassifyf@x+2,w
  3676     0826  00A4               	movwf	___fpclassifyf@u+2
  3677     0827  0871               	movf	___fpclassifyf@x+1,w
  3678     0828  00A3               	movwf	___fpclassifyf@u+1
  3679     0829  0870               	movf	___fpclassifyf@x,w
  3680     082A  00A2               	movwf	___fpclassifyf@u
  3681     082B                     l2644:
  3682     082B  0822               	movf	___fpclassifyf@u,w
  3683     082C  00F4               	movwf	??___fpclassifyf
  3684     082D  0823               	movf	___fpclassifyf@u+1,w
  3685     082E  00F5               	movwf	??___fpclassifyf+1
  3686     082F  0824               	movf	___fpclassifyf@u+2,w
  3687     0830  00F6               	movwf	??___fpclassifyf+2
  3688     0831  0825               	movf	___fpclassifyf@u+3,w
  3689     0832  00F7               	movwf	??___fpclassifyf+3
  3690     0833  3017               	movlw	23
  3691     0834                     u4295:
  3692     0834  1003               	clrc
  3693     0835  0CF7               	rrf	??___fpclassifyf+3,f
  3694     0836  0CF6               	rrf	??___fpclassifyf+2,f
  3695     0837  0CF5               	rrf	??___fpclassifyf+1,f
  3696     0838  0CF4               	rrf	??___fpclassifyf,f
  3697     0839                     u4290:
  3698     0839  3EFF               	addlw	-1
  3699     083A  1D03               	skipz
  3700     083B  2834               	goto	u4295
  3701     083C  30FF               	movlw	255
  3702     083D  0574               	andwf	??___fpclassifyf,w
  3703     083E  00A0               	movwf	___fpclassifyf@e
  3704     083F  3000               	movlw	0
  3705     0840  0575               	andwf	??___fpclassifyf+1,w
  3706     0841  00A1               	movwf	___fpclassifyf@e+1
  3707     0842                     l2646:
  3708     0842  0820               	movf	___fpclassifyf@e,w
  3709     0843  0421               	iorwf	___fpclassifyf@e+1,w
  3710     0844  1D03               	btfss	3,2
  3711     0845  2847               	goto	u4301
  3712     0846  2848               	goto	u4300
  3713     0847                     u4301:
  3714     0847  286B               	goto	l2656
  3715     0848                     u4300:
  3716     0848                     l2648:
  3717     0848  0822               	movf	___fpclassifyf@u,w
  3718     0849  00F4               	movwf	??___fpclassifyf
  3719     084A  0823               	movf	___fpclassifyf@u+1,w
  3720     084B  00F5               	movwf	??___fpclassifyf+1
  3721     084C  0824               	movf	___fpclassifyf@u+2,w
  3722     084D  00F6               	movwf	??___fpclassifyf+2
  3723     084E  0825               	movf	___fpclassifyf@u+3,w
  3724     084F  00F7               	movwf	??___fpclassifyf+3
  3725     0850  3001               	movlw	1
  3726     0851                     u4315:
  3727     0851  1003               	clrc
  3728     0852  0DF4               	rlf	??___fpclassifyf,f
  3729     0853  0DF5               	rlf	??___fpclassifyf+1,f
  3730     0854  0DF6               	rlf	??___fpclassifyf+2,f
  3731     0855  0DF7               	rlf	??___fpclassifyf+3,f
  3732     0856                     u4310:
  3733     0856  3EFF               	addlw	-1
  3734     0857  1D03               	skipz
  3735     0858  2851               	goto	u4315
  3736     0859  0877               	movf	??___fpclassifyf+3,w
  3737     085A  0476               	iorwf	??___fpclassifyf+2,w
  3738     085B  0475               	iorwf	??___fpclassifyf+1,w
  3739     085C  0474               	iorwf	??___fpclassifyf,w
  3740     085D  1D03               	skipz
  3741     085E  2860               	goto	u4321
  3742     085F  2861               	goto	u4320
  3743     0860                     u4321:
  3744     0860  2866               	goto	l2652
  3745     0861                     u4320:
  3746     0861                     l2650:
  3747     0861  3002               	movlw	2
  3748     0862  00F0               	movwf	?___fpclassifyf
  3749     0863  3000               	movlw	0
  3750     0864  00F1               	movwf	?___fpclassifyf+1
  3751     0865  2897               	goto	l766
  3752     0866                     l2652:
  3753     0866  3003               	movlw	3
  3754     0867  00F0               	movwf	?___fpclassifyf
  3755     0868  3000               	movlw	0
  3756     0869  00F1               	movwf	?___fpclassifyf+1
  3757     086A  2897               	goto	l766
  3758     086B                     l2656:
  3759     086B  0A20               	incf	___fpclassifyf@e,w
  3760     086C  0421               	iorwf	___fpclassifyf@e+1,w
  3761     086D  1D03               	btfss	3,2
  3762     086E  2870               	goto	u4331
  3763     086F  2871               	goto	u4330
  3764     0870                     u4331:
  3765     0870  2893               	goto	l2662
  3766     0871                     u4330:
  3767     0871                     l2658:
  3768     0871  0822               	movf	___fpclassifyf@u,w
  3769     0872  00F4               	movwf	??___fpclassifyf
  3770     0873  0823               	movf	___fpclassifyf@u+1,w
  3771     0874  00F5               	movwf	??___fpclassifyf+1
  3772     0875  0824               	movf	___fpclassifyf@u+2,w
  3773     0876  00F6               	movwf	??___fpclassifyf+2
  3774     0877  0825               	movf	___fpclassifyf@u+3,w
  3775     0878  00F7               	movwf	??___fpclassifyf+3
  3776     0879  3009               	movlw	9
  3777     087A                     u4345:
  3778     087A  1003               	clrc
  3779     087B  0DF4               	rlf	??___fpclassifyf,f
  3780     087C  0DF5               	rlf	??___fpclassifyf+1,f
  3781     087D  0DF6               	rlf	??___fpclassifyf+2,f
  3782     087E  0DF7               	rlf	??___fpclassifyf+3,f
  3783     087F                     u4340:
  3784     087F  3EFF               	addlw	-1
  3785     0880  1D03               	skipz
  3786     0881  287A               	goto	u4345
  3787     0882  0877               	movf	??___fpclassifyf+3,w
  3788     0883  0476               	iorwf	??___fpclassifyf+2,w
  3789     0884  0475               	iorwf	??___fpclassifyf+1,w
  3790     0885  0474               	iorwf	??___fpclassifyf,w
  3791     0886  1903               	skipnz
  3792     0887  2889               	goto	u4351
  3793     0888  288B               	goto	u4350
  3794     0889                     u4351:
  3795     0889  3001               	movlw	1
  3796     088A  288C               	goto	u4360
  3797     088B                     u4350:
  3798     088B  3000               	movlw	0
  3799     088C                     u4360:
  3800     088C  00F8               	movwf	??___fpclassifyf+4
  3801     088D  01F9               	clrf	??___fpclassifyf+5
  3802     088E  0878               	movf	??___fpclassifyf+4,w
  3803     088F  00F0               	movwf	?___fpclassifyf
  3804     0890  0879               	movf	??___fpclassifyf+5,w
  3805     0891  00F1               	movwf	?___fpclassifyf+1
  3806     0892  2897               	goto	l766
  3807     0893                     l2662:
  3808     0893  3004               	movlw	4
  3809     0894  00F0               	movwf	?___fpclassifyf
  3810     0895  3000               	movlw	0
  3811     0896  00F1               	movwf	?___fpclassifyf+1
  3812     0897                     l766:
  3813     0897  0008               	return
  3814     0898                     __end_of___fpclassifyf:
  3815                           
  3816                           	psect	text16
  3817     105B                     __ptext16:	
  3818 ;; *************** function ___fltol *****************
  3819 ;; Defined at:
  3820 ;;		line 43 in file "C:\Program Files\Microchip\xc8\v3.00\pic\sources\c99\common\fltol.c"
  3821 ;; Parameters:    Size  Location     Type
  3822 ;;  f1              4    0[COMMON] int 
  3823 ;; Auto vars:     Size  Location     Type
  3824 ;;  exp1            1    9[COMMON] unsigned char 
  3825 ;;  sign1           1    8[COMMON] unsigned char 
  3826 ;; Return value:  Size  Location     Type
  3827 ;;                  4    0[COMMON] long 
  3828 ;; Registers used:
  3829 ;;		wreg, status,2, status,0
  3830 ;; Tracked objects:
  3831 ;;		On entry : 0/0
  3832 ;;		On exit  : 0/0
  3833 ;;		Unchanged: 0/0
  3834 ;; Data sizes:     COMMON   BANK0   BANK1   BANK3   BANK2
  3835 ;;      Params:         4       0       0       0       0
  3836 ;;      Locals:         2       0       0       0       0
  3837 ;;      Temps:          4       0       0       0       0
  3838 ;;      Totals:        10       0       0       0       0
  3839 ;;Total ram usage:       10 bytes
  3840 ;; Hardware stack levels used: 1
  3841 ;; This function calls:
  3842 ;;		Nothing
  3843 ;; This function is called by:
  3844 ;;		_efgtoa
  3845 ;; This function uses a non-reentrant model
  3846 ;;
  3847                           
  3848     105B                     ___fltol:	
  3849                           ;psect for function ___fltol
  3850                           
  3851     105B                     l2302:	
  3852                           ;incstack = 0
  3853                           ; Regs used in ___fltol: [wreg+status,2+status,0]
  3854                           
  3855     105B  1003               	clrc
  3856     105C  0D72               	rlf	___fltol@f1+2,w
  3857     105D  0D73               	rlf	___fltol@f1+3,w
  3858     105E  00F9               	movwf	___fltol@exp1
  3859     105F  0879               	movf	___fltol@exp1,w
  3860     1060  1D03               	btfss	3,2
  3861     1061  2863               	goto	u3511
  3862     1062  2864               	goto	u3510
  3863     1063                     u3511:
  3864     1063  286D               	goto	l2308
  3865     1064                     u3510:
  3866     1064                     l2304:
  3867     1064  3000               	movlw	0
  3868     1065  00F3               	movwf	?___fltol+3
  3869     1066  3000               	movlw	0
  3870     1067  00F2               	movwf	?___fltol+2
  3871     1068  3000               	movlw	0
  3872     1069  00F1               	movwf	?___fltol+1
  3873     106A  3000               	movlw	0
  3874     106B  00F0               	movwf	?___fltol
  3875     106C  28CE               	goto	l369
  3876     106D                     l2308:
  3877     106D  0870               	movf	___fltol@f1,w
  3878     106E  00F4               	movwf	??___fltol
  3879     106F  0871               	movf	___fltol@f1+1,w
  3880     1070  00F5               	movwf	??___fltol+1
  3881     1071  0872               	movf	___fltol@f1+2,w
  3882     1072  00F6               	movwf	??___fltol+2
  3883     1073  0873               	movf	___fltol@f1+3,w
  3884     1074  00F7               	movwf	??___fltol+3
  3885     1075  301F               	movlw	31
  3886     1076                     u3525:
  3887     1076  1003               	clrc
  3888     1077  0CF7               	rrf	??___fltol+3,f
  3889     1078  0CF6               	rrf	??___fltol+2,f
  3890     1079  0CF5               	rrf	??___fltol+1,f
  3891     107A  0CF4               	rrf	??___fltol,f
  3892     107B                     u3520:
  3893     107B  3EFF               	addlw	-1
  3894     107C  1D03               	skipz
  3895     107D  2876               	goto	u3525
  3896     107E  0874               	movf	??___fltol,w
  3897     107F  00F8               	movwf	___fltol@sign1
  3898     1080                     l2310:
  3899     1080  17F2               	bsf	___fltol@f1+2,7
  3900     1081                     l2312:
  3901     1081  30FF               	movlw	255
  3902     1082  05F0               	andwf	___fltol@f1,f
  3903     1083  30FF               	movlw	255
  3904     1084  05F1               	andwf	___fltol@f1+1,f
  3905     1085  30FF               	movlw	255
  3906     1086  05F2               	andwf	___fltol@f1+2,f
  3907     1087  3000               	movlw	0
  3908     1088  05F3               	andwf	___fltol@f1+3,f
  3909     1089                     l2314:
  3910     1089  3096               	movlw	150
  3911     108A  02F9               	subwf	___fltol@exp1,f
  3912     108B                     l2316:
  3913     108B  1FF9               	btfss	___fltol@exp1,7
  3914     108C  288E               	goto	u3531
  3915     108D  288F               	goto	u3530
  3916     108E                     u3531:
  3917     108E  28A7               	goto	l2326
  3918     108F                     u3530:
  3919     108F                     l2318:
  3920     108F  0879               	movf	___fltol@exp1,w
  3921     1090  3A80               	xorlw	128
  3922     1091  3E97               	addlw	151
  3923     1092  1803               	skipnc
  3924     1093  2895               	goto	u3541
  3925     1094  2896               	goto	u3540
  3926     1095                     u3541:
  3927     1095  2897               	goto	l2324
  3928     1096                     u3540:
  3929     1096  2864               	goto	l2304
  3930     1097                     l2324:
  3931     1097  3001               	movlw	1
  3932     1098                     u3555:
  3933     1098  1003               	clrc
  3934     1099  0CF3               	rrf	___fltol@f1+3,f
  3935     109A  0CF2               	rrf	___fltol@f1+2,f
  3936     109B  0CF1               	rrf	___fltol@f1+1,f
  3937     109C  0CF0               	rrf	___fltol@f1,f
  3938     109D  3EFF               	addlw	-1
  3939     109E  1D03               	skipz
  3940     109F  2898               	goto	u3555
  3941     10A0  3001               	movlw	1
  3942     10A1  07F9               	addwf	___fltol@exp1,f
  3943     10A2  1D03               	btfss	3,2
  3944     10A3  28A5               	goto	u3561
  3945     10A4  28A6               	goto	u3560
  3946     10A5                     u3561:
  3947     10A5  2897               	goto	l2324
  3948     10A6                     u3560:
  3949     10A6  28BE               	goto	l2334
  3950     10A7                     l2326:
  3951     10A7  3020               	movlw	32
  3952     10A8  0279               	subwf	___fltol@exp1,w
  3953     10A9  1C03               	skipc
  3954     10AA  28AC               	goto	u3571
  3955     10AB  28AD               	goto	u3570
  3956     10AC                     u3571:
  3957     10AC  28B9               	goto	l376
  3958     10AD                     u3570:
  3959     10AD  2864               	goto	l2304
  3960     10AE                     l2332:
  3961     10AE  3001               	movlw	1
  3962     10AF  00F4               	movwf	??___fltol
  3963     10B0                     u3585:
  3964     10B0  1003               	clrc
  3965     10B1  0DF0               	rlf	___fltol@f1,f
  3966     10B2  0DF1               	rlf	___fltol@f1+1,f
  3967     10B3  0DF2               	rlf	___fltol@f1+2,f
  3968     10B4  0DF3               	rlf	___fltol@f1+3,f
  3969     10B5  0BF4               	decfsz	??___fltol,f
  3970     10B6  28B0               	goto	u3585
  3971     10B7  3001               	movlw	1
  3972     10B8  02F9               	subwf	___fltol@exp1,f
  3973     10B9                     l376:
  3974     10B9  0879               	movf	___fltol@exp1,w
  3975     10BA  1D03               	btfss	3,2
  3976     10BB  28BD               	goto	u3591
  3977     10BC  28BE               	goto	u3590
  3978     10BD                     u3591:
  3979     10BD  28AE               	goto	l2332
  3980     10BE                     u3590:
  3981     10BE                     l2334:
  3982     10BE  0878               	movf	___fltol@sign1,w
  3983     10BF  1903               	btfsc	3,2
  3984     10C0  28C2               	goto	u3601
  3985     10C1  28C3               	goto	u3600
  3986     10C2                     u3601:
  3987     10C2  28CE               	goto	l379
  3988     10C3                     u3600:
  3989     10C3                     l2336:
  3990     10C3  09F0               	comf	___fltol@f1,f
  3991     10C4  09F1               	comf	___fltol@f1+1,f
  3992     10C5  09F2               	comf	___fltol@f1+2,f
  3993     10C6  09F3               	comf	___fltol@f1+3,f
  3994     10C7  0AF0               	incf	___fltol@f1,f
  3995     10C8  1903               	skipnz
  3996     10C9  0AF1               	incf	___fltol@f1+1,f
  3997     10CA  1903               	skipnz
  3998     10CB  0AF2               	incf	___fltol@f1+2,f
  3999     10CC  1903               	skipnz
  4000     10CD  0AF3               	incf	___fltol@f1+3,f
  4001     10CE                     l379:
  4002     10CE                     l369:
  4003     10CE  0008               	return
  4004     10CF                     __end_of___fltol:
  4005                           
  4006                           	psect	text17
  4007     1E50                     __ptext17:	
  4008 ;; *************** function ___flsub *****************
  4009 ;; Defined at:
  4010 ;;		line 242 in file "C:\Program Files\Microchip\xc8\v3.00\pic\sources\c99\common\sprcadd.c"
  4011 ;; Parameters:    Size  Location     Type
  4012 ;;  a               4   21[BANK0 ] long 
  4013 ;;  b               4   25[BANK0 ] long 
  4014 ;; Auto vars:     Size  Location     Type
  4015 ;;		None
  4016 ;; Return value:  Size  Location     Type
  4017 ;;                  4   21[BANK0 ] long 
  4018 ;; Registers used:
  4019 ;;		wreg, status,2, status,0, btemp+1, pclath, cstack
  4020 ;; Tracked objects:
  4021 ;;		On entry : 0/0
  4022 ;;		On exit  : 0/0
  4023 ;;		Unchanged: 0/0
  4024 ;; Data sizes:     COMMON   BANK0   BANK1   BANK3   BANK2
  4025 ;;      Params:         0       8       0       0       0
  4026 ;;      Locals:         0       0       0       0       0
  4027 ;;      Temps:          0       0       0       0       0
  4028 ;;      Totals:         0       8       0       0       0
  4029 ;;Total ram usage:        8 bytes
  4030 ;; Hardware stack levels used: 1
  4031 ;; Hardware stack levels required when called: 1
  4032 ;; This function calls:
  4033 ;;		___fladd
  4034 ;; This function is called by:
  4035 ;;		_efgtoa
  4036 ;; This function uses a non-reentrant model
  4037 ;;
  4038                           
  4039     1E50                     ___flsub:	
  4040                           ;psect for function ___flsub
  4041                           
  4042     1E50                     l2338:	
  4043                           ;incstack = 0
  4044                           ; Regs used in ___flsub: [wreg+status,2+status,0+btemp+1+pclath+cstack]
  4045                           
  4046     1E50  3080               	movlw	128
  4047     1E51  1283               	bcf	3,5	;RP0=0, select bank0
  4048     1E52  1303               	bcf	3,6	;RP1=0, select bank0
  4049     1E53  06B8               	xorwf	___flsub@a+3,f
  4050     1E54                     l2340:
  4051     1E54  083C               	movf	___flsub@b+3,w
  4052     1E55  00F3               	movwf	___fladd@b+3
  4053     1E56  083B               	movf	___flsub@b+2,w
  4054     1E57  00F2               	movwf	___fladd@b+2
  4055     1E58  083A               	movf	___flsub@b+1,w
  4056     1E59  00F1               	movwf	___fladd@b+1
  4057     1E5A  0839               	movf	___flsub@b,w
  4058     1E5B  00F0               	movwf	___fladd@b
  4059     1E5C  0838               	movf	___flsub@a+3,w
  4060     1E5D  00F7               	movwf	___fladd@a+3
  4061     1E5E  0837               	movf	___flsub@a+2,w
  4062     1E5F  00F6               	movwf	___fladd@a+2
  4063     1E60  0836               	movf	___flsub@a+1,w
  4064     1E61  00F5               	movwf	___fladd@a+1
  4065     1E62  0835               	movf	___flsub@a,w
  4066     1E63  00F4               	movwf	___fladd@a
  4067     1E64  120A  158A  2262  160A  158A  	fcall	___fladd
  4068     1E69  0873               	movf	?___fladd+3,w
  4069     1E6A  1283               	bcf	3,5	;RP0=0, select bank0
  4070     1E6B  1303               	bcf	3,6	;RP1=0, select bank0
  4071     1E6C  00B8               	movwf	?___flsub+3
  4072     1E6D  0872               	movf	?___fladd+2,w
  4073     1E6E  00B7               	movwf	?___flsub+2
  4074     1E6F  0871               	movf	?___fladd+1,w
  4075     1E70  00B6               	movwf	?___flsub+1
  4076     1E71  0870               	movf	?___fladd,w
  4077     1E72  00B5               	movwf	?___flsub
  4078     1E73                     l522:
  4079     1E73  0008               	return
  4080     1E74                     __end_of___flsub:
  4081                           
  4082                           	psect	text18
  4083     0A62                     __ptext18:	
  4084 ;; *************** function ___fladd *****************
  4085 ;; Defined at:
  4086 ;;		line 10 in file "C:\Program Files\Microchip\xc8\v3.00\pic\sources\c99\common\sprcadd.c"
  4087 ;; Parameters:    Size  Location     Type
  4088 ;;  b               4    0[COMMON] long 
  4089 ;;  a               4    4[COMMON] long 
  4090 ;; Auto vars:     Size  Location     Type
  4091 ;;  grs             1   11[COMMON] unsigned char 
  4092 ;;  bexp            1   10[COMMON] unsigned char 
  4093 ;;  aexp            1    9[COMMON] unsigned char 
  4094 ;;  signs           1    8[COMMON] unsigned char 
  4095 ;; Return value:  Size  Location     Type
  4096 ;;                  4    0[COMMON] unsigned char 
  4097 ;; Registers used:
  4098 ;;		wreg, status,2, status,0, btemp+1
  4099 ;; Tracked objects:
  4100 ;;		On entry : 0/0
  4101 ;;		On exit  : 0/0
  4102 ;;		Unchanged: 0/0
  4103 ;; Data sizes:     COMMON   BANK0   BANK1   BANK3   BANK2
  4104 ;;      Params:         8       0       0       0       0
  4105 ;;      Locals:         4       0       0       0       0
  4106 ;;      Temps:          0       8       0       0       0
  4107 ;;      Totals:        12       8       0       0       0
  4108 ;;Total ram usage:       20 bytes
  4109 ;; Hardware stack levels used: 1
  4110 ;; This function calls:
  4111 ;;		Nothing
  4112 ;; This function is called by:
  4113 ;;		___flsub
  4114 ;;		_efgtoa
  4115 ;; This function uses a non-reentrant model
  4116 ;;
  4117                           
  4118     0A62                     ___fladd:	
  4119                           ;psect for function ___fladd
  4120                           
  4121     0A62                     l2028:	
  4122                           ;incstack = 0
  4123                           ; Regs used in ___fladd: [wreg+status,2+status,0+btemp+1]
  4124                           
  4125     0A62  0873               	movf	___fladd@b+3,w
  4126     0A63  00F8               	movwf	___fladd@signs
  4127     0A64                     l2030:
  4128     0A64  3080               	movlw	128
  4129     0A65  05F8               	andwf	___fladd@signs,f
  4130     0A66                     l2032:
  4131     0A66  0873               	movf	___fladd@b+3,w
  4132     0A67  1283               	bcf	3,5	;RP0=0, select bank0
  4133     0A68  1303               	bcf	3,6	;RP1=0, select bank0
  4134     0A69  00A0               	movwf	??___fladd
  4135     0A6A  0720               	addwf	??___fladd,w
  4136     0A6B  00FA               	movwf	___fladd@bexp
  4137     0A6C                     l2034:
  4138     0A6C  1FF2               	btfss	___fladd@b+2,7
  4139     0A6D  2A6F               	goto	u2861
  4140     0A6E  2A70               	goto	u2860
  4141     0A6F                     u2861:
  4142     0A6F  2A71               	goto	l2038
  4143     0A70                     u2860:
  4144     0A70                     l2036:
  4145     0A70  147A               	bsf	___fladd@bexp,0
  4146     0A71                     l2038:
  4147     0A71  087A               	movf	___fladd@bexp,w
  4148     0A72  1903               	btfsc	3,2
  4149     0A73  2A75               	goto	u2871
  4150     0A74  2A76               	goto	u2870
  4151     0A75                     u2871:
  4152     0A75  2A86               	goto	l2048
  4153     0A76                     u2870:
  4154     0A76                     l2040:
  4155     0A76  0A7A               	incf	___fladd@bexp,w
  4156     0A77  1D03               	btfss	3,2
  4157     0A78  2A7A               	goto	u2881
  4158     0A79  2A7B               	goto	u2880
  4159     0A7A                     u2881:
  4160     0A7A  2A83               	goto	l2044
  4161     0A7B                     u2880:
  4162     0A7B                     l2042:
  4163     0A7B  3000               	movlw	0
  4164     0A7C  00F3               	movwf	___fladd@b+3
  4165     0A7D  3000               	movlw	0
  4166     0A7E  00F2               	movwf	___fladd@b+2
  4167     0A7F  3000               	movlw	0
  4168     0A80  00F1               	movwf	___fladd@b+1
  4169     0A81  3000               	movlw	0
  4170     0A82  00F0               	movwf	___fladd@b
  4171     0A83                     l2044:
  4172     0A83  17F2               	bsf	___fladd@b+2,7
  4173     0A84                     l2046:
  4174     0A84  01F3               	clrf	___fladd@b+3
  4175     0A85  2A8E               	goto	l471
  4176     0A86                     l2048:
  4177     0A86  3000               	movlw	0
  4178     0A87  00F3               	movwf	___fladd@b+3
  4179     0A88  3000               	movlw	0
  4180     0A89  00F2               	movwf	___fladd@b+2
  4181     0A8A  3000               	movlw	0
  4182     0A8B  00F1               	movwf	___fladd@b+1
  4183     0A8C  3000               	movlw	0
  4184     0A8D  00F0               	movwf	___fladd@b
  4185     0A8E                     l471:
  4186     0A8E  0877               	movf	___fladd@a+3,w
  4187     0A8F  00F9               	movwf	___fladd@aexp
  4188     0A90                     l2050:
  4189     0A90  3080               	movlw	128
  4190     0A91  05F9               	andwf	___fladd@aexp,f
  4191     0A92                     l2052:
  4192     0A92  0879               	movf	___fladd@aexp,w
  4193     0A93  0678               	xorwf	___fladd@signs,w
  4194     0A94  1903               	skipnz
  4195     0A95  2A97               	goto	u2891
  4196     0A96  2A98               	goto	u2890
  4197     0A97                     u2891:
  4198     0A97  2A99               	goto	l2056
  4199     0A98                     u2890:
  4200     0A98                     l2054:
  4201     0A98  1778               	bsf	___fladd@signs,6
  4202     0A99                     l2056:
  4203     0A99  0877               	movf	___fladd@a+3,w
  4204     0A9A  00A0               	movwf	??___fladd
  4205     0A9B  0720               	addwf	??___fladd,w
  4206     0A9C  00F9               	movwf	___fladd@aexp
  4207     0A9D                     l2058:
  4208     0A9D  1FF6               	btfss	___fladd@a+2,7
  4209     0A9E  2AA0               	goto	u2901
  4210     0A9F  2AA1               	goto	u2900
  4211     0AA0                     u2901:
  4212     0AA0  2AA2               	goto	l2062
  4213     0AA1                     u2900:
  4214     0AA1                     l2060:
  4215     0AA1  1479               	bsf	___fladd@aexp,0
  4216     0AA2                     l2062:
  4217     0AA2  0879               	movf	___fladd@aexp,w
  4218     0AA3  1903               	btfsc	3,2
  4219     0AA4  2AA6               	goto	u2911
  4220     0AA5  2AA7               	goto	u2910
  4221     0AA6                     u2911:
  4222     0AA6  2AB7               	goto	l2072
  4223     0AA7                     u2910:
  4224     0AA7                     l2064:
  4225     0AA7  0A79               	incf	___fladd@aexp,w
  4226     0AA8  1D03               	btfss	3,2
  4227     0AA9  2AAB               	goto	u2921
  4228     0AAA  2AAC               	goto	u2920
  4229     0AAB                     u2921:
  4230     0AAB  2AB4               	goto	l2068
  4231     0AAC                     u2920:
  4232     0AAC                     l2066:
  4233     0AAC  3000               	movlw	0
  4234     0AAD  00F7               	movwf	___fladd@a+3
  4235     0AAE  3000               	movlw	0
  4236     0AAF  00F6               	movwf	___fladd@a+2
  4237     0AB0  3000               	movlw	0
  4238     0AB1  00F5               	movwf	___fladd@a+1
  4239     0AB2  3000               	movlw	0
  4240     0AB3  00F4               	movwf	___fladd@a
  4241     0AB4                     l2068:
  4242     0AB4  17F6               	bsf	___fladd@a+2,7
  4243     0AB5                     l2070:
  4244     0AB5  01F7               	clrf	___fladd@a+3
  4245     0AB6  2ABF               	goto	l476
  4246     0AB7                     l2072:
  4247     0AB7  3000               	movlw	0
  4248     0AB8  00F7               	movwf	___fladd@a+3
  4249     0AB9  3000               	movlw	0
  4250     0ABA  00F6               	movwf	___fladd@a+2
  4251     0ABB  3000               	movlw	0
  4252     0ABC  00F5               	movwf	___fladd@a+1
  4253     0ABD  3000               	movlw	0
  4254     0ABE  00F4               	movwf	___fladd@a
  4255     0ABF                     l476:
  4256     0ABF  087A               	movf	___fladd@bexp,w
  4257     0AC0  0279               	subwf	___fladd@aexp,w
  4258     0AC1  1803               	skipnc
  4259     0AC2  2AC4               	goto	u2931
  4260     0AC3  2AC5               	goto	u2930
  4261     0AC4                     u2931:
  4262     0AC4  2AE9               	goto	l2108
  4263     0AC5                     u2930:
  4264     0AC5                     l2074:
  4265     0AC5  1F78               	btfss	___fladd@signs,6
  4266     0AC6  2AC8               	goto	u2941
  4267     0AC7  2AC9               	goto	u2940
  4268     0AC8                     u2941:
  4269     0AC8  2ACB               	goto	l2078
  4270     0AC9                     u2940:
  4271     0AC9                     l2076:
  4272     0AC9  3080               	movlw	128
  4273     0ACA  06F8               	xorwf	___fladd@signs,f
  4274     0ACB                     l2078:
  4275     0ACB  087A               	movf	___fladd@bexp,w
  4276     0ACC  00FB               	movwf	___fladd@grs
  4277     0ACD                     l2080:
  4278     0ACD  0879               	movf	___fladd@aexp,w
  4279     0ACE  00FA               	movwf	___fladd@bexp
  4280     0ACF                     l2082:
  4281     0ACF  087B               	movf	___fladd@grs,w
  4282     0AD0  00F9               	movwf	___fladd@aexp
  4283     0AD1                     l2084:
  4284     0AD1  0870               	movf	___fladd@b,w
  4285     0AD2  00FB               	movwf	___fladd@grs
  4286     0AD3                     l2086:
  4287     0AD3  0874               	movf	___fladd@a,w
  4288     0AD4  00F0               	movwf	___fladd@b
  4289     0AD5                     l2088:
  4290     0AD5  087B               	movf	___fladd@grs,w
  4291     0AD6  00F4               	movwf	___fladd@a
  4292     0AD7                     l2090:
  4293     0AD7  0871               	movf	___fladd@b+1,w
  4294     0AD8  00FB               	movwf	___fladd@grs
  4295     0AD9                     l2092:
  4296     0AD9  0875               	movf	___fladd@a+1,w
  4297     0ADA  00F1               	movwf	___fladd@b+1
  4298     0ADB                     l2094:
  4299     0ADB  087B               	movf	___fladd@grs,w
  4300     0ADC  00F5               	movwf	___fladd@a+1
  4301     0ADD                     l2096:
  4302     0ADD  0872               	movf	___fladd@b+2,w
  4303     0ADE  00FB               	movwf	___fladd@grs
  4304     0ADF                     l2098:
  4305     0ADF  0876               	movf	___fladd@a+2,w
  4306     0AE0  00F2               	movwf	___fladd@b+2
  4307     0AE1                     l2100:
  4308     0AE1  087B               	movf	___fladd@grs,w
  4309     0AE2  00F6               	movwf	___fladd@a+2
  4310     0AE3                     l2102:
  4311     0AE3  0873               	movf	___fladd@b+3,w
  4312     0AE4  00FB               	movwf	___fladd@grs
  4313     0AE5                     l2104:
  4314     0AE5  0877               	movf	___fladd@a+3,w
  4315     0AE6  00F3               	movwf	___fladd@b+3
  4316     0AE7                     l2106:
  4317     0AE7  087B               	movf	___fladd@grs,w
  4318     0AE8  00F7               	movwf	___fladd@a+3
  4319     0AE9                     l2108:
  4320     0AE9  01FB               	clrf	___fladd@grs
  4321     0AEA                     l2110:
  4322     0AEA  0879               	movf	___fladd@aexp,w
  4323     0AEB  00A0               	movwf	??___fladd
  4324     0AEC  01A1               	clrf	??___fladd+1
  4325     0AED  0821               	movf	??___fladd+1,w
  4326     0AEE  00A3               	movwf	??___fladd+3
  4327     0AEF  087A               	movf	___fladd@bexp,w
  4328     0AF0  0220               	subwf	??___fladd,w
  4329     0AF1  00A2               	movwf	??___fladd+2
  4330     0AF2  1C03               	skipc
  4331     0AF3  03A3               	decf	??___fladd+3,f
  4332     0AF4  0823               	movf	??___fladd+3,w
  4333     0AF5  3A80               	xorlw	128
  4334     0AF6  00FF               	movwf	btemp+1
  4335     0AF7  3080               	movlw	128
  4336     0AF8  027F               	subwf	btemp+1,w
  4337     0AF9  1D03               	skipz
  4338     0AFA  2AFD               	goto	u2955
  4339     0AFB  301A               	movlw	26
  4340     0AFC  0222               	subwf	??___fladd+2,w
  4341     0AFD                     u2955:
  4342     0AFD  1C03               	skipc
  4343     0AFE  2B00               	goto	u2951
  4344     0AFF  2B01               	goto	u2950
  4345     0B00                     u2951:
  4346     0B00  2B38               	goto	l2126
  4347     0B01                     u2950:
  4348     0B01                     l2112:
  4349     0B01  0873               	movf	___fladd@b+3,w
  4350     0B02  0472               	iorwf	___fladd@b+2,w
  4351     0B03  0471               	iorwf	___fladd@b+1,w
  4352     0B04  0470               	iorwf	___fladd@b,w
  4353     0B05  1D03               	skipz
  4354     0B06  2B08               	goto	u2961
  4355     0B07  2B0A               	goto	u2960
  4356     0B08                     u2961:
  4357     0B08  3001               	movlw	1
  4358     0B09  2B0B               	goto	u2970
  4359     0B0A                     u2960:
  4360     0B0A  3000               	movlw	0
  4361     0B0B                     u2970:
  4362     0B0B  00FB               	movwf	___fladd@grs
  4363     0B0C  3000               	movlw	0
  4364     0B0D  00F3               	movwf	___fladd@b+3
  4365     0B0E  3000               	movlw	0
  4366     0B0F  00F2               	movwf	___fladd@b+2
  4367     0B10  3000               	movlw	0
  4368     0B11  00F1               	movwf	___fladd@b+1
  4369     0B12  3000               	movlw	0
  4370     0B13  00F0               	movwf	___fladd@b
  4371     0B14  0879               	movf	___fladd@aexp,w
  4372     0B15  00FA               	movwf	___fladd@bexp
  4373     0B16  2B3E               	goto	l480
  4374     0B17                     l482:
  4375     0B17  1C7B               	btfss	___fladd@grs,0
  4376     0B18  2B1A               	goto	u2981
  4377     0B19  2B1B               	goto	u2980
  4378     0B1A                     u2981:
  4379     0B1A  2B24               	goto	l2116
  4380     0B1B                     u2980:
  4381     0B1B                     l2114:
  4382     0B1B  087B               	movf	___fladd@grs,w
  4383     0B1C  1283               	bcf	3,5	;RP0=0, select bank0
  4384     0B1D  1303               	bcf	3,6	;RP1=0, select bank0
  4385     0B1E  00A0               	movwf	??___fladd
  4386     0B1F  1003               	clrc
  4387     0B20  0C20               	rrf	??___fladd,w
  4388     0B21  3801               	iorlw	1
  4389     0B22  00FB               	movwf	___fladd@grs
  4390     0B23  2B26               	goto	l2118
  4391     0B24                     l2116:
  4392     0B24  1003               	clrc
  4393     0B25  0CFB               	rrf	___fladd@grs,f
  4394     0B26                     l2118:
  4395     0B26  1C70               	btfss	___fladd@b,0
  4396     0B27  2B29               	goto	u2991
  4397     0B28  2B2A               	goto	u2990
  4398     0B29                     u2991:
  4399     0B29  2B2B               	goto	l2122
  4400     0B2A                     u2990:
  4401     0B2A                     l2120:
  4402     0B2A  17FB               	bsf	___fladd@grs,7
  4403     0B2B                     l2122:
  4404     0B2B  3001               	movlw	1
  4405     0B2C  1283               	bcf	3,5	;RP0=0, select bank0
  4406     0B2D  1303               	bcf	3,6	;RP1=0, select bank0
  4407     0B2E  00A0               	movwf	??___fladd
  4408     0B2F                     u3005:
  4409     0B2F  0D73               	rlf	___fladd@b+3,w
  4410     0B30  0CF3               	rrf	___fladd@b+3,f
  4411     0B31  0CF2               	rrf	___fladd@b+2,f
  4412     0B32  0CF1               	rrf	___fladd@b+1,f
  4413     0B33  0CF0               	rrf	___fladd@b,f
  4414     0B34  0BA0               	decfsz	??___fladd& (0+127),f
  4415     0B35  2B2F               	goto	u3005
  4416     0B36                     l2124:
  4417     0B36  3001               	movlw	1
  4418     0B37  07FA               	addwf	___fladd@bexp,f
  4419     0B38                     l2126:
  4420     0B38  0879               	movf	___fladd@aexp,w
  4421     0B39  027A               	subwf	___fladd@bexp,w
  4422     0B3A  1C03               	skipc
  4423     0B3B  2B3D               	goto	u3011
  4424     0B3C  2B3E               	goto	u3010
  4425     0B3D                     u3011:
  4426     0B3D  2B17               	goto	l482
  4427     0B3E                     u3010:
  4428     0B3E                     l480:
  4429     0B3E  1B78               	btfsc	___fladd@signs,6
  4430     0B3F  2B41               	goto	u3021
  4431     0B40  2B42               	goto	u3020
  4432     0B41                     u3021:
  4433     0B41  2B8D               	goto	l2152
  4434     0B42                     u3020:
  4435     0B42                     l2128:
  4436     0B42  087A               	movf	___fladd@bexp,w
  4437     0B43  1D03               	btfss	3,2
  4438     0B44  2B46               	goto	u3031
  4439     0B45  2B47               	goto	u3030
  4440     0B46                     u3031:
  4441     0B46  2B50               	goto	l2134
  4442     0B47                     u3030:
  4443     0B47                     l2130:
  4444     0B47  3000               	movlw	0
  4445     0B48  00F3               	movwf	?___fladd+3
  4446     0B49  3000               	movlw	0
  4447     0B4A  00F2               	movwf	?___fladd+2
  4448     0B4B  3000               	movlw	0
  4449     0B4C  00F1               	movwf	?___fladd+1
  4450     0B4D  3000               	movlw	0
  4451     0B4E  00F0               	movwf	?___fladd
  4452     0B4F  2CBD               	goto	l489
  4453     0B50                     l2134:
  4454     0B50  0874               	movf	___fladd@a,w
  4455     0B51  07F0               	addwf	___fladd@b,f
  4456     0B52  0875               	movf	___fladd@a+1,w
  4457     0B53  1103               	clrz
  4458     0B54  1803               	skipnc
  4459     0B55  3E01               	addlw	1
  4460     0B56  1903               	skipnz
  4461     0B57  2B59               	goto	u3041
  4462     0B58  07F1               	addwf	___fladd@b+1,f
  4463     0B59                     u3041:
  4464     0B59  0876               	movf	___fladd@a+2,w
  4465     0B5A  1103               	clrz
  4466     0B5B  1803               	skipnc
  4467     0B5C  3E01               	addlw	1
  4468     0B5D  1903               	skipnz
  4469     0B5E  2B60               	goto	u3042
  4470     0B5F  07F2               	addwf	___fladd@b+2,f
  4471     0B60                     u3042:
  4472     0B60  0877               	movf	___fladd@a+3,w
  4473     0B61  1103               	clrz
  4474     0B62  1803               	skipnc
  4475     0B63  3E01               	addlw	1
  4476     0B64  1903               	skipnz
  4477     0B65  2B67               	goto	u3043
  4478     0B66  07F3               	addwf	___fladd@b+3,f
  4479     0B67                     u3043:
  4480     0B67                     l2136:
  4481     0B67  1C73               	btfss	___fladd@b+3,0
  4482     0B68  2B6A               	goto	u3051
  4483     0B69  2B6B               	goto	u3050
  4484     0B6A                     u3051:
  4485     0B6A  2C45               	goto	l2188
  4486     0B6B                     u3050:
  4487     0B6B                     l2138:
  4488     0B6B  1C7B               	btfss	___fladd@grs,0
  4489     0B6C  2B6E               	goto	u3061
  4490     0B6D  2B6F               	goto	u3060
  4491     0B6E                     u3061:
  4492     0B6E  2B78               	goto	l2142
  4493     0B6F                     u3060:
  4494     0B6F                     l2140:
  4495     0B6F  087B               	movf	___fladd@grs,w
  4496     0B70  1283               	bcf	3,5	;RP0=0, select bank0
  4497     0B71  1303               	bcf	3,6	;RP1=0, select bank0
  4498     0B72  00A0               	movwf	??___fladd
  4499     0B73  1003               	clrc
  4500     0B74  0C20               	rrf	??___fladd,w
  4501     0B75  3801               	iorlw	1
  4502     0B76  00FB               	movwf	___fladd@grs
  4503     0B77  2B7A               	goto	l2144
  4504     0B78                     l2142:
  4505     0B78  1003               	clrc
  4506     0B79  0CFB               	rrf	___fladd@grs,f
  4507     0B7A                     l2144:
  4508     0B7A  1C70               	btfss	___fladd@b,0
  4509     0B7B  2B7D               	goto	u3071
  4510     0B7C  2B7E               	goto	u3070
  4511     0B7D                     u3071:
  4512     0B7D  2B7F               	goto	l2148
  4513     0B7E                     u3070:
  4514     0B7E                     l2146:
  4515     0B7E  17FB               	bsf	___fladd@grs,7
  4516     0B7F                     l2148:
  4517     0B7F  3001               	movlw	1
  4518     0B80  1283               	bcf	3,5	;RP0=0, select bank0
  4519     0B81  1303               	bcf	3,6	;RP1=0, select bank0
  4520     0B82  00A0               	movwf	??___fladd
  4521     0B83                     u3085:
  4522     0B83  0D73               	rlf	___fladd@b+3,w
  4523     0B84  0CF3               	rrf	___fladd@b+3,f
  4524     0B85  0CF2               	rrf	___fladd@b+2,f
  4525     0B86  0CF1               	rrf	___fladd@b+1,f
  4526     0B87  0CF0               	rrf	___fladd@b,f
  4527     0B88  0BA0               	decfsz	??___fladd& (0+127),f
  4528     0B89  2B83               	goto	u3085
  4529     0B8A                     l2150:
  4530     0B8A  3001               	movlw	1
  4531     0B8B  07FA               	addwf	___fladd@bexp,f
  4532     0B8C  2C45               	goto	l2188
  4533     0B8D                     l2152:
  4534     0B8D  0873               	movf	___fladd@b+3,w
  4535     0B8E  3A80               	xorlw	128
  4536     0B8F  00FF               	movwf	btemp+1
  4537     0B90  0877               	movf	___fladd@a+3,w
  4538     0B91  3A80               	xorlw	128
  4539     0B92  027F               	subwf	btemp+1,w
  4540     0B93  1D03               	skipz
  4541     0B94  2B9F               	goto	u3093
  4542     0B95  0876               	movf	___fladd@a+2,w
  4543     0B96  0272               	subwf	___fladd@b+2,w
  4544     0B97  1D03               	skipz
  4545     0B98  2B9F               	goto	u3093
  4546     0B99  0875               	movf	___fladd@a+1,w
  4547     0B9A  0271               	subwf	___fladd@b+1,w
  4548     0B9B  1D03               	skipz
  4549     0B9C  2B9F               	goto	u3093
  4550     0B9D  0874               	movf	___fladd@a,w
  4551     0B9E  0270               	subwf	___fladd@b,w
  4552     0B9F                     u3093:
  4553     0B9F  1803               	skipnc
  4554     0BA0  2BA2               	goto	u3091
  4555     0BA1  2BA3               	goto	u3090
  4556     0BA2                     u3091:
  4557     0BA2  2BFC               	goto	l2164
  4558     0BA3                     u3090:
  4559     0BA3                     l2154:
  4560     0BA3  30FF               	movlw	255
  4561     0BA4  1283               	bcf	3,5	;RP0=0, select bank0
  4562     0BA5  1303               	bcf	3,6	;RP1=0, select bank0
  4563     0BA6  00A0               	movwf	??___fladd
  4564     0BA7  30FF               	movlw	255
  4565     0BA8  00A1               	movwf	??___fladd+1
  4566     0BA9  30FF               	movlw	255
  4567     0BAA  00A2               	movwf	??___fladd+2
  4568     0BAB  30FF               	movlw	255
  4569     0BAC  00A3               	movwf	??___fladd+3
  4570     0BAD  0874               	movf	___fladd@a,w
  4571     0BAE  00A4               	movwf	??___fladd+4
  4572     0BAF  0875               	movf	___fladd@a+1,w
  4573     0BB0  00A5               	movwf	??___fladd+5
  4574     0BB1  0876               	movf	___fladd@a+2,w
  4575     0BB2  00A6               	movwf	??___fladd+6
  4576     0BB3  0877               	movf	___fladd@a+3,w
  4577     0BB4  00A7               	movwf	??___fladd+7
  4578     0BB5  0870               	movf	___fladd@b,w
  4579     0BB6  02A4               	subwf	??___fladd+4,f
  4580     0BB7  0871               	movf	___fladd@b+1,w
  4581     0BB8  1C03               	skipc
  4582     0BB9  0F71               	incfsz	___fladd@b+1,w
  4583     0BBA  2BBC               	goto	u3101
  4584     0BBB  2BBD               	goto	u3102
  4585     0BBC                     u3101:
  4586     0BBC  02A5               	subwf	??___fladd+5,f
  4587     0BBD                     u3102:
  4588     0BBD  0872               	movf	___fladd@b+2,w
  4589     0BBE  1C03               	skipc
  4590     0BBF  0F72               	incfsz	___fladd@b+2,w
  4591     0BC0  2BC2               	goto	u3103
  4592     0BC1  2BC3               	goto	u3104
  4593     0BC2                     u3103:
  4594     0BC2  02A6               	subwf	??___fladd+6,f
  4595     0BC3                     u3104:
  4596     0BC3  0873               	movf	___fladd@b+3,w
  4597     0BC4  1C03               	skipc
  4598     0BC5  0F73               	incfsz	___fladd@b+3,w
  4599     0BC6  2BC8               	goto	u3105
  4600     0BC7  2BC9               	goto	u3106
  4601     0BC8                     u3105:
  4602     0BC8  02A7               	subwf	??___fladd+7,f
  4603     0BC9                     u3106:
  4604     0BC9  0824               	movf	??___fladd+4,w
  4605     0BCA  07A0               	addwf	??___fladd,f
  4606     0BCB  0825               	movf	??___fladd+5,w
  4607     0BCC  1803               	skipnc
  4608     0BCD  0F25               	incfsz	??___fladd+5,w
  4609     0BCE  2BD0               	goto	u3110
  4610     0BCF  2BD1               	goto	u3111
  4611     0BD0                     u3110:
  4612     0BD0  07A1               	addwf	??___fladd+1,f
  4613     0BD1                     u3111:
  4614     0BD1  0826               	movf	??___fladd+6,w
  4615     0BD2  1803               	skipnc
  4616     0BD3  0F26               	incfsz	??___fladd+6,w
  4617     0BD4  2BD6               	goto	u3112
  4618     0BD5  2BD7               	goto	u3113
  4619     0BD6                     u3112:
  4620     0BD6  07A2               	addwf	??___fladd+2,f
  4621     0BD7                     u3113:
  4622     0BD7  0827               	movf	??___fladd+7,w
  4623     0BD8  1803               	skipnc
  4624     0BD9  0A27               	incf	??___fladd+7,w
  4625     0BDA  07A3               	addwf	??___fladd+3,f
  4626     0BDB  0823               	movf	??___fladd+3,w
  4627     0BDC  00F3               	movwf	___fladd@b+3
  4628     0BDD  0822               	movf	??___fladd+2,w
  4629     0BDE  00F2               	movwf	___fladd@b+2
  4630     0BDF  0821               	movf	??___fladd+1,w
  4631     0BE0  00F1               	movwf	___fladd@b+1
  4632     0BE1  0820               	movf	??___fladd,w
  4633     0BE2  00F0               	movwf	___fladd@b
  4634     0BE3                     l2156:
  4635     0BE3  3080               	movlw	128
  4636     0BE4  06F8               	xorwf	___fladd@signs,f
  4637     0BE5                     l2158:
  4638     0BE5  037B               	decf	___fladd@grs,w
  4639     0BE6  3AFF               	xorlw	255
  4640     0BE7  00FB               	movwf	___fladd@grs
  4641     0BE8                     l2160:
  4642     0BE8  087B               	movf	___fladd@grs,w
  4643     0BE9  1D03               	btfss	3,2
  4644     0BEA  2BEC               	goto	u3121
  4645     0BEB  2BED               	goto	u3120
  4646     0BEC                     u3121:
  4647     0BEC  2C0A               	goto	l497
  4648     0BED                     u3120:
  4649     0BED                     l2162:
  4650     0BED  3001               	movlw	1
  4651     0BEE  07F0               	addwf	___fladd@b,f
  4652     0BEF  3000               	movlw	0
  4653     0BF0  1803               	skipnc
  4654     0BF1  3001               	movlw	1
  4655     0BF2  07F1               	addwf	___fladd@b+1,f
  4656     0BF3  3000               	movlw	0
  4657     0BF4  1803               	skipnc
  4658     0BF5  3001               	movlw	1
  4659     0BF6  07F2               	addwf	___fladd@b+2,f
  4660     0BF7  3000               	movlw	0
  4661     0BF8  1803               	skipnc
  4662     0BF9  3001               	movlw	1
  4663     0BFA  07F3               	addwf	___fladd@b+3,f
  4664     0BFB  2C0A               	goto	l497
  4665     0BFC                     l2164:
  4666     0BFC  0874               	movf	___fladd@a,w
  4667     0BFD  02F0               	subwf	___fladd@b,f
  4668     0BFE  0875               	movf	___fladd@a+1,w
  4669     0BFF  1C03               	skipc
  4670     0C00  0F75               	incfsz	___fladd@a+1,w
  4671     0C01  02F1               	subwf	___fladd@b+1,f
  4672     0C02  0876               	movf	___fladd@a+2,w
  4673     0C03  1C03               	skipc
  4674     0C04  0F76               	incfsz	___fladd@a+2,w
  4675     0C05  02F2               	subwf	___fladd@b+2,f
  4676     0C06  0877               	movf	___fladd@a+3,w
  4677     0C07  1C03               	skipc
  4678     0C08  0F77               	incfsz	___fladd@a+3,w
  4679     0C09  02F3               	subwf	___fladd@b+3,f
  4680     0C0A                     l497:
  4681     0C0A  0873               	movf	___fladd@b+3,w
  4682     0C0B  0472               	iorwf	___fladd@b+2,w
  4683     0C0C  0471               	iorwf	___fladd@b+1,w
  4684     0C0D  0470               	iorwf	___fladd@b,w
  4685     0C0E  1D03               	skipz
  4686     0C0F  2C11               	goto	u3131
  4687     0C10  2C12               	goto	u3130
  4688     0C11                     u3131:
  4689     0C11  2C41               	goto	l2186
  4690     0C12                     u3130:
  4691     0C12                     l2166:
  4692     0C12  087B               	movf	___fladd@grs,w
  4693     0C13  1D03               	btfss	3,2
  4694     0C14  2C16               	goto	u3141
  4695     0C15  2C17               	goto	u3140
  4696     0C16                     u3141:
  4697     0C16  2C41               	goto	l2186
  4698     0C17                     u3140:
  4699     0C17                     l2168:
  4700     0C17  3000               	movlw	0
  4701     0C18  00F3               	movwf	?___fladd+3
  4702     0C19  3000               	movlw	0
  4703     0C1A  00F2               	movwf	?___fladd+2
  4704     0C1B  3000               	movlw	0
  4705     0C1C  00F1               	movwf	?___fladd+1
  4706     0C1D  3000               	movlw	0
  4707     0C1E  00F0               	movwf	?___fladd
  4708     0C1F  2CBD               	goto	l489
  4709     0C20                     l2172:
  4710     0C20  3001               	movlw	1
  4711     0C21  1283               	bcf	3,5	;RP0=0, select bank0
  4712     0C22  1303               	bcf	3,6	;RP1=0, select bank0
  4713     0C23  00A0               	movwf	??___fladd
  4714     0C24                     u3155:
  4715     0C24  1003               	clrc
  4716     0C25  0DF0               	rlf	___fladd@b,f
  4717     0C26  0DF1               	rlf	___fladd@b+1,f
  4718     0C27  0DF2               	rlf	___fladd@b+2,f
  4719     0C28  0DF3               	rlf	___fladd@b+3,f
  4720     0C29  0BA0               	decfsz	??___fladd,f
  4721     0C2A  2C24               	goto	u3155
  4722     0C2B                     l2174:
  4723     0C2B  1FFB               	btfss	___fladd@grs,7
  4724     0C2C  2C2E               	goto	u3161
  4725     0C2D  2C2F               	goto	u3160
  4726     0C2E                     u3161:
  4727     0C2E  2C30               	goto	l501
  4728     0C2F                     u3160:
  4729     0C2F                     l2176:
  4730     0C2F  1470               	bsf	___fladd@b,0
  4731     0C30                     l501:
  4732     0C30  1C7B               	btfss	___fladd@grs,0
  4733     0C31  2C33               	goto	u3171
  4734     0C32  2C34               	goto	u3170
  4735     0C33                     u3171:
  4736     0C33  2C38               	goto	l2180
  4737     0C34                     u3170:
  4738     0C34                     l2178:
  4739     0C34  1403               	setc
  4740     0C35  0D7B               	rlf	___fladd@grs,w
  4741     0C36  00FB               	movwf	___fladd@grs
  4742     0C37  2C3A               	goto	l2182
  4743     0C38                     l2180:
  4744     0C38  1003               	clrc
  4745     0C39  0DFB               	rlf	___fladd@grs,f
  4746     0C3A                     l2182:
  4747     0C3A  087A               	movf	___fladd@bexp,w
  4748     0C3B  1903               	btfsc	3,2
  4749     0C3C  2C3E               	goto	u3181
  4750     0C3D  2C3F               	goto	u3180
  4751     0C3E                     u3181:
  4752     0C3E  2C41               	goto	l2186
  4753     0C3F                     u3180:
  4754     0C3F                     l2184:
  4755     0C3F  3001               	movlw	1
  4756     0C40  02FA               	subwf	___fladd@bexp,f
  4757     0C41                     l2186:
  4758     0C41  1FF2               	btfss	___fladd@b+2,7
  4759     0C42  2C44               	goto	u3191
  4760     0C43  2C45               	goto	u3190
  4761     0C44                     u3191:
  4762     0C44  2C20               	goto	l2172
  4763     0C45                     u3190:
  4764     0C45                     l2188:
  4765     0C45  01F9               	clrf	___fladd@aexp
  4766     0C46                     l2190:
  4767     0C46  1FFB               	btfss	___fladd@grs,7
  4768     0C47  2C49               	goto	u3201
  4769     0C48  2C4A               	goto	u3200
  4770     0C49                     u3201:
  4771     0C49  2C58               	goto	l2198
  4772     0C4A                     u3200:
  4773     0C4A                     l2192:
  4774     0C4A  087B               	movf	___fladd@grs,w
  4775     0C4B  397F               	andlw	127
  4776     0C4C  1903               	btfsc	3,2
  4777     0C4D  2C4F               	goto	u3211
  4778     0C4E  2C50               	goto	u3210
  4779     0C4F                     u3211:
  4780     0C4F  2C53               	goto	l507
  4781     0C50                     u3210:
  4782     0C50                     l2194:
  4783     0C50  3001               	movlw	1
  4784     0C51  00F9               	movwf	___fladd@aexp
  4785     0C52  2C58               	goto	l2198
  4786     0C53                     l507:
  4787     0C53  1C70               	btfss	___fladd@b,0
  4788     0C54  2C56               	goto	u3221
  4789     0C55  2C57               	goto	u3220
  4790     0C56                     u3221:
  4791     0C56  2C58               	goto	l2198
  4792     0C57                     u3220:
  4793     0C57  2C50               	goto	l2194
  4794     0C58                     l2198:
  4795     0C58  0879               	movf	___fladd@aexp,w
  4796     0C59  1903               	btfsc	3,2
  4797     0C5A  2C5C               	goto	u3231
  4798     0C5B  2C5D               	goto	u3230
  4799     0C5C                     u3231:
  4800     0C5C  2C91               	goto	l510
  4801     0C5D                     u3230:
  4802     0C5D                     l2200:
  4803     0C5D  3001               	movlw	1
  4804     0C5E  07F0               	addwf	___fladd@b,f
  4805     0C5F  3000               	movlw	0
  4806     0C60  1803               	skipnc
  4807     0C61  3001               	movlw	1
  4808     0C62  07F1               	addwf	___fladd@b+1,f
  4809     0C63  3000               	movlw	0
  4810     0C64  1803               	skipnc
  4811     0C65  3001               	movlw	1
  4812     0C66  07F2               	addwf	___fladd@b+2,f
  4813     0C67  3000               	movlw	0
  4814     0C68  1803               	skipnc
  4815     0C69  3001               	movlw	1
  4816     0C6A  07F3               	addwf	___fladd@b+3,f
  4817     0C6B                     l2202:
  4818     0C6B  1C73               	btfss	___fladd@b+3,0
  4819     0C6C  2C6E               	goto	u3241
  4820     0C6D  2C6F               	goto	u3240
  4821     0C6E                     u3241:
  4822     0C6E  2C91               	goto	l510
  4823     0C6F                     u3240:
  4824     0C6F                     l2204:
  4825     0C6F  0870               	movf	___fladd@b,w
  4826     0C70  1283               	bcf	3,5	;RP0=0, select bank0
  4827     0C71  1303               	bcf	3,6	;RP1=0, select bank0
  4828     0C72  00A0               	movwf	??___fladd
  4829     0C73  0871               	movf	___fladd@b+1,w
  4830     0C74  00A1               	movwf	??___fladd+1
  4831     0C75  0872               	movf	___fladd@b+2,w
  4832     0C76  00A2               	movwf	??___fladd+2
  4833     0C77  0873               	movf	___fladd@b+3,w
  4834     0C78  00A3               	movwf	??___fladd+3
  4835     0C79  3001               	movlw	1
  4836     0C7A  00A4               	movwf	??___fladd+4
  4837     0C7B                     u3255:
  4838     0C7B  0D23               	rlf	??___fladd+3,w
  4839     0C7C  0CA3               	rrf	??___fladd+3,f
  4840     0C7D  0CA2               	rrf	??___fladd+2,f
  4841     0C7E  0CA1               	rrf	??___fladd+1,f
  4842     0C7F  0CA0               	rrf	??___fladd,f
  4843     0C80                     u3250:
  4844     0C80  0BA4               	decfsz	??___fladd+4,f
  4845     0C81  2C7B               	goto	u3255
  4846     0C82  0823               	movf	??___fladd+3,w
  4847     0C83  00F3               	movwf	___fladd@b+3
  4848     0C84  0822               	movf	??___fladd+2,w
  4849     0C85  00F2               	movwf	___fladd@b+2
  4850     0C86  0821               	movf	??___fladd+1,w
  4851     0C87  00F1               	movwf	___fladd@b+1
  4852     0C88  0820               	movf	??___fladd,w
  4853     0C89  00F0               	movwf	___fladd@b
  4854     0C8A  0A7A               	incf	___fladd@bexp,w
  4855     0C8B  1903               	btfsc	3,2
  4856     0C8C  2C8E               	goto	u3261
  4857     0C8D  2C8F               	goto	u3260
  4858     0C8E                     u3261:
  4859     0C8E  2C91               	goto	l510
  4860     0C8F                     u3260:
  4861     0C8F                     l2206:
  4862     0C8F  3001               	movlw	1
  4863     0C90  07FA               	addwf	___fladd@bexp,f
  4864     0C91                     l510:
  4865     0C91  0A7A               	incf	___fladd@bexp,w
  4866     0C92  1903               	btfsc	3,2
  4867     0C93  2C95               	goto	u3271
  4868     0C94  2C96               	goto	u3270
  4869     0C95                     u3271:
  4870     0C95  2C9B               	goto	l2210
  4871     0C96                     u3270:
  4872     0C96                     l2208:
  4873     0C96  087A               	movf	___fladd@bexp,w
  4874     0C97  1D03               	btfss	3,2
  4875     0C98  2C9A               	goto	u3281
  4876     0C99  2C9B               	goto	u3280
  4877     0C9A                     u3281:
  4878     0C9A  2CA9               	goto	l2216
  4879     0C9B                     u3280:
  4880     0C9B                     l2210:
  4881     0C9B  3000               	movlw	0
  4882     0C9C  00F3               	movwf	___fladd@b+3
  4883     0C9D  3000               	movlw	0
  4884     0C9E  00F2               	movwf	___fladd@b+2
  4885     0C9F  3000               	movlw	0
  4886     0CA0  00F1               	movwf	___fladd@b+1
  4887     0CA1  3000               	movlw	0
  4888     0CA2  00F0               	movwf	___fladd@b
  4889     0CA3                     l2212:
  4890     0CA3  087A               	movf	___fladd@bexp,w
  4891     0CA4  1D03               	btfss	3,2
  4892     0CA5  2CA7               	goto	u3291
  4893     0CA6  2CA8               	goto	u3290
  4894     0CA7                     u3291:
  4895     0CA7  2CA9               	goto	l2216
  4896     0CA8                     u3290:
  4897     0CA8                     l2214:
  4898     0CA8  01F8               	clrf	___fladd@signs
  4899     0CA9                     l2216:
  4900     0CA9  1C7A               	btfss	___fladd@bexp,0
  4901     0CAA  2CAC               	goto	u3301
  4902     0CAB  2CAD               	goto	u3300
  4903     0CAC                     u3301:
  4904     0CAC  2CAF               	goto	l2220
  4905     0CAD                     u3300:
  4906     0CAD                     l2218:
  4907     0CAD  17F2               	bsf	___fladd@b+2,7
  4908     0CAE  2CB1               	goto	l518
  4909     0CAF                     l2220:
  4910     0CAF  307F               	movlw	127
  4911     0CB0  05F2               	andwf	___fladd@b+2,f
  4912     0CB1                     l518:
  4913     0CB1  087A               	movf	___fladd@bexp,w
  4914     0CB2  1283               	bcf	3,5	;RP0=0, select bank0
  4915     0CB3  1303               	bcf	3,6	;RP1=0, select bank0
  4916     0CB4  00A0               	movwf	??___fladd
  4917     0CB5  1003               	clrc
  4918     0CB6  0C20               	rrf	??___fladd,w
  4919     0CB7  00F3               	movwf	___fladd@b+3
  4920     0CB8                     l2222:
  4921     0CB8  1FF8               	btfss	___fladd@signs,7
  4922     0CB9  2CBB               	goto	u3311
  4923     0CBA  2CBC               	goto	u3310
  4924     0CBB                     u3311:
  4925     0CBB  2CBD               	goto	l519
  4926     0CBC                     u3310:
  4927     0CBC                     l2224:
  4928     0CBC  17F3               	bsf	___fladd@b+3,7
  4929     0CBD                     l519:
  4930     0CBD                     l489:
  4931     0CBD  0008               	return
  4932     0CBE                     __end_of___fladd:
  4933                           
  4934                           	psect	text19
  4935     0800                     __ptext19:	
  4936 ;; *************** function ___flneg *****************
  4937 ;; Defined at:
  4938 ;;		line 15 in file "C:\Program Files\Microchip\xc8\v3.00\pic\sources\c99\common\flneg.c"
  4939 ;; Parameters:    Size  Location     Type
  4940 ;;  f1              4    0[COMMON] unsigned char 
  4941 ;; Auto vars:     Size  Location     Type
  4942 ;;		None
  4943 ;; Return value:  Size  Location     Type
  4944 ;;                  4    0[COMMON] unsigned char 
  4945 ;; Registers used:
  4946 ;;		wreg
  4947 ;; Tracked objects:
  4948 ;;		On entry : 0/0
  4949 ;;		On exit  : 0/0
  4950 ;;		Unchanged: 0/0
  4951 ;; Data sizes:     COMMON   BANK0   BANK1   BANK3   BANK2
  4952 ;;      Params:         4       0       0       0       0
  4953 ;;      Locals:         0       0       0       0       0
  4954 ;;      Temps:          0       0       0       0       0
  4955 ;;      Totals:         4       0       0       0       0
  4956 ;;Total ram usage:        4 bytes
  4957 ;; Hardware stack levels used: 1
  4958 ;; This function calls:
  4959 ;;		Nothing
  4960 ;; This function is called by:
  4961 ;;		_efgtoa
  4962 ;; This function uses a non-reentrant model
  4963 ;;
  4964                           
  4965     0800                     ___flneg:	
  4966                           ;psect for function ___flneg
  4967                           
  4968     0800                     l2294:	
  4969                           ;incstack = 0
  4970                           ; Regs used in ___flneg: [wreg]
  4971                           
  4972     0800  0873               	movf	___flneg@f1+3,w
  4973     0801  0472               	iorwf	___flneg@f1+2,w
  4974     0802  0471               	iorwf	___flneg@f1+1,w
  4975     0803  0470               	iorwf	___flneg@f1,w
  4976     0804  1903               	skipnz
  4977     0805  2807               	goto	u3501
  4978     0806  2808               	goto	u3500
  4979     0807                     u3501:
  4980     0807  280A               	goto	l2298
  4981     0808                     u3500:
  4982     0808                     l2296:
  4983     0808  3080               	movlw	128
  4984     0809  06F3               	xorwf	___flneg@f1+3,f
  4985     080A                     l2298:
  4986     080A                     l365:
  4987     080A  0008               	return
  4988     080B                     __end_of___flneg:
  4989                           
  4990                           	psect	text20
  4991     0CBE                     __ptext20:	
  4992 ;; *************** function ___flmul *****************
  4993 ;; Defined at:
  4994 ;;		line 8 in file "C:\Program Files\Microchip\xc8\v3.00\pic\sources\c99\common\sprcmul.c"
  4995 ;; Parameters:    Size  Location     Type
  4996 ;;  b               4    0[BANK0 ] unsigned char 
  4997 ;;  a               4    4[BANK0 ] unsigned char 
  4998 ;; Auto vars:     Size  Location     Type
  4999 ;;  prod            4   15[BANK0 ] struct .
  5000 ;;  grs             4    9[BANK0 ] unsigned long 
  5001 ;;  temp            2   19[BANK0 ] struct .
  5002 ;;  bexp            1   14[BANK0 ] unsigned char 
  5003 ;;  aexp            1   13[BANK0 ] unsigned char 
  5004 ;;  sign            1    8[BANK0 ] unsigned char 
  5005 ;; Return value:  Size  Location     Type
  5006 ;;                  4    0[BANK0 ] unsigned char 
  5007 ;; Registers used:
  5008 ;;		wreg, status,2, status,0, btemp+1, pclath, cstack
  5009 ;; Tracked objects:
  5010 ;;		On entry : 0/0
  5011 ;;		On exit  : 0/0
  5012 ;;		Unchanged: 0/0
  5013 ;; Data sizes:     COMMON   BANK0   BANK1   BANK3   BANK2
  5014 ;;      Params:         0       8       0       0       0
  5015 ;;      Locals:         0      13       0       0       0
  5016 ;;      Temps:          5       0       0       0       0
  5017 ;;      Totals:         5      21       0       0       0
  5018 ;;Total ram usage:       26 bytes
  5019 ;; Hardware stack levels used: 1
  5020 ;; Hardware stack levels required when called: 1
  5021 ;; This function calls:
  5022 ;;		__Umul8_16
  5023 ;; This function is called by:
  5024 ;;		_efgtoa
  5025 ;; This function uses a non-reentrant model
  5026 ;;
  5027                           
  5028     0CBE                     ___flmul:	
  5029                           ;psect for function ___flmul
  5030                           
  5031     0CBE                     l2488:	
  5032                           ;incstack = 0
  5033                           ; Regs used in ___flmul: [wreg+status,2+status,0+btemp+1+pclath+cstack]
  5034                           
  5035     0CBE  1283               	bcf	3,5	;RP0=0, select bank0
  5036     0CBF  1303               	bcf	3,6	;RP1=0, select bank0
  5037     0CC0  0823               	movf	___flmul@b+3,w
  5038     0CC1  00A8               	movwf	___flmul@sign
  5039     0CC2                     l2490:
  5040     0CC2  3080               	movlw	128
  5041     0CC3  05A8               	andwf	___flmul@sign,f
  5042     0CC4                     l2492:
  5043     0CC4  0823               	movf	___flmul@b+3,w
  5044     0CC5  00F9               	movwf	??___flmul
  5045     0CC6  0779               	addwf	??___flmul,w
  5046     0CC7  00AE               	movwf	___flmul@bexp
  5047     0CC8                     l2494:
  5048     0CC8  1FA2               	btfss	___flmul@b+2,7
  5049     0CC9  2CCB               	goto	u3901
  5050     0CCA  2CCC               	goto	u3900
  5051     0CCB                     u3901:
  5052     0CCB  2CCD               	goto	l2498
  5053     0CCC                     u3900:
  5054     0CCC                     l2496:
  5055     0CCC  142E               	bsf	___flmul@bexp,0
  5056     0CCD                     l2498:
  5057     0CCD  082E               	movf	___flmul@bexp,w
  5058     0CCE  1903               	btfsc	3,2
  5059     0CCF  2CD1               	goto	u3911
  5060     0CD0  2CD2               	goto	u3910
  5061     0CD1                     u3911:
  5062     0CD1  2CE1               	goto	l2506
  5063     0CD2                     u3910:
  5064     0CD2                     l2500:
  5065     0CD2  0A2E               	incf	___flmul@bexp,w
  5066     0CD3  1D03               	btfss	3,2
  5067     0CD4  2CD6               	goto	u3921
  5068     0CD5  2CD7               	goto	u3920
  5069     0CD6                     u3921:
  5070     0CD6  2CDF               	goto	l2504
  5071     0CD7                     u3920:
  5072     0CD7                     l2502:
  5073     0CD7  3000               	movlw	0
  5074     0CD8  00A3               	movwf	___flmul@b+3
  5075     0CD9  3000               	movlw	0
  5076     0CDA  00A2               	movwf	___flmul@b+2
  5077     0CDB  3000               	movlw	0
  5078     0CDC  00A1               	movwf	___flmul@b+1
  5079     0CDD  3000               	movlw	0
  5080     0CDE  00A0               	movwf	___flmul@b
  5081     0CDF                     l2504:
  5082     0CDF  17A2               	bsf	___flmul@b+2,7
  5083     0CE0  2CE9               	goto	l2508
  5084     0CE1                     l2506:
  5085     0CE1  3000               	movlw	0
  5086     0CE2  00A3               	movwf	___flmul@b+3
  5087     0CE3  3000               	movlw	0
  5088     0CE4  00A2               	movwf	___flmul@b+2
  5089     0CE5  3000               	movlw	0
  5090     0CE6  00A1               	movwf	___flmul@b+1
  5091     0CE7  3000               	movlw	0
  5092     0CE8  00A0               	movwf	___flmul@b
  5093     0CE9                     l2508:
  5094     0CE9  0827               	movf	___flmul@a+3,w
  5095     0CEA  3980               	andlw	128
  5096     0CEB  06A8               	xorwf	___flmul@sign,f
  5097     0CEC                     l2510:
  5098     0CEC  0827               	movf	___flmul@a+3,w
  5099     0CED  00F9               	movwf	??___flmul
  5100     0CEE  0779               	addwf	??___flmul,w
  5101     0CEF  00AD               	movwf	___flmul@aexp
  5102     0CF0                     l2512:
  5103     0CF0  1FA6               	btfss	___flmul@a+2,7
  5104     0CF1  2CF3               	goto	u3931
  5105     0CF2  2CF4               	goto	u3930
  5106     0CF3                     u3931:
  5107     0CF3  2CF5               	goto	l2516
  5108     0CF4                     u3930:
  5109     0CF4                     l2514:
  5110     0CF4  142D               	bsf	___flmul@aexp,0
  5111     0CF5                     l2516:
  5112     0CF5  082D               	movf	___flmul@aexp,w
  5113     0CF6  1903               	btfsc	3,2
  5114     0CF7  2CF9               	goto	u3941
  5115     0CF8  2CFA               	goto	u3940
  5116     0CF9                     u3941:
  5117     0CF9  2D09               	goto	l2524
  5118     0CFA                     u3940:
  5119     0CFA                     l2518:
  5120     0CFA  0A2D               	incf	___flmul@aexp,w
  5121     0CFB  1D03               	btfss	3,2
  5122     0CFC  2CFE               	goto	u3951
  5123     0CFD  2CFF               	goto	u3950
  5124     0CFE                     u3951:
  5125     0CFE  2D07               	goto	l2522
  5126     0CFF                     u3950:
  5127     0CFF                     l2520:
  5128     0CFF  3000               	movlw	0
  5129     0D00  00A7               	movwf	___flmul@a+3
  5130     0D01  3000               	movlw	0
  5131     0D02  00A6               	movwf	___flmul@a+2
  5132     0D03  3000               	movlw	0
  5133     0D04  00A5               	movwf	___flmul@a+1
  5134     0D05  3000               	movlw	0
  5135     0D06  00A4               	movwf	___flmul@a
  5136     0D07                     l2522:
  5137     0D07  17A6               	bsf	___flmul@a+2,7
  5138     0D08  2D11               	goto	l2526
  5139     0D09                     l2524:
  5140     0D09  3000               	movlw	0
  5141     0D0A  00A7               	movwf	___flmul@a+3
  5142     0D0B  3000               	movlw	0
  5143     0D0C  00A6               	movwf	___flmul@a+2
  5144     0D0D  3000               	movlw	0
  5145     0D0E  00A5               	movwf	___flmul@a+1
  5146     0D0F  3000               	movlw	0
  5147     0D10  00A4               	movwf	___flmul@a
  5148     0D11                     l2526:
  5149     0D11  082D               	movf	___flmul@aexp,w
  5150     0D12  1903               	btfsc	3,2
  5151     0D13  2D15               	goto	u3961
  5152     0D14  2D16               	goto	u3960
  5153     0D15                     u3961:
  5154     0D15  2D1B               	goto	l2530
  5155     0D16                     u3960:
  5156     0D16                     l2528:
  5157     0D16  082E               	movf	___flmul@bexp,w
  5158     0D17  1D03               	btfss	3,2
  5159     0D18  2D1A               	goto	u3971
  5160     0D19  2D1B               	goto	u3970
  5161     0D1A                     u3971:
  5162     0D1A  2D24               	goto	l2534
  5163     0D1B                     u3970:
  5164     0D1B                     l2530:
  5165     0D1B  3000               	movlw	0
  5166     0D1C  00A3               	movwf	?___flmul+3
  5167     0D1D  3000               	movlw	0
  5168     0D1E  00A2               	movwf	?___flmul+2
  5169     0D1F  3000               	movlw	0
  5170     0D20  00A1               	movwf	?___flmul+1
  5171     0D21  3000               	movlw	0
  5172     0D22  00A0               	movwf	?___flmul
  5173     0D23  2FFF               	goto	l572
  5174     0D24                     l2534:
  5175     0D24  0820               	movf	___flmul@b,w
  5176     0D25  00F0               	movwf	__Umul8_16@multiplicand
  5177     0D26  0826               	movf	___flmul@a+2,w
  5178     0D27  160A  158A  26BF  120A  158A  	fcall	__Umul8_16
  5179     0D2C  0871               	movf	?__Umul8_16+1,w
  5180     0D2D  1283               	bcf	3,5	;RP0=0, select bank0
  5181     0D2E  1303               	bcf	3,6	;RP1=0, select bank0
  5182     0D2F  00B4               	movwf	___flmul@temp+1
  5183     0D30  0870               	movf	?__Umul8_16,w
  5184     0D31  00B3               	movwf	___flmul@temp
  5185     0D32                     l2536:
  5186     0D32  0833               	movf	___flmul@temp,w
  5187     0D33  00F9               	movwf	??___flmul
  5188     0D34  01FA               	clrf	??___flmul+1
  5189     0D35  01FB               	clrf	??___flmul+2
  5190     0D36  01FC               	clrf	??___flmul+3
  5191     0D37  087C               	movf	??___flmul+3,w
  5192     0D38  00AC               	movwf	___flmul@grs+3
  5193     0D39  087B               	movf	??___flmul+2,w
  5194     0D3A  00AB               	movwf	___flmul@grs+2
  5195     0D3B  087A               	movf	??___flmul+1,w
  5196     0D3C  00AA               	movwf	___flmul@grs+1
  5197     0D3D  0879               	movf	??___flmul,w
  5198     0D3E  00A9               	movwf	___flmul@grs
  5199     0D3F                     l2538:
  5200     0D3F  0834               	movf	___flmul@temp+1,w
  5201     0D40  00F9               	movwf	??___flmul
  5202     0D41  01FA               	clrf	??___flmul+1
  5203     0D42  01FB               	clrf	??___flmul+2
  5204     0D43  01FC               	clrf	??___flmul+3
  5205     0D44  087C               	movf	??___flmul+3,w
  5206     0D45  00B2               	movwf	___flmul@prod+3
  5207     0D46  087B               	movf	??___flmul+2,w
  5208     0D47  00B1               	movwf	___flmul@prod+2
  5209     0D48  087A               	movf	??___flmul+1,w
  5210     0D49  00B0               	movwf	___flmul@prod+1
  5211     0D4A  0879               	movf	??___flmul,w
  5212     0D4B  00AF               	movwf	___flmul@prod
  5213     0D4C  0821               	movf	___flmul@b+1,w
  5214     0D4D  00F0               	movwf	__Umul8_16@multiplicand
  5215     0D4E  0825               	movf	___flmul@a+1,w
  5216     0D4F  160A  158A  26BF  120A  158A  	fcall	__Umul8_16
  5217     0D54  0871               	movf	?__Umul8_16+1,w
  5218     0D55  1283               	bcf	3,5	;RP0=0, select bank0
  5219     0D56  1303               	bcf	3,6	;RP1=0, select bank0
  5220     0D57  00B4               	movwf	___flmul@temp+1
  5221     0D58  0870               	movf	?__Umul8_16,w
  5222     0D59  00B3               	movwf	___flmul@temp
  5223     0D5A                     l2540:
  5224     0D5A  0833               	movf	___flmul@temp,w
  5225     0D5B  00F9               	movwf	??___flmul
  5226     0D5C  01FA               	clrf	??___flmul+1
  5227     0D5D  01FB               	clrf	??___flmul+2
  5228     0D5E  01FC               	clrf	??___flmul+3
  5229     0D5F  0879               	movf	??___flmul,w
  5230     0D60  07A9               	addwf	___flmul@grs,f
  5231     0D61  087A               	movf	??___flmul+1,w
  5232     0D62  1103               	clrz
  5233     0D63  1803               	skipnc
  5234     0D64  3E01               	addlw	1
  5235     0D65  1903               	skipnz
  5236     0D66  2D68               	goto	u3981
  5237     0D67  07AA               	addwf	___flmul@grs+1,f
  5238     0D68                     u3981:
  5239     0D68  087B               	movf	??___flmul+2,w
  5240     0D69  1103               	clrz
  5241     0D6A  1803               	skipnc
  5242     0D6B  3E01               	addlw	1
  5243     0D6C  1903               	skipnz
  5244     0D6D  2D6F               	goto	u3982
  5245     0D6E  07AB               	addwf	___flmul@grs+2,f
  5246     0D6F                     u3982:
  5247     0D6F  087C               	movf	??___flmul+3,w
  5248     0D70  1103               	clrz
  5249     0D71  1803               	skipnc
  5250     0D72  3E01               	addlw	1
  5251     0D73  1903               	skipnz
  5252     0D74  2D76               	goto	u3983
  5253     0D75  07AC               	addwf	___flmul@grs+3,f
  5254     0D76                     u3983:
  5255     0D76                     l2542:
  5256     0D76  0834               	movf	___flmul@temp+1,w
  5257     0D77  00F9               	movwf	??___flmul
  5258     0D78  01FA               	clrf	??___flmul+1
  5259     0D79  01FB               	clrf	??___flmul+2
  5260     0D7A  01FC               	clrf	??___flmul+3
  5261     0D7B  0879               	movf	??___flmul,w
  5262     0D7C  07AF               	addwf	___flmul@prod,f
  5263     0D7D  087A               	movf	??___flmul+1,w
  5264     0D7E  1103               	clrz
  5265     0D7F  1803               	skipnc
  5266     0D80  3E01               	addlw	1
  5267     0D81  1903               	skipnz
  5268     0D82  2D84               	goto	u3991
  5269     0D83  07B0               	addwf	___flmul@prod+1,f
  5270     0D84                     u3991:
  5271     0D84  087B               	movf	??___flmul+2,w
  5272     0D85  1103               	clrz
  5273     0D86  1803               	skipnc
  5274     0D87  3E01               	addlw	1
  5275     0D88  1903               	skipnz
  5276     0D89  2D8B               	goto	u3992
  5277     0D8A  07B1               	addwf	___flmul@prod+2,f
  5278     0D8B                     u3992:
  5279     0D8B  087C               	movf	??___flmul+3,w
  5280     0D8C  1103               	clrz
  5281     0D8D  1803               	skipnc
  5282     0D8E  3E01               	addlw	1
  5283     0D8F  1903               	skipnz
  5284     0D90  2D92               	goto	u3993
  5285     0D91  07B2               	addwf	___flmul@prod+3,f
  5286     0D92                     u3993:
  5287     0D92  0822               	movf	___flmul@b+2,w
  5288     0D93  00F0               	movwf	__Umul8_16@multiplicand
  5289     0D94  0824               	movf	___flmul@a,w
  5290     0D95  160A  158A  26BF  120A  158A  	fcall	__Umul8_16
  5291     0D9A  0871               	movf	?__Umul8_16+1,w
  5292     0D9B  1283               	bcf	3,5	;RP0=0, select bank0
  5293     0D9C  1303               	bcf	3,6	;RP1=0, select bank0
  5294     0D9D  00B4               	movwf	___flmul@temp+1
  5295     0D9E  0870               	movf	?__Umul8_16,w
  5296     0D9F  00B3               	movwf	___flmul@temp
  5297     0DA0                     l2544:
  5298     0DA0  0833               	movf	___flmul@temp,w
  5299     0DA1  00F9               	movwf	??___flmul
  5300     0DA2  01FA               	clrf	??___flmul+1
  5301     0DA3  01FB               	clrf	??___flmul+2
  5302     0DA4  01FC               	clrf	??___flmul+3
  5303     0DA5  0879               	movf	??___flmul,w
  5304     0DA6  07A9               	addwf	___flmul@grs,f
  5305     0DA7  087A               	movf	??___flmul+1,w
  5306     0DA8  1103               	clrz
  5307     0DA9  1803               	skipnc
  5308     0DAA  3E01               	addlw	1
  5309     0DAB  1903               	skipnz
  5310     0DAC  2DAE               	goto	u4001
  5311     0DAD  07AA               	addwf	___flmul@grs+1,f
  5312     0DAE                     u4001:
  5313     0DAE  087B               	movf	??___flmul+2,w
  5314     0DAF  1103               	clrz
  5315     0DB0  1803               	skipnc
  5316     0DB1  3E01               	addlw	1
  5317     0DB2  1903               	skipnz
  5318     0DB3  2DB5               	goto	u4002
  5319     0DB4  07AB               	addwf	___flmul@grs+2,f
  5320     0DB5                     u4002:
  5321     0DB5  087C               	movf	??___flmul+3,w
  5322     0DB6  1103               	clrz
  5323     0DB7  1803               	skipnc
  5324     0DB8  3E01               	addlw	1
  5325     0DB9  1903               	skipnz
  5326     0DBA  2DBC               	goto	u4003
  5327     0DBB  07AC               	addwf	___flmul@grs+3,f
  5328     0DBC                     u4003:
  5329     0DBC                     l2546:
  5330     0DBC  0834               	movf	___flmul@temp+1,w
  5331     0DBD  00F9               	movwf	??___flmul
  5332     0DBE  01FA               	clrf	??___flmul+1
  5333     0DBF  01FB               	clrf	??___flmul+2
  5334     0DC0  01FC               	clrf	??___flmul+3
  5335     0DC1  0879               	movf	??___flmul,w
  5336     0DC2  07AF               	addwf	___flmul@prod,f
  5337     0DC3  087A               	movf	??___flmul+1,w
  5338     0DC4  1103               	clrz
  5339     0DC5  1803               	skipnc
  5340     0DC6  3E01               	addlw	1
  5341     0DC7  1903               	skipnz
  5342     0DC8  2DCA               	goto	u4011
  5343     0DC9  07B0               	addwf	___flmul@prod+1,f
  5344     0DCA                     u4011:
  5345     0DCA  087B               	movf	??___flmul+2,w
  5346     0DCB  1103               	clrz
  5347     0DCC  1803               	skipnc
  5348     0DCD  3E01               	addlw	1
  5349     0DCE  1903               	skipnz
  5350     0DCF  2DD1               	goto	u4012
  5351     0DD0  07B1               	addwf	___flmul@prod+2,f
  5352     0DD1                     u4012:
  5353     0DD1  087C               	movf	??___flmul+3,w
  5354     0DD2  1103               	clrz
  5355     0DD3  1803               	skipnc
  5356     0DD4  3E01               	addlw	1
  5357     0DD5  1903               	skipnz
  5358     0DD6  2DD8               	goto	u4013
  5359     0DD7  07B2               	addwf	___flmul@prod+3,f
  5360     0DD8                     u4013:
  5361     0DD8                     l2548:
  5362     0DD8  3008               	movlw	8
  5363     0DD9  00F9               	movwf	??___flmul
  5364     0DDA                     u4025:
  5365     0DDA  1003               	clrc
  5366     0DDB  0DA9               	rlf	___flmul@grs,f
  5367     0DDC  0DAA               	rlf	___flmul@grs+1,f
  5368     0DDD  0DAB               	rlf	___flmul@grs+2,f
  5369     0DDE  0DAC               	rlf	___flmul@grs+3,f
  5370     0DDF  0BF9               	decfsz	??___flmul,f
  5371     0DE0  2DDA               	goto	u4025
  5372     0DE1                     l2550:
  5373     0DE1  0821               	movf	___flmul@b+1,w
  5374     0DE2  00F0               	movwf	__Umul8_16@multiplicand
  5375     0DE3  0824               	movf	___flmul@a,w
  5376     0DE4  160A  158A  26BF  120A  158A  	fcall	__Umul8_16
  5377     0DE9  0871               	movf	?__Umul8_16+1,w
  5378     0DEA  1283               	bcf	3,5	;RP0=0, select bank0
  5379     0DEB  1303               	bcf	3,6	;RP1=0, select bank0
  5380     0DEC  00B4               	movwf	___flmul@temp+1
  5381     0DED  0870               	movf	?__Umul8_16,w
  5382     0DEE  00B3               	movwf	___flmul@temp
  5383     0DEF                     l2552:
  5384     0DEF  0833               	movf	___flmul@temp,w
  5385     0DF0  00F9               	movwf	??___flmul
  5386     0DF1  0834               	movf	___flmul@temp+1,w
  5387     0DF2  00FA               	movwf	??___flmul+1
  5388     0DF3  01FB               	clrf	??___flmul+2
  5389     0DF4  01FC               	clrf	??___flmul+3
  5390     0DF5  0879               	movf	??___flmul,w
  5391     0DF6  07A9               	addwf	___flmul@grs,f
  5392     0DF7  087A               	movf	??___flmul+1,w
  5393     0DF8  1103               	clrz
  5394     0DF9  1803               	skipnc
  5395     0DFA  3E01               	addlw	1
  5396     0DFB  1903               	skipnz
  5397     0DFC  2DFE               	goto	u4031
  5398     0DFD  07AA               	addwf	___flmul@grs+1,f
  5399     0DFE                     u4031:
  5400     0DFE  087B               	movf	??___flmul+2,w
  5401     0DFF  1103               	clrz
  5402     0E00  1803               	skipnc
  5403     0E01  3E01               	addlw	1
  5404     0E02  1903               	skipnz
  5405     0E03  2E05               	goto	u4032
  5406     0E04  07AB               	addwf	___flmul@grs+2,f
  5407     0E05                     u4032:
  5408     0E05  087C               	movf	??___flmul+3,w
  5409     0E06  1103               	clrz
  5410     0E07  1803               	skipnc
  5411     0E08  3E01               	addlw	1
  5412     0E09  1903               	skipnz
  5413     0E0A  2E0C               	goto	u4033
  5414     0E0B  07AC               	addwf	___flmul@grs+3,f
  5415     0E0C                     u4033:
  5416     0E0C                     l2554:
  5417     0E0C  0820               	movf	___flmul@b,w
  5418     0E0D  00F0               	movwf	__Umul8_16@multiplicand
  5419     0E0E  0825               	movf	___flmul@a+1,w
  5420     0E0F  160A  158A  26BF  120A  158A  	fcall	__Umul8_16
  5421     0E14  0871               	movf	?__Umul8_16+1,w
  5422     0E15  1283               	bcf	3,5	;RP0=0, select bank0
  5423     0E16  1303               	bcf	3,6	;RP1=0, select bank0
  5424     0E17  00B4               	movwf	___flmul@temp+1
  5425     0E18  0870               	movf	?__Umul8_16,w
  5426     0E19  00B3               	movwf	___flmul@temp
  5427     0E1A                     l2556:
  5428     0E1A  0833               	movf	___flmul@temp,w
  5429     0E1B  00F9               	movwf	??___flmul
  5430     0E1C  0834               	movf	___flmul@temp+1,w
  5431     0E1D  00FA               	movwf	??___flmul+1
  5432     0E1E  01FB               	clrf	??___flmul+2
  5433     0E1F  01FC               	clrf	??___flmul+3
  5434     0E20  0879               	movf	??___flmul,w
  5435     0E21  07A9               	addwf	___flmul@grs,f
  5436     0E22  087A               	movf	??___flmul+1,w
  5437     0E23  1103               	clrz
  5438     0E24  1803               	skipnc
  5439     0E25  3E01               	addlw	1
  5440     0E26  1903               	skipnz
  5441     0E27  2E29               	goto	u4041
  5442     0E28  07AA               	addwf	___flmul@grs+1,f
  5443     0E29                     u4041:
  5444     0E29  087B               	movf	??___flmul+2,w
  5445     0E2A  1103               	clrz
  5446     0E2B  1803               	skipnc
  5447     0E2C  3E01               	addlw	1
  5448     0E2D  1903               	skipnz
  5449     0E2E  2E30               	goto	u4042
  5450     0E2F  07AB               	addwf	___flmul@grs+2,f
  5451     0E30                     u4042:
  5452     0E30  087C               	movf	??___flmul+3,w
  5453     0E31  1103               	clrz
  5454     0E32  1803               	skipnc
  5455     0E33  3E01               	addlw	1
  5456     0E34  1903               	skipnz
  5457     0E35  2E37               	goto	u4043
  5458     0E36  07AC               	addwf	___flmul@grs+3,f
  5459     0E37                     u4043:
  5460     0E37                     l2558:
  5461     0E37  3008               	movlw	8
  5462     0E38  00F9               	movwf	??___flmul
  5463     0E39                     u4055:
  5464     0E39  1003               	clrc
  5465     0E3A  0DA9               	rlf	___flmul@grs,f
  5466     0E3B  0DAA               	rlf	___flmul@grs+1,f
  5467     0E3C  0DAB               	rlf	___flmul@grs+2,f
  5468     0E3D  0DAC               	rlf	___flmul@grs+3,f
  5469     0E3E  0BF9               	decfsz	??___flmul,f
  5470     0E3F  2E39               	goto	u4055
  5471     0E40  0820               	movf	___flmul@b,w
  5472     0E41  00F0               	movwf	__Umul8_16@multiplicand
  5473     0E42  0824               	movf	___flmul@a,w
  5474     0E43  160A  158A  26BF  120A  158A  	fcall	__Umul8_16
  5475     0E48  0871               	movf	?__Umul8_16+1,w
  5476     0E49  1283               	bcf	3,5	;RP0=0, select bank0
  5477     0E4A  1303               	bcf	3,6	;RP1=0, select bank0
  5478     0E4B  00B4               	movwf	___flmul@temp+1
  5479     0E4C  0870               	movf	?__Umul8_16,w
  5480     0E4D  00B3               	movwf	___flmul@temp
  5481     0E4E                     l2560:
  5482     0E4E  0833               	movf	___flmul@temp,w
  5483     0E4F  00F9               	movwf	??___flmul
  5484     0E50  0834               	movf	___flmul@temp+1,w
  5485     0E51  00FA               	movwf	??___flmul+1
  5486     0E52  01FB               	clrf	??___flmul+2
  5487     0E53  01FC               	clrf	??___flmul+3
  5488     0E54  0879               	movf	??___flmul,w
  5489     0E55  07A9               	addwf	___flmul@grs,f
  5490     0E56  087A               	movf	??___flmul+1,w
  5491     0E57  1103               	clrz
  5492     0E58  1803               	skipnc
  5493     0E59  3E01               	addlw	1
  5494     0E5A  1903               	skipnz
  5495     0E5B  2E5D               	goto	u4061
  5496     0E5C  07AA               	addwf	___flmul@grs+1,f
  5497     0E5D                     u4061:
  5498     0E5D  087B               	movf	??___flmul+2,w
  5499     0E5E  1103               	clrz
  5500     0E5F  1803               	skipnc
  5501     0E60  3E01               	addlw	1
  5502     0E61  1903               	skipnz
  5503     0E62  2E64               	goto	u4062
  5504     0E63  07AB               	addwf	___flmul@grs+2,f
  5505     0E64                     u4062:
  5506     0E64  087C               	movf	??___flmul+3,w
  5507     0E65  1103               	clrz
  5508     0E66  1803               	skipnc
  5509     0E67  3E01               	addlw	1
  5510     0E68  1903               	skipnz
  5511     0E69  2E6B               	goto	u4063
  5512     0E6A  07AC               	addwf	___flmul@grs+3,f
  5513     0E6B                     u4063:
  5514     0E6B                     l2562:
  5515     0E6B  0821               	movf	___flmul@b+1,w
  5516     0E6C  00F0               	movwf	__Umul8_16@multiplicand
  5517     0E6D  0826               	movf	___flmul@a+2,w
  5518     0E6E  160A  158A  26BF  120A  158A  	fcall	__Umul8_16
  5519     0E73  0871               	movf	?__Umul8_16+1,w
  5520     0E74  1283               	bcf	3,5	;RP0=0, select bank0
  5521     0E75  1303               	bcf	3,6	;RP1=0, select bank0
  5522     0E76  00B4               	movwf	___flmul@temp+1
  5523     0E77  0870               	movf	?__Umul8_16,w
  5524     0E78  00B3               	movwf	___flmul@temp
  5525     0E79  0833               	movf	___flmul@temp,w
  5526     0E7A  00F9               	movwf	??___flmul
  5527     0E7B  0834               	movf	___flmul@temp+1,w
  5528     0E7C  00FA               	movwf	??___flmul+1
  5529     0E7D  01FB               	clrf	??___flmul+2
  5530     0E7E  01FC               	clrf	??___flmul+3
  5531     0E7F  0879               	movf	??___flmul,w
  5532     0E80  07AF               	addwf	___flmul@prod,f
  5533     0E81  087A               	movf	??___flmul+1,w
  5534     0E82  1103               	clrz
  5535     0E83  1803               	skipnc
  5536     0E84  3E01               	addlw	1
  5537     0E85  1903               	skipnz
  5538     0E86  2E88               	goto	u4071
  5539     0E87  07B0               	addwf	___flmul@prod+1,f
  5540     0E88                     u4071:
  5541     0E88  087B               	movf	??___flmul+2,w
  5542     0E89  1103               	clrz
  5543     0E8A  1803               	skipnc
  5544     0E8B  3E01               	addlw	1
  5545     0E8C  1903               	skipnz
  5546     0E8D  2E8F               	goto	u4072
  5547     0E8E  07B1               	addwf	___flmul@prod+2,f
  5548     0E8F                     u4072:
  5549     0E8F  087C               	movf	??___flmul+3,w
  5550     0E90  1103               	clrz
  5551     0E91  1803               	skipnc
  5552     0E92  3E01               	addlw	1
  5553     0E93  1903               	skipnz
  5554     0E94  2E96               	goto	u4073
  5555     0E95  07B2               	addwf	___flmul@prod+3,f
  5556     0E96                     u4073:
  5557     0E96                     l2564:
  5558     0E96  0822               	movf	___flmul@b+2,w
  5559     0E97  00F0               	movwf	__Umul8_16@multiplicand
  5560     0E98  0825               	movf	___flmul@a+1,w
  5561     0E99  160A  158A  26BF  120A  158A  	fcall	__Umul8_16
  5562     0E9E  0871               	movf	?__Umul8_16+1,w
  5563     0E9F  1283               	bcf	3,5	;RP0=0, select bank0
  5564     0EA0  1303               	bcf	3,6	;RP1=0, select bank0
  5565     0EA1  00B4               	movwf	___flmul@temp+1
  5566     0EA2  0870               	movf	?__Umul8_16,w
  5567     0EA3  00B3               	movwf	___flmul@temp
  5568     0EA4                     l2566:
  5569     0EA4  0833               	movf	___flmul@temp,w
  5570     0EA5  00F9               	movwf	??___flmul
  5571     0EA6  0834               	movf	___flmul@temp+1,w
  5572     0EA7  00FA               	movwf	??___flmul+1
  5573     0EA8  01FB               	clrf	??___flmul+2
  5574     0EA9  01FC               	clrf	??___flmul+3
  5575     0EAA  0879               	movf	??___flmul,w
  5576     0EAB  07AF               	addwf	___flmul@prod,f
  5577     0EAC  087A               	movf	??___flmul+1,w
  5578     0EAD  1103               	clrz
  5579     0EAE  1803               	skipnc
  5580     0EAF  3E01               	addlw	1
  5581     0EB0  1903               	skipnz
  5582     0EB1  2EB3               	goto	u4081
  5583     0EB2  07B0               	addwf	___flmul@prod+1,f
  5584     0EB3                     u4081:
  5585     0EB3  087B               	movf	??___flmul+2,w
  5586     0EB4  1103               	clrz
  5587     0EB5  1803               	skipnc
  5588     0EB6  3E01               	addlw	1
  5589     0EB7  1903               	skipnz
  5590     0EB8  2EBA               	goto	u4082
  5591     0EB9  07B1               	addwf	___flmul@prod+2,f
  5592     0EBA                     u4082:
  5593     0EBA  087C               	movf	??___flmul+3,w
  5594     0EBB  1103               	clrz
  5595     0EBC  1803               	skipnc
  5596     0EBD  3E01               	addlw	1
  5597     0EBE  1903               	skipnz
  5598     0EBF  2EC1               	goto	u4083
  5599     0EC0  07B2               	addwf	___flmul@prod+3,f
  5600     0EC1                     u4083:
  5601     0EC1  0822               	movf	___flmul@b+2,w
  5602     0EC2  00F0               	movwf	__Umul8_16@multiplicand
  5603     0EC3  0826               	movf	___flmul@a+2,w
  5604     0EC4  160A  158A  26BF  120A  158A  	fcall	__Umul8_16
  5605     0EC9  0871               	movf	?__Umul8_16+1,w
  5606     0ECA  1283               	bcf	3,5	;RP0=0, select bank0
  5607     0ECB  1303               	bcf	3,6	;RP1=0, select bank0
  5608     0ECC  00B4               	movwf	___flmul@temp+1
  5609     0ECD  0870               	movf	?__Umul8_16,w
  5610     0ECE  00B3               	movwf	___flmul@temp
  5611     0ECF                     l2568:
  5612     0ECF  0833               	movf	___flmul@temp,w
  5613     0ED0  00F9               	movwf	??___flmul
  5614     0ED1  0834               	movf	___flmul@temp+1,w
  5615     0ED2  00FA               	movwf	??___flmul+1
  5616     0ED3  01FB               	clrf	??___flmul+2
  5617     0ED4  01FC               	clrf	??___flmul+3
  5618     0ED5  3008               	movlw	8
  5619     0ED6                     u4095:
  5620     0ED6  1003               	clrc
  5621     0ED7  0DF9               	rlf	??___flmul,f
  5622     0ED8  0DFA               	rlf	??___flmul+1,f
  5623     0ED9  0DFB               	rlf	??___flmul+2,f
  5624     0EDA  0DFC               	rlf	??___flmul+3,f
  5625     0EDB                     u4090:
  5626     0EDB  3EFF               	addlw	-1
  5627     0EDC  1D03               	skipz
  5628     0EDD  2ED6               	goto	u4095
  5629     0EDE  0879               	movf	??___flmul,w
  5630     0EDF  07AF               	addwf	___flmul@prod,f
  5631     0EE0  087A               	movf	??___flmul+1,w
  5632     0EE1  1103               	clrz
  5633     0EE2  1803               	skipnc
  5634     0EE3  3E01               	addlw	1
  5635     0EE4  1903               	skipnz
  5636     0EE5  2EE7               	goto	u4101
  5637     0EE6  07B0               	addwf	___flmul@prod+1,f
  5638     0EE7                     u4101:
  5639     0EE7  087B               	movf	??___flmul+2,w
  5640     0EE8  1103               	clrz
  5641     0EE9  1803               	skipnc
  5642     0EEA  3E01               	addlw	1
  5643     0EEB  1903               	skipnz
  5644     0EEC  2EEE               	goto	u4102
  5645     0EED  07B1               	addwf	___flmul@prod+2,f
  5646     0EEE                     u4102:
  5647     0EEE  087C               	movf	??___flmul+3,w
  5648     0EEF  1103               	clrz
  5649     0EF0  1803               	skipnc
  5650     0EF1  3E01               	addlw	1
  5651     0EF2  1903               	skipnz
  5652     0EF3  2EF5               	goto	u4103
  5653     0EF4  07B2               	addwf	___flmul@prod+3,f
  5654     0EF5                     u4103:
  5655     0EF5                     l2570:
  5656     0EF5  0829               	movf	___flmul@grs,w
  5657     0EF6  00F9               	movwf	??___flmul
  5658     0EF7  082A               	movf	___flmul@grs+1,w
  5659     0EF8  00FA               	movwf	??___flmul+1
  5660     0EF9  082B               	movf	___flmul@grs+2,w
  5661     0EFA  00FB               	movwf	??___flmul+2
  5662     0EFB  082C               	movf	___flmul@grs+3,w
  5663     0EFC  00FC               	movwf	??___flmul+3
  5664     0EFD  3018               	movlw	24
  5665     0EFE                     u4115:
  5666     0EFE  1003               	clrc
  5667     0EFF  0CFC               	rrf	??___flmul+3,f
  5668     0F00  0CFB               	rrf	??___flmul+2,f
  5669     0F01  0CFA               	rrf	??___flmul+1,f
  5670     0F02  0CF9               	rrf	??___flmul,f
  5671     0F03                     u4110:
  5672     0F03  3EFF               	addlw	-1
  5673     0F04  1D03               	skipz
  5674     0F05  2EFE               	goto	u4115
  5675     0F06  0879               	movf	??___flmul,w
  5676     0F07  07AF               	addwf	___flmul@prod,f
  5677     0F08  087A               	movf	??___flmul+1,w
  5678     0F09  1103               	clrz
  5679     0F0A  1803               	skipnc
  5680     0F0B  3E01               	addlw	1
  5681     0F0C  1903               	skipnz
  5682     0F0D  2F0F               	goto	u4121
  5683     0F0E  07B0               	addwf	___flmul@prod+1,f
  5684     0F0F                     u4121:
  5685     0F0F  087B               	movf	??___flmul+2,w
  5686     0F10  1103               	clrz
  5687     0F11  1803               	skipnc
  5688     0F12  3E01               	addlw	1
  5689     0F13  1903               	skipnz
  5690     0F14  2F16               	goto	u4122
  5691     0F15  07B1               	addwf	___flmul@prod+2,f
  5692     0F16                     u4122:
  5693     0F16  087C               	movf	??___flmul+3,w
  5694     0F17  1103               	clrz
  5695     0F18  1803               	skipnc
  5696     0F19  3E01               	addlw	1
  5697     0F1A  1903               	skipnz
  5698     0F1B  2F1D               	goto	u4123
  5699     0F1C  07B2               	addwf	___flmul@prod+3,f
  5700     0F1D                     u4123:
  5701     0F1D                     l2572:
  5702     0F1D  3008               	movlw	8
  5703     0F1E  00F9               	movwf	??___flmul
  5704     0F1F                     u4135:
  5705     0F1F  1003               	clrc
  5706     0F20  0DA9               	rlf	___flmul@grs,f
  5707     0F21  0DAA               	rlf	___flmul@grs+1,f
  5708     0F22  0DAB               	rlf	___flmul@grs+2,f
  5709     0F23  0DAC               	rlf	___flmul@grs+3,f
  5710     0F24  0BF9               	decfsz	??___flmul,f
  5711     0F25  2F1F               	goto	u4135
  5712     0F26                     l2574:
  5713     0F26  082E               	movf	___flmul@bexp,w
  5714     0F27  072D               	addwf	___flmul@aexp,w
  5715     0F28  00F9               	movwf	??___flmul
  5716     0F29  01FA               	clrf	??___flmul+1
  5717     0F2A  0DFA               	rlf	??___flmul+1,f
  5718     0F2B  0879               	movf	??___flmul,w
  5719     0F2C  3E82               	addlw	130
  5720     0F2D  00B3               	movwf	___flmul@temp
  5721     0F2E  087A               	movf	??___flmul+1,w
  5722     0F2F  1803               	skipnc
  5723     0F30  3E01               	addlw	1
  5724     0F31  3EFF               	addlw	255
  5725     0F32  00B4               	movwf	___flmul@temp+1
  5726     0F33  2F51               	goto	l2586
  5727     0F34                     l2576:
  5728     0F34  3001               	movlw	1
  5729     0F35  00F9               	movwf	??___flmul
  5730     0F36                     u4145:
  5731     0F36  1003               	clrc
  5732     0F37  0DAF               	rlf	___flmul@prod,f
  5733     0F38  0DB0               	rlf	___flmul@prod+1,f
  5734     0F39  0DB1               	rlf	___flmul@prod+2,f
  5735     0F3A  0DB2               	rlf	___flmul@prod+3,f
  5736     0F3B  0BF9               	decfsz	??___flmul,f
  5737     0F3C  2F36               	goto	u4145
  5738     0F3D                     l2578:
  5739     0F3D  1FAC               	btfss	___flmul@grs+3,7
  5740     0F3E  2F40               	goto	u4151
  5741     0F3F  2F41               	goto	u4150
  5742     0F40                     u4151:
  5743     0F40  2F42               	goto	l2582
  5744     0F41                     u4150:
  5745     0F41                     l2580:
  5746     0F41  142F               	bsf	___flmul@prod,0
  5747     0F42                     l2582:
  5748     0F42  3001               	movlw	1
  5749     0F43  00F9               	movwf	??___flmul
  5750     0F44                     u4165:
  5751     0F44  1003               	clrc
  5752     0F45  0DA9               	rlf	___flmul@grs,f
  5753     0F46  0DAA               	rlf	___flmul@grs+1,f
  5754     0F47  0DAB               	rlf	___flmul@grs+2,f
  5755     0F48  0DAC               	rlf	___flmul@grs+3,f
  5756     0F49  0BF9               	decfsz	??___flmul,f
  5757     0F4A  2F44               	goto	u4165
  5758     0F4B                     l2584:
  5759     0F4B  30FF               	movlw	255
  5760     0F4C  07B3               	addwf	___flmul@temp,f
  5761     0F4D  1803               	skipnc
  5762     0F4E  0AB4               	incf	___flmul@temp+1,f
  5763     0F4F  30FF               	movlw	255
  5764     0F50  07B4               	addwf	___flmul@temp+1,f
  5765     0F51                     l2586:
  5766     0F51  1FB1               	btfss	___flmul@prod+2,7
  5767     0F52  2F54               	goto	u4171
  5768     0F53  2F55               	goto	u4170
  5769     0F54                     u4171:
  5770     0F54  2F34               	goto	l2576
  5771     0F55                     u4170:
  5772     0F55                     l2588:
  5773     0F55  01AD               	clrf	___flmul@aexp
  5774     0F56                     l2590:
  5775     0F56  1FAC               	btfss	___flmul@grs+3,7
  5776     0F57  2F59               	goto	u4181
  5777     0F58  2F5A               	goto	u4180
  5778     0F59                     u4181:
  5779     0F59  2F76               	goto	l2598
  5780     0F5A                     u4180:
  5781     0F5A                     l2592:
  5782     0F5A  30FF               	movlw	255
  5783     0F5B  0529               	andwf	___flmul@grs,w
  5784     0F5C  00F9               	movwf	??___flmul
  5785     0F5D  30FF               	movlw	255
  5786     0F5E  052A               	andwf	___flmul@grs+1,w
  5787     0F5F  00FA               	movwf	??___flmul+1
  5788     0F60  30FF               	movlw	255
  5789     0F61  052B               	andwf	___flmul@grs+2,w
  5790     0F62  00FB               	movwf	??___flmul+2
  5791     0F63  307F               	movlw	127
  5792     0F64  052C               	andwf	___flmul@grs+3,w
  5793     0F65  00FC               	movwf	??___flmul+3
  5794     0F66  087C               	movf	??___flmul+3,w
  5795     0F67  047B               	iorwf	??___flmul+2,w
  5796     0F68  047A               	iorwf	??___flmul+1,w
  5797     0F69  0479               	iorwf	??___flmul,w
  5798     0F6A  1903               	skipnz
  5799     0F6B  2F6D               	goto	u4191
  5800     0F6C  2F6E               	goto	u4190
  5801     0F6D                     u4191:
  5802     0F6D  2F71               	goto	l578
  5803     0F6E                     u4190:
  5804     0F6E                     l2594:
  5805     0F6E  3001               	movlw	1
  5806     0F6F  00AD               	movwf	___flmul@aexp
  5807     0F70  2F76               	goto	l2598
  5808     0F71                     l578:
  5809     0F71  1C2F               	btfss	___flmul@prod,0
  5810     0F72  2F74               	goto	u4201
  5811     0F73  2F75               	goto	u4200
  5812     0F74                     u4201:
  5813     0F74  2F76               	goto	l2598
  5814     0F75                     u4200:
  5815     0F75  2F6E               	goto	l2594
  5816     0F76                     l2598:
  5817     0F76  082D               	movf	___flmul@aexp,w
  5818     0F77  1903               	btfsc	3,2
  5819     0F78  2F7A               	goto	u4211
  5820     0F79  2F7B               	goto	u4210
  5821     0F7A                     u4211:
  5822     0F7A  2FAC               	goto	l2608
  5823     0F7B                     u4210:
  5824     0F7B                     l2600:
  5825     0F7B  3001               	movlw	1
  5826     0F7C  07AF               	addwf	___flmul@prod,f
  5827     0F7D  3000               	movlw	0
  5828     0F7E  1803               	skipnc
  5829     0F7F  3001               	movlw	1
  5830     0F80  07B0               	addwf	___flmul@prod+1,f
  5831     0F81  3000               	movlw	0
  5832     0F82  1803               	skipnc
  5833     0F83  3001               	movlw	1
  5834     0F84  07B1               	addwf	___flmul@prod+2,f
  5835     0F85  3000               	movlw	0
  5836     0F86  1803               	skipnc
  5837     0F87  3001               	movlw	1
  5838     0F88  07B2               	addwf	___flmul@prod+3,f
  5839     0F89                     l2602:
  5840     0F89  1C32               	btfss	___flmul@prod+3,0
  5841     0F8A  2F8C               	goto	u4221
  5842     0F8B  2F8D               	goto	u4220
  5843     0F8C                     u4221:
  5844     0F8C  2FAC               	goto	l2608
  5845     0F8D                     u4220:
  5846     0F8D                     l2604:
  5847     0F8D  082F               	movf	___flmul@prod,w
  5848     0F8E  00F9               	movwf	??___flmul
  5849     0F8F  0830               	movf	___flmul@prod+1,w
  5850     0F90  00FA               	movwf	??___flmul+1
  5851     0F91  0831               	movf	___flmul@prod+2,w
  5852     0F92  00FB               	movwf	??___flmul+2
  5853     0F93  0832               	movf	___flmul@prod+3,w
  5854     0F94  00FC               	movwf	??___flmul+3
  5855     0F95  3001               	movlw	1
  5856     0F96  00FD               	movwf	??___flmul+4
  5857     0F97                     u4235:
  5858     0F97  0D7C               	rlf	??___flmul+3,w
  5859     0F98  0CFC               	rrf	??___flmul+3,f
  5860     0F99  0CFB               	rrf	??___flmul+2,f
  5861     0F9A  0CFA               	rrf	??___flmul+1,f
  5862     0F9B  0CF9               	rrf	??___flmul,f
  5863     0F9C                     u4230:
  5864     0F9C  0BFD               	decfsz	??___flmul+4,f
  5865     0F9D  2F97               	goto	u4235
  5866     0F9E  087C               	movf	??___flmul+3,w
  5867     0F9F  00B2               	movwf	___flmul@prod+3
  5868     0FA0  087B               	movf	??___flmul+2,w
  5869     0FA1  00B1               	movwf	___flmul@prod+2
  5870     0FA2  087A               	movf	??___flmul+1,w
  5871     0FA3  00B0               	movwf	___flmul@prod+1
  5872     0FA4  0879               	movf	??___flmul,w
  5873     0FA5  00AF               	movwf	___flmul@prod
  5874     0FA6                     l2606:
  5875     0FA6  3001               	movlw	1
  5876     0FA7  07B3               	addwf	___flmul@temp,f
  5877     0FA8  1803               	skipnc
  5878     0FA9  0AB4               	incf	___flmul@temp+1,f
  5879     0FAA  3000               	movlw	0
  5880     0FAB  07B4               	addwf	___flmul@temp+1,f
  5881     0FAC                     l2608:
  5882     0FAC  0834               	movf	___flmul@temp+1,w
  5883     0FAD  3A80               	xorlw	128
  5884     0FAE  00FF               	movwf	btemp+1
  5885     0FAF  3080               	movlw	128
  5886     0FB0  027F               	subwf	btemp+1,w
  5887     0FB1  1D03               	skipz
  5888     0FB2  2FB5               	goto	u4245
  5889     0FB3  30FF               	movlw	255
  5890     0FB4  0233               	subwf	___flmul@temp,w
  5891     0FB5                     u4245:
  5892     0FB5  1C03               	skipc
  5893     0FB6  2FB8               	goto	u4241
  5894     0FB7  2FB9               	goto	u4240
  5895     0FB8                     u4241:
  5896     0FB8  2FC4               	goto	l2612
  5897     0FB9                     u4240:
  5898     0FB9                     l2610:
  5899     0FB9  307F               	movlw	127
  5900     0FBA  1283               	bcf	3,5	;RP0=0, select bank0
  5901     0FBB  1303               	bcf	3,6	;RP1=0, select bank0
  5902     0FBC  00B2               	movwf	___flmul@prod+3
  5903     0FBD  3080               	movlw	128
  5904     0FBE  00B1               	movwf	___flmul@prod+2
  5905     0FBF  3000               	movlw	0
  5906     0FC0  00B0               	movwf	___flmul@prod+1
  5907     0FC1  3000               	movlw	0
  5908     0FC2  00AF               	movwf	___flmul@prod
  5909     0FC3  2FF5               	goto	l584
  5910     0FC4                     l2612:
  5911     0FC4  1283               	bcf	3,5	;RP0=0, select bank0
  5912     0FC5  1303               	bcf	3,6	;RP1=0, select bank0
  5913     0FC6  0834               	movf	___flmul@temp+1,w
  5914     0FC7  3A80               	xorlw	128
  5915     0FC8  00FF               	movwf	btemp+1
  5916     0FC9  3080               	movlw	128
  5917     0FCA  027F               	subwf	btemp+1,w
  5918     0FCB  1D03               	skipz
  5919     0FCC  2FCF               	goto	u4255
  5920     0FCD  3001               	movlw	1
  5921     0FCE  0233               	subwf	___flmul@temp,w
  5922     0FCF                     u4255:
  5923     0FCF  1803               	skipnc
  5924     0FD0  2FD2               	goto	u4251
  5925     0FD1  2FD3               	goto	u4250
  5926     0FD2                     u4251:
  5927     0FD2  2FDF               	goto	l2618
  5928     0FD3                     u4250:
  5929     0FD3                     l2614:
  5930     0FD3  3000               	movlw	0
  5931     0FD4  1283               	bcf	3,5	;RP0=0, select bank0
  5932     0FD5  1303               	bcf	3,6	;RP1=0, select bank0
  5933     0FD6  00B2               	movwf	___flmul@prod+3
  5934     0FD7  3000               	movlw	0
  5935     0FD8  00B1               	movwf	___flmul@prod+2
  5936     0FD9  3000               	movlw	0
  5937     0FDA  00B0               	movwf	___flmul@prod+1
  5938     0FDB  3000               	movlw	0
  5939     0FDC  00AF               	movwf	___flmul@prod
  5940     0FDD                     l2616:
  5941     0FDD  01A8               	clrf	___flmul@sign
  5942     0FDE  2FF5               	goto	l584
  5943     0FDF                     l2618:
  5944     0FDF  1283               	bcf	3,5	;RP0=0, select bank0
  5945     0FE0  1303               	bcf	3,6	;RP1=0, select bank0
  5946     0FE1  0833               	movf	___flmul@temp,w
  5947     0FE2  00AE               	movwf	___flmul@bexp
  5948     0FE3  30FF               	movlw	255
  5949     0FE4  05AF               	andwf	___flmul@prod,f
  5950     0FE5  30FF               	movlw	255
  5951     0FE6  05B0               	andwf	___flmul@prod+1,f
  5952     0FE7  307F               	movlw	127
  5953     0FE8  05B1               	andwf	___flmul@prod+2,f
  5954     0FE9  3000               	movlw	0
  5955     0FEA  05B2               	andwf	___flmul@prod+3,f
  5956     0FEB                     l2620:
  5957     0FEB  1C2E               	btfss	___flmul@bexp,0
  5958     0FEC  2FEE               	goto	u4261
  5959     0FED  2FEF               	goto	u4260
  5960     0FEE                     u4261:
  5961     0FEE  2FF0               	goto	l2624
  5962     0FEF                     u4260:
  5963     0FEF                     l2622:
  5964     0FEF  17B1               	bsf	___flmul@prod+2,7
  5965     0FF0                     l2624:
  5966     0FF0  082E               	movf	___flmul@bexp,w
  5967     0FF1  00F9               	movwf	??___flmul
  5968     0FF2  1003               	clrc
  5969     0FF3  0C79               	rrf	??___flmul,w
  5970     0FF4  00B2               	movwf	___flmul@prod+3
  5971     0FF5                     l584:
  5972     0FF5  0828               	movf	___flmul@sign,w
  5973     0FF6  04B2               	iorwf	___flmul@prod+3,f
  5974     0FF7                     l2626:
  5975     0FF7  0832               	movf	___flmul@prod+3,w
  5976     0FF8  00A3               	movwf	?___flmul+3
  5977     0FF9  0831               	movf	___flmul@prod+2,w
  5978     0FFA  00A2               	movwf	?___flmul+2
  5979     0FFB  0830               	movf	___flmul@prod+1,w
  5980     0FFC  00A1               	movwf	?___flmul+1
  5981     0FFD  082F               	movf	___flmul@prod,w
  5982     0FFE  00A0               	movwf	?___flmul
  5983     0FFF                     l572:
  5984     0FFF  0008               	return
  5985     1000                     __end_of___flmul:
  5986                           
  5987                           	psect	text21
  5988     1EBF                     __ptext21:	
  5989 ;; *************** function __Umul8_16 *****************
  5990 ;; Defined at:
  5991 ;;		line 4 in file "C:\Program Files\Microchip\xc8\v3.00\pic\sources\c99\common\Umul8_16.c"
  5992 ;; Parameters:    Size  Location     Type
  5993 ;;  multiplier      1    wreg     unsigned char 
  5994 ;;  multiplicand    1    0[COMMON] unsigned char 
  5995 ;; Auto vars:     Size  Location     Type
  5996 ;;  multiplier      1    8[COMMON] unsigned char 
  5997 ;;  word_mpld       2    6[COMMON] unsigned short 
  5998 ;;  product         2    4[COMMON] unsigned short 
  5999 ;; Return value:  Size  Location     Type
  6000 ;;                  2    0[COMMON] unsigned int 
  6001 ;; Registers used:
  6002 ;;		wreg, status,2, status,0
  6003 ;; Tracked objects:
  6004 ;;		On entry : 0/0
  6005 ;;		On exit  : 0/0
  6006 ;;		Unchanged: 0/0
  6007 ;; Data sizes:     COMMON   BANK0   BANK1   BANK3   BANK2
  6008 ;;      Params:         2       0       0       0       0
  6009 ;;      Locals:         5       0       0       0       0
  6010 ;;      Temps:          2       0       0       0       0
  6011 ;;      Totals:         9       0       0       0       0
  6012 ;;Total ram usage:        9 bytes
  6013 ;; Hardware stack levels used: 1
  6014 ;; This function calls:
  6015 ;;		Nothing
  6016 ;; This function is called by:
  6017 ;;		___flmul
  6018 ;; This function uses a non-reentrant model
  6019 ;;
  6020                           
  6021     1EBF                     __Umul8_16:	
  6022                           ;psect for function __Umul8_16
  6023                           
  6024                           
  6025                           ;incstack = 0
  6026                           ; Regs used in __Umul8_16: [wreg+status,2+status,0]
  6027                           ;__Umul8_16@multiplier stored from wreg
  6028     1EBF  00F8               	movwf	__Umul8_16@multiplier
  6029     1EC0                     l2226:
  6030     1EC0  01F4               	clrf	__Umul8_16@product
  6031     1EC1  01F5               	clrf	__Umul8_16@product+1
  6032     1EC2                     l2228:
  6033     1EC2  0870               	movf	__Umul8_16@multiplicand,w
  6034     1EC3  00F2               	movwf	??__Umul8_16
  6035     1EC4  01F3               	clrf	??__Umul8_16+1
  6036     1EC5  0872               	movf	??__Umul8_16,w
  6037     1EC6  00F6               	movwf	__Umul8_16@word_mpld
  6038     1EC7  0873               	movf	??__Umul8_16+1,w
  6039     1EC8  00F7               	movwf	__Umul8_16@word_mpld+1
  6040     1EC9                     l2230:
  6041     1EC9  1C78               	btfss	__Umul8_16@multiplier,0
  6042     1ECA  2ECC               	goto	u3321
  6043     1ECB  2ECD               	goto	u3320
  6044     1ECC                     u3321:
  6045     1ECC  2ED3               	goto	l591
  6046     1ECD                     u3320:
  6047     1ECD                     l2232:
  6048     1ECD  0876               	movf	__Umul8_16@word_mpld,w
  6049     1ECE  07F4               	addwf	__Umul8_16@product,f
  6050     1ECF  1803               	skipnc
  6051     1ED0  0AF5               	incf	__Umul8_16@product+1,f
  6052     1ED1  0877               	movf	__Umul8_16@word_mpld+1,w
  6053     1ED2  07F5               	addwf	__Umul8_16@product+1,f
  6054     1ED3                     l591:
  6055     1ED3  3001               	movlw	1
  6056     1ED4                     u3335:
  6057     1ED4  1003               	clrc
  6058     1ED5  0DF6               	rlf	__Umul8_16@word_mpld,f
  6059     1ED6  0DF7               	rlf	__Umul8_16@word_mpld+1,f
  6060     1ED7  3EFF               	addlw	-1
  6061     1ED8  1D03               	skipz
  6062     1ED9  2ED4               	goto	u3335
  6063     1EDA  1003               	clrc
  6064     1EDB  0CF8               	rrf	__Umul8_16@multiplier,f
  6065     1EDC                     l2234:
  6066     1EDC  0878               	movf	__Umul8_16@multiplier,w
  6067     1EDD  1D03               	btfss	3,2
  6068     1EDE  2EE0               	goto	u3341
  6069     1EDF  2EE1               	goto	u3340
  6070     1EE0                     u3341:
  6071     1EE0  2EC9               	goto	l2230
  6072     1EE1                     u3340:
  6073     1EE1                     l2236:
  6074     1EE1  0875               	movf	__Umul8_16@product+1,w
  6075     1EE2  00F1               	movwf	?__Umul8_16+1
  6076     1EE3  0874               	movf	__Umul8_16@product,w
  6077     1EE4  00F0               	movwf	?__Umul8_16
  6078     1EE5                     l593:
  6079     1EE5  0008               	return
  6080     1EE6                     __end_of__Umul8_16:
  6081                           
  6082                           	psect	text22
  6083     12AD                     __ptext22:	
  6084 ;; *************** function ___flge *****************
  6085 ;; Defined at:
  6086 ;;		line 4 in file "C:\Program Files\Microchip\xc8\v3.00\pic\sources\c99\common\flge.c"
  6087 ;; Parameters:    Size  Location     Type
  6088 ;;  ff1             4   21[BANK0 ] unsigned int 
  6089 ;;  ff2             4   25[BANK0 ] unsigned int 
  6090 ;; Auto vars:     Size  Location     Type
  6091 ;;		None
  6092 ;; Return value:  Size  Location     Type
  6093 ;;		None               void
  6094 ;; Registers used:
  6095 ;;		wreg, status,2, status,0
  6096 ;; Tracked objects:
  6097 ;;		On entry : 0/0
  6098 ;;		On exit  : 0/0
  6099 ;;		Unchanged: 0/0
  6100 ;; Data sizes:     COMMON   BANK0   BANK1   BANK3   BANK2
  6101 ;;      Params:         0       8       0       0       0
  6102 ;;      Locals:         0       0       0       0       0
  6103 ;;      Temps:          0       4       0       0       0
  6104 ;;      Totals:         0      12       0       0       0
  6105 ;;Total ram usage:       12 bytes
  6106 ;; Hardware stack levels used: 1
  6107 ;; This function calls:
  6108 ;;		Nothing
  6109 ;; This function is called by:
  6110 ;;		_efgtoa
  6111 ;; This function uses a non-reentrant model
  6112 ;;
  6113                           
  6114     12AD                     ___flge:	
  6115                           ;psect for function ___flge
  6116                           
  6117     12AD                     l2274:	
  6118                           ;incstack = 0
  6119                           ; Regs used in ___flge: [wreg+status,2+status,0]
  6120                           
  6121     12AD  3000               	movlw	0
  6122     12AE  1283               	bcf	3,5	;RP0=0, select bank0
  6123     12AF  1303               	bcf	3,6	;RP1=0, select bank0
  6124     12B0  0535               	andwf	___flge@ff1,w
  6125     12B1  00BD               	movwf	??___flge
  6126     12B2  3000               	movlw	0
  6127     12B3  0536               	andwf	___flge@ff1+1,w
  6128     12B4  00BE               	movwf	??___flge+1
  6129     12B5  3080               	movlw	128
  6130     12B6  0537               	andwf	___flge@ff1+2,w
  6131     12B7  00BF               	movwf	??___flge+2
  6132     12B8  307F               	movlw	127
  6133     12B9  0538               	andwf	___flge@ff1+3,w
  6134     12BA  00C0               	movwf	??___flge+3
  6135     12BB  0840               	movf	??___flge+3,w
  6136     12BC  043F               	iorwf	??___flge+2,w
  6137     12BD  043E               	iorwf	??___flge+1,w
  6138     12BE  043D               	iorwf	??___flge,w
  6139     12BF  1D03               	skipz
  6140     12C0  2AC2               	goto	u3431
  6141     12C1  2AC3               	goto	u3430
  6142     12C2                     u3431:
  6143     12C2  2ACB               	goto	l353
  6144     12C3                     u3430:
  6145     12C3                     l2276:
  6146     12C3  3000               	movlw	0
  6147     12C4  00B8               	movwf	___flge@ff1+3
  6148     12C5  3000               	movlw	0
  6149     12C6  00B7               	movwf	___flge@ff1+2
  6150     12C7  3000               	movlw	0
  6151     12C8  00B6               	movwf	___flge@ff1+1
  6152     12C9  3000               	movlw	0
  6153     12CA  00B5               	movwf	___flge@ff1
  6154     12CB                     l353:
  6155     12CB  3000               	movlw	0
  6156     12CC  0539               	andwf	___flge@ff2,w
  6157     12CD  00BD               	movwf	??___flge
  6158     12CE  3000               	movlw	0
  6159     12CF  053A               	andwf	___flge@ff2+1,w
  6160     12D0  00BE               	movwf	??___flge+1
  6161     12D1  3080               	movlw	128
  6162     12D2  053B               	andwf	___flge@ff2+2,w
  6163     12D3  00BF               	movwf	??___flge+2
  6164     12D4  307F               	movlw	127
  6165     12D5  053C               	andwf	___flge@ff2+3,w
  6166     12D6  00C0               	movwf	??___flge+3
  6167     12D7  0840               	movf	??___flge+3,w
  6168     12D8  043F               	iorwf	??___flge+2,w
  6169     12D9  043E               	iorwf	??___flge+1,w
  6170     12DA  043D               	iorwf	??___flge,w
  6171     12DB  1D03               	skipz
  6172     12DC  2ADE               	goto	u3441
  6173     12DD  2ADF               	goto	u3440
  6174     12DE                     u3441:
  6175     12DE  2AE7               	goto	l2280
  6176     12DF                     u3440:
  6177     12DF                     l2278:
  6178     12DF  3000               	movlw	0
  6179     12E0  00BC               	movwf	___flge@ff2+3
  6180     12E1  3000               	movlw	0
  6181     12E2  00BB               	movwf	___flge@ff2+2
  6182     12E3  3000               	movlw	0
  6183     12E4  00BA               	movwf	___flge@ff2+1
  6184     12E5  3000               	movlw	0
  6185     12E6  00B9               	movwf	___flge@ff2
  6186     12E7                     l2280:
  6187     12E7  1FB8               	btfss	___flge@ff1+3,7
  6188     12E8  2AEA               	goto	u3451
  6189     12E9  2AEB               	goto	u3450
  6190     12EA                     u3451:
  6191     12EA  2B0F               	goto	l2284
  6192     12EB                     u3450:
  6193     12EB                     l2282:
  6194     12EB  3000               	movlw	0
  6195     12EC  00BD               	movwf	??___flge
  6196     12ED  3000               	movlw	0
  6197     12EE  00BE               	movwf	??___flge+1
  6198     12EF  3000               	movlw	0
  6199     12F0  00BF               	movwf	??___flge+2
  6200     12F1  3080               	movlw	128
  6201     12F2  00C0               	movwf	??___flge+3
  6202     12F3  0835               	movf	___flge@ff1,w
  6203     12F4  02BD               	subwf	??___flge,f
  6204     12F5  0836               	movf	___flge@ff1+1,w
  6205     12F6  1C03               	skipc
  6206     12F7  0F36               	incfsz	___flge@ff1+1,w
  6207     12F8  2AFA               	goto	u3461
  6208     12F9  2AFB               	goto	u3462
  6209     12FA                     u3461:
  6210     12FA  02BE               	subwf	??___flge+1,f
  6211     12FB                     u3462:
  6212     12FB  0837               	movf	___flge@ff1+2,w
  6213     12FC  1C03               	skipc
  6214     12FD  0F37               	incfsz	___flge@ff1+2,w
  6215     12FE  2B00               	goto	u3463
  6216     12FF  2B01               	goto	u3464
  6217     1300                     u3463:
  6218     1300  02BF               	subwf	??___flge+2,f
  6219     1301                     u3464:
  6220     1301  0838               	movf	___flge@ff1+3,w
  6221     1302  1C03               	skipc
  6222     1303  0F38               	incfsz	___flge@ff1+3,w
  6223     1304  2B06               	goto	u3465
  6224     1305  2B07               	goto	u3466
  6225     1306                     u3465:
  6226     1306  02C0               	subwf	??___flge+3,f
  6227     1307                     u3466:
  6228     1307  0840               	movf	??___flge+3,w
  6229     1308  00B8               	movwf	___flge@ff1+3
  6230     1309  083F               	movf	??___flge+2,w
  6231     130A  00B7               	movwf	___flge@ff1+2
  6232     130B  083E               	movf	??___flge+1,w
  6233     130C  00B6               	movwf	___flge@ff1+1
  6234     130D  083D               	movf	??___flge,w
  6235     130E  00B5               	movwf	___flge@ff1
  6236     130F                     l2284:
  6237     130F  1FBC               	btfss	___flge@ff2+3,7
  6238     1310  2B12               	goto	u3471
  6239     1311  2B13               	goto	u3470
  6240     1312                     u3471:
  6241     1312  2B37               	goto	l356
  6242     1313                     u3470:
  6243     1313                     l2286:
  6244     1313  3000               	movlw	0
  6245     1314  00BD               	movwf	??___flge
  6246     1315  3000               	movlw	0
  6247     1316  00BE               	movwf	??___flge+1
  6248     1317  3000               	movlw	0
  6249     1318  00BF               	movwf	??___flge+2
  6250     1319  3080               	movlw	128
  6251     131A  00C0               	movwf	??___flge+3
  6252     131B  0839               	movf	___flge@ff2,w
  6253     131C  02BD               	subwf	??___flge,f
  6254     131D  083A               	movf	___flge@ff2+1,w
  6255     131E  1C03               	skipc
  6256     131F  0F3A               	incfsz	___flge@ff2+1,w
  6257     1320  2B22               	goto	u3481
  6258     1321  2B23               	goto	u3482
  6259     1322                     u3481:
  6260     1322  02BE               	subwf	??___flge+1,f
  6261     1323                     u3482:
  6262     1323  083B               	movf	___flge@ff2+2,w
  6263     1324  1C03               	skipc
  6264     1325  0F3B               	incfsz	___flge@ff2+2,w
  6265     1326  2B28               	goto	u3483
  6266     1327  2B29               	goto	u3484
  6267     1328                     u3483:
  6268     1328  02BF               	subwf	??___flge+2,f
  6269     1329                     u3484:
  6270     1329  083C               	movf	___flge@ff2+3,w
  6271     132A  1C03               	skipc
  6272     132B  0F3C               	incfsz	___flge@ff2+3,w
  6273     132C  2B2E               	goto	u3485
  6274     132D  2B2F               	goto	u3486
  6275     132E                     u3485:
  6276     132E  02C0               	subwf	??___flge+3,f
  6277     132F                     u3486:
  6278     132F  0840               	movf	??___flge+3,w
  6279     1330  00BC               	movwf	___flge@ff2+3
  6280     1331  083F               	movf	??___flge+2,w
  6281     1332  00BB               	movwf	___flge@ff2+2
  6282     1333  083E               	movf	??___flge+1,w
  6283     1334  00BA               	movwf	___flge@ff2+1
  6284     1335  083D               	movf	??___flge,w
  6285     1336  00B9               	movwf	___flge@ff2
  6286     1337                     l356:
  6287     1337  3080               	movlw	128
  6288     1338  06B8               	xorwf	___flge@ff1+3,f
  6289     1339  3080               	movlw	128
  6290     133A  06BC               	xorwf	___flge@ff2+3,f
  6291     133B  083C               	movf	___flge@ff2+3,w
  6292     133C  0238               	subwf	___flge@ff1+3,w
  6293     133D  1D03               	skipz
  6294     133E  2B49               	goto	u3495
  6295     133F  083B               	movf	___flge@ff2+2,w
  6296     1340  0237               	subwf	___flge@ff1+2,w
  6297     1341  1D03               	skipz
  6298     1342  2B49               	goto	u3495
  6299     1343  083A               	movf	___flge@ff2+1,w
  6300     1344  0236               	subwf	___flge@ff1+1,w
  6301     1345  1D03               	skipz
  6302     1346  2B49               	goto	u3495
  6303     1347  0839               	movf	___flge@ff2,w
  6304     1348  0235               	subwf	___flge@ff1,w
  6305     1349                     u3495:
  6306     1349  1803               	skipnc
  6307     134A  2B4C               	goto	u3491
  6308     134B  2B4D               	goto	u3490
  6309     134C                     u3491:
  6310     134C  2B4F               	goto	l2290
  6311     134D                     u3490:
  6312     134D                     l2288:
  6313     134D  1003               	clrc
  6314     134E  2B50               	goto	l361
  6315     134F                     l2290:
  6316     134F  1403               	setc
  6317     1350                     l361:
  6318     1350  0008               	return
  6319     1351                     __end_of___flge:
  6320                           
  6321                           	psect	text23
  6322     1FB2                     __ptext23:	
  6323 ;; *************** function ___fleq *****************
  6324 ;; Defined at:
  6325 ;;		line 4 in file "C:\Program Files\Microchip\xc8\v3.00\pic\sources\c99\common\fleq.c"
  6326 ;; Parameters:    Size  Location     Type
  6327 ;;  ff1             4    0[COMMON] unsigned int 
  6328 ;;  ff2             4    4[COMMON] unsigned int 
  6329 ;; Auto vars:     Size  Location     Type
  6330 ;;		None
  6331 ;; Return value:  Size  Location     Type
  6332 ;;		None               void
  6333 ;; Registers used:
  6334 ;;		wreg, status,2, status,0
  6335 ;; Tracked objects:
  6336 ;;		On entry : 0/0
  6337 ;;		On exit  : 0/0
  6338 ;;		Unchanged: 0/0
  6339 ;; Data sizes:     COMMON   BANK0   BANK1   BANK3   BANK2
  6340 ;;      Params:         8       0       0       0       0
  6341 ;;      Locals:         0       0       0       0       0
  6342 ;;      Temps:          4       0       0       0       0
  6343 ;;      Totals:        12       0       0       0       0
  6344 ;;Total ram usage:       12 bytes
  6345 ;; Hardware stack levels used: 1
  6346 ;; This function calls:
  6347 ;;		Nothing
  6348 ;; This function is called by:
  6349 ;;		_efgtoa
  6350 ;; This function uses a non-reentrant model
  6351 ;;
  6352                           
  6353     1FB2                     ___fleq:	
  6354                           ;psect for function ___fleq
  6355                           
  6356     1FB2                     l2262:	
  6357                           ;incstack = 0
  6358                           ; Regs used in ___fleq: [wreg+status,2+status,0]
  6359                           
  6360     1FB2  3000               	movlw	0
  6361     1FB3  0570               	andwf	___fleq@ff1,w
  6362     1FB4  00F8               	movwf	??___fleq
  6363     1FB5  3000               	movlw	0
  6364     1FB6  0571               	andwf	___fleq@ff1+1,w
  6365     1FB7  00F9               	movwf	??___fleq+1
  6366     1FB8  3080               	movlw	128
  6367     1FB9  0572               	andwf	___fleq@ff1+2,w
  6368     1FBA  00FA               	movwf	??___fleq+2
  6369     1FBB  307F               	movlw	127
  6370     1FBC  0573               	andwf	___fleq@ff1+3,w
  6371     1FBD  00FB               	movwf	??___fleq+3
  6372     1FBE  087B               	movf	??___fleq+3,w
  6373     1FBF  047A               	iorwf	??___fleq+2,w
  6374     1FC0  0479               	iorwf	??___fleq+1,w
  6375     1FC1  0478               	iorwf	??___fleq,w
  6376     1FC2  1D03               	skipz
  6377     1FC3  2FC5               	goto	u3401
  6378     1FC4  2FC6               	goto	u3400
  6379     1FC5                     u3401:
  6380     1FC5  2FCE               	goto	l344
  6381     1FC6                     u3400:
  6382     1FC6                     l2264:
  6383     1FC6  3000               	movlw	0
  6384     1FC7  00F3               	movwf	___fleq@ff1+3
  6385     1FC8  3000               	movlw	0
  6386     1FC9  00F2               	movwf	___fleq@ff1+2
  6387     1FCA  3000               	movlw	0
  6388     1FCB  00F1               	movwf	___fleq@ff1+1
  6389     1FCC  3000               	movlw	0
  6390     1FCD  00F0               	movwf	___fleq@ff1
  6391     1FCE                     l344:
  6392     1FCE  3000               	movlw	0
  6393     1FCF  0574               	andwf	___fleq@ff2,w
  6394     1FD0  00F8               	movwf	??___fleq
  6395     1FD1  3000               	movlw	0
  6396     1FD2  0575               	andwf	___fleq@ff2+1,w
  6397     1FD3  00F9               	movwf	??___fleq+1
  6398     1FD4  3080               	movlw	128
  6399     1FD5  0576               	andwf	___fleq@ff2+2,w
  6400     1FD6  00FA               	movwf	??___fleq+2
  6401     1FD7  307F               	movlw	127
  6402     1FD8  0577               	andwf	___fleq@ff2+3,w
  6403     1FD9  00FB               	movwf	??___fleq+3
  6404     1FDA  087B               	movf	??___fleq+3,w
  6405     1FDB  047A               	iorwf	??___fleq+2,w
  6406     1FDC  0479               	iorwf	??___fleq+1,w
  6407     1FDD  0478               	iorwf	??___fleq,w
  6408     1FDE  1D03               	skipz
  6409     1FDF  2FE1               	goto	u3411
  6410     1FE0  2FE2               	goto	u3410
  6411     1FE1                     u3411:
  6412     1FE1  2FEA               	goto	l345
  6413     1FE2                     u3410:
  6414     1FE2                     l2266:
  6415     1FE2  3000               	movlw	0
  6416     1FE3  00F7               	movwf	___fleq@ff2+3
  6417     1FE4  3000               	movlw	0
  6418     1FE5  00F6               	movwf	___fleq@ff2+2
  6419     1FE6  3000               	movlw	0
  6420     1FE7  00F5               	movwf	___fleq@ff2+1
  6421     1FE8  3000               	movlw	0
  6422     1FE9  00F4               	movwf	___fleq@ff2
  6423     1FEA                     l345:
  6424     1FEA  0877               	movf	___fleq@ff2+3,w
  6425     1FEB  0673               	xorwf	___fleq@ff1+3,w
  6426     1FEC  1D03               	skipz
  6427     1FED  2FF8               	goto	u3425
  6428     1FEE  0876               	movf	___fleq@ff2+2,w
  6429     1FEF  0672               	xorwf	___fleq@ff1+2,w
  6430     1FF0  1D03               	skipz
  6431     1FF1  2FF8               	goto	u3425
  6432     1FF2  0875               	movf	___fleq@ff2+1,w
  6433     1FF3  0671               	xorwf	___fleq@ff1+1,w
  6434     1FF4  1D03               	skipz
  6435     1FF5  2FF8               	goto	u3425
  6436     1FF6  0874               	movf	___fleq@ff2,w
  6437     1FF7  0670               	xorwf	___fleq@ff1,w
  6438     1FF8                     u3425:
  6439     1FF8  1903               	skipnz
  6440     1FF9  2FFB               	goto	u3421
  6441     1FFA  2FFC               	goto	u3420
  6442     1FFB                     u3421:
  6443     1FFB  2FFE               	goto	l2270
  6444     1FFC                     u3420:
  6445     1FFC                     l2268:
  6446     1FFC  1003               	clrc
  6447     1FFD  2FFF               	goto	l350
  6448     1FFE                     l2270:
  6449     1FFE  1403               	setc
  6450     1FFF                     l350:
  6451     1FFF  0008               	return
  6452     2000                     __end_of___fleq:
  6453                           
  6454                           	psect	text24
  6455     0898                     __ptext24:	
  6456 ;; *************** function ___fldiv *****************
  6457 ;; Defined at:
  6458 ;;		line 8 in file "C:\Program Files\Microchip\xc8\v3.00\pic\sources\c99\common\sprcdiv.c"
  6459 ;; Parameters:    Size  Location     Type
  6460 ;;  a               4    0[BANK0 ] unsigned int 
  6461 ;;  b               4    4[BANK0 ] unsigned int 
  6462 ;; Auto vars:     Size  Location     Type
  6463 ;;  grs             4   20[BANK0 ] unsigned long 
  6464 ;;  rem             4   13[BANK0 ] unsigned long 
  6465 ;;  new_exp         2   18[BANK0 ] short 
  6466 ;;  aexp            1   25[BANK0 ] unsigned char 
  6467 ;;  bexp            1   24[BANK0 ] unsigned char 
  6468 ;;  sign            1   17[BANK0 ] unsigned char 
  6469 ;; Return value:  Size  Location     Type
  6470 ;;                  4    0[BANK0 ] unsigned char 
  6471 ;; Registers used:
  6472 ;;		wreg, status,2, status,0, btemp+1
  6473 ;; Tracked objects:
  6474 ;;		On entry : 0/0
  6475 ;;		On exit  : 0/0
  6476 ;;		Unchanged: 0/0
  6477 ;; Data sizes:     COMMON   BANK0   BANK1   BANK3   BANK2
  6478 ;;      Params:         0       8       0       0       0
  6479 ;;      Locals:         0      13       0       0       0
  6480 ;;      Temps:          0       5       0       0       0
  6481 ;;      Totals:         0      26       0       0       0
  6482 ;;Total ram usage:       26 bytes
  6483 ;; Hardware stack levels used: 1
  6484 ;; This function calls:
  6485 ;;		Nothing
  6486 ;; This function is called by:
  6487 ;;		_main
  6488 ;;		_efgtoa
  6489 ;; This function uses a non-reentrant model
  6490 ;;
  6491                           
  6492     0898                     ___fldiv:	
  6493                           ;psect for function ___fldiv
  6494                           
  6495     0898                     l2344:	
  6496                           ;incstack = 0
  6497                           ; Regs used in ___fldiv: [wreg+status,2+status,0+btemp+1]
  6498                           
  6499     0898  1283               	bcf	3,5	;RP0=0, select bank0
  6500     0899  1303               	bcf	3,6	;RP1=0, select bank0
  6501     089A  0827               	movf	___fldiv@b+3,w
  6502     089B  00B1               	movwf	___fldiv@sign
  6503     089C                     l2346:
  6504     089C  3080               	movlw	128
  6505     089D  05B1               	andwf	___fldiv@sign,f
  6506     089E                     l2348:
  6507     089E  0827               	movf	___fldiv@b+3,w
  6508     089F  00A8               	movwf	??___fldiv
  6509     08A0  0728               	addwf	??___fldiv,w
  6510     08A1  00B8               	movwf	___fldiv@bexp
  6511     08A2                     l2350:
  6512     08A2  1FA6               	btfss	___fldiv@b+2,7
  6513     08A3  28A5               	goto	u3611
  6514     08A4  28A6               	goto	u3610
  6515     08A5                     u3611:
  6516     08A5  28A7               	goto	l2354
  6517     08A6                     u3610:
  6518     08A6                     l2352:
  6519     08A6  1438               	bsf	___fldiv@bexp,0
  6520     08A7                     l2354:
  6521     08A7  0838               	movf	___fldiv@bexp,w
  6522     08A8  1903               	btfsc	3,2
  6523     08A9  28AB               	goto	u3621
  6524     08AA  28AC               	goto	u3620
  6525     08AB                     u3621:
  6526     08AB  28BC               	goto	l2364
  6527     08AC                     u3620:
  6528     08AC                     l2356:
  6529     08AC  0A38               	incf	___fldiv@bexp,w
  6530     08AD  1D03               	btfss	3,2
  6531     08AE  28B0               	goto	u3631
  6532     08AF  28B1               	goto	u3630
  6533     08B0                     u3631:
  6534     08B0  28B9               	goto	l2360
  6535     08B1                     u3630:
  6536     08B1                     l2358:
  6537     08B1  3000               	movlw	0
  6538     08B2  00A7               	movwf	___fldiv@b+3
  6539     08B3  3000               	movlw	0
  6540     08B4  00A6               	movwf	___fldiv@b+2
  6541     08B5  3000               	movlw	0
  6542     08B6  00A5               	movwf	___fldiv@b+1
  6543     08B7  3000               	movlw	0
  6544     08B8  00A4               	movwf	___fldiv@b
  6545     08B9                     l2360:
  6546     08B9  17A6               	bsf	___fldiv@b+2,7
  6547     08BA                     l2362:
  6548     08BA  01A7               	clrf	___fldiv@b+3
  6549     08BB  28C4               	goto	l2366
  6550     08BC                     l2364:
  6551     08BC  3000               	movlw	0
  6552     08BD  00A7               	movwf	___fldiv@b+3
  6553     08BE  3000               	movlw	0
  6554     08BF  00A6               	movwf	___fldiv@b+2
  6555     08C0  3000               	movlw	0
  6556     08C1  00A5               	movwf	___fldiv@b+1
  6557     08C2  3000               	movlw	0
  6558     08C3  00A4               	movwf	___fldiv@b
  6559     08C4                     l2366:
  6560     08C4  0823               	movf	___fldiv@a+3,w
  6561     08C5  3980               	andlw	128
  6562     08C6  06B1               	xorwf	___fldiv@sign,f
  6563     08C7                     l2368:
  6564     08C7  0823               	movf	___fldiv@a+3,w
  6565     08C8  00A8               	movwf	??___fldiv
  6566     08C9  0728               	addwf	??___fldiv,w
  6567     08CA  00B9               	movwf	___fldiv@aexp
  6568     08CB                     l2370:
  6569     08CB  1FA2               	btfss	___fldiv@a+2,7
  6570     08CC  28CE               	goto	u3641
  6571     08CD  28CF               	goto	u3640
  6572     08CE                     u3641:
  6573     08CE  28D0               	goto	l2374
  6574     08CF                     u3640:
  6575     08CF                     l2372:
  6576     08CF  1439               	bsf	___fldiv@aexp,0
  6577     08D0                     l2374:
  6578     08D0  0839               	movf	___fldiv@aexp,w
  6579     08D1  1903               	btfsc	3,2
  6580     08D2  28D4               	goto	u3651
  6581     08D3  28D5               	goto	u3650
  6582     08D4                     u3651:
  6583     08D4  28E5               	goto	l2384
  6584     08D5                     u3650:
  6585     08D5                     l2376:
  6586     08D5  0A39               	incf	___fldiv@aexp,w
  6587     08D6  1D03               	btfss	3,2
  6588     08D7  28D9               	goto	u3661
  6589     08D8  28DA               	goto	u3660
  6590     08D9                     u3661:
  6591     08D9  28E2               	goto	l2380
  6592     08DA                     u3660:
  6593     08DA                     l2378:
  6594     08DA  3000               	movlw	0
  6595     08DB  00A3               	movwf	___fldiv@a+3
  6596     08DC  3000               	movlw	0
  6597     08DD  00A2               	movwf	___fldiv@a+2
  6598     08DE  3000               	movlw	0
  6599     08DF  00A1               	movwf	___fldiv@a+1
  6600     08E0  3000               	movlw	0
  6601     08E1  00A0               	movwf	___fldiv@a
  6602     08E2                     l2380:
  6603     08E2  17A2               	bsf	___fldiv@a+2,7
  6604     08E3                     l2382:
  6605     08E3  01A3               	clrf	___fldiv@a+3
  6606     08E4  28ED               	goto	l532
  6607     08E5                     l2384:
  6608     08E5  3000               	movlw	0
  6609     08E6  00A3               	movwf	___fldiv@a+3
  6610     08E7  3000               	movlw	0
  6611     08E8  00A2               	movwf	___fldiv@a+2
  6612     08E9  3000               	movlw	0
  6613     08EA  00A1               	movwf	___fldiv@a+1
  6614     08EB  3000               	movlw	0
  6615     08EC  00A0               	movwf	___fldiv@a
  6616     08ED                     l532:
  6617     08ED  0823               	movf	___fldiv@a+3,w
  6618     08EE  0422               	iorwf	___fldiv@a+2,w
  6619     08EF  0421               	iorwf	___fldiv@a+1,w
  6620     08F0  0420               	iorwf	___fldiv@a,w
  6621     08F1  1D03               	skipz
  6622     08F2  28F4               	goto	u3671
  6623     08F3  28F5               	goto	u3670
  6624     08F4                     u3671:
  6625     08F4  290C               	goto	l2394
  6626     08F5                     u3670:
  6627     08F5                     l2386:
  6628     08F5  3000               	movlw	0
  6629     08F6  00A7               	movwf	___fldiv@b+3
  6630     08F7  3000               	movlw	0
  6631     08F8  00A6               	movwf	___fldiv@b+2
  6632     08F9  3000               	movlw	0
  6633     08FA  00A5               	movwf	___fldiv@b+1
  6634     08FB  3000               	movlw	0
  6635     08FC  00A4               	movwf	___fldiv@b
  6636     08FD  3080               	movlw	128
  6637     08FE  04A6               	iorwf	___fldiv@b+2,f
  6638     08FF  307F               	movlw	127
  6639     0900  04A7               	iorwf	___fldiv@b+3,f
  6640     0901                     l2388:
  6641     0901  0831               	movf	___fldiv@sign,w
  6642     0902  04A7               	iorwf	___fldiv@b+3,f
  6643     0903                     l2390:
  6644     0903  0827               	movf	___fldiv@b+3,w
  6645     0904  00A3               	movwf	?___fldiv+3
  6646     0905  0826               	movf	___fldiv@b+2,w
  6647     0906  00A2               	movwf	?___fldiv+2
  6648     0907  0825               	movf	___fldiv@b+1,w
  6649     0908  00A1               	movwf	?___fldiv+1
  6650     0909  0824               	movf	___fldiv@b,w
  6651     090A  00A0               	movwf	?___fldiv
  6652     090B  2A61               	goto	l534
  6653     090C                     l2394:
  6654     090C  0838               	movf	___fldiv@bexp,w
  6655     090D  1D03               	btfss	3,2
  6656     090E  2910               	goto	u3681
  6657     090F  2911               	goto	u3680
  6658     0910                     u3681:
  6659     0910  291A               	goto	l2400
  6660     0911                     u3680:
  6661     0911                     l2396:
  6662     0911  3000               	movlw	0
  6663     0912  00A3               	movwf	?___fldiv+3
  6664     0913  3000               	movlw	0
  6665     0914  00A2               	movwf	?___fldiv+2
  6666     0915  3000               	movlw	0
  6667     0916  00A1               	movwf	?___fldiv+1
  6668     0917  3000               	movlw	0
  6669     0918  00A0               	movwf	?___fldiv
  6670     0919  2A61               	goto	l534
  6671     091A                     l2400:
  6672     091A  0838               	movf	___fldiv@bexp,w
  6673     091B  00A8               	movwf	??___fldiv
  6674     091C  01A9               	clrf	??___fldiv+1
  6675     091D  0829               	movf	??___fldiv+1,w
  6676     091E  00AB               	movwf	??___fldiv+3
  6677     091F  0839               	movf	___fldiv@aexp,w
  6678     0920  0228               	subwf	??___fldiv,w
  6679     0921  00AA               	movwf	??___fldiv+2
  6680     0922  1C03               	skipc
  6681     0923  03AB               	decf	??___fldiv+3,f
  6682     0924  082A               	movf	??___fldiv+2,w
  6683     0925  3E7F               	addlw	127
  6684     0926  00B2               	movwf	___fldiv@new_exp
  6685     0927  082B               	movf	??___fldiv+3,w
  6686     0928  1803               	skipnc
  6687     0929  3E01               	addlw	1
  6688     092A  3E00               	addlw	0
  6689     092B  00B3               	movwf	___fldiv@new_exp+1
  6690     092C                     l2402:
  6691     092C  0827               	movf	___fldiv@b+3,w
  6692     092D  00B0               	movwf	___fldiv@rem+3
  6693     092E  0826               	movf	___fldiv@b+2,w
  6694     092F  00AF               	movwf	___fldiv@rem+2
  6695     0930  0825               	movf	___fldiv@b+1,w
  6696     0931  00AE               	movwf	___fldiv@rem+1
  6697     0932  0824               	movf	___fldiv@b,w
  6698     0933  00AD               	movwf	___fldiv@rem
  6699     0934                     l2404:
  6700     0934  3000               	movlw	0
  6701     0935  00A7               	movwf	___fldiv@b+3
  6702     0936  3000               	movlw	0
  6703     0937  00A6               	movwf	___fldiv@b+2
  6704     0938  3000               	movlw	0
  6705     0939  00A5               	movwf	___fldiv@b+1
  6706     093A  3000               	movlw	0
  6707     093B  00A4               	movwf	___fldiv@b
  6708     093C                     l2406:
  6709     093C  3000               	movlw	0
  6710     093D  00B7               	movwf	___fldiv@grs+3
  6711     093E  3000               	movlw	0
  6712     093F  00B6               	movwf	___fldiv@grs+2
  6713     0940  3000               	movlw	0
  6714     0941  00B5               	movwf	___fldiv@grs+1
  6715     0942  3000               	movlw	0
  6716     0943  00B4               	movwf	___fldiv@grs
  6717     0944                     l2408:
  6718     0944  01B9               	clrf	___fldiv@aexp
  6719     0945  298E               	goto	l2428
  6720     0946                     l2410:
  6721     0946  0839               	movf	___fldiv@aexp,w
  6722     0947  1903               	btfsc	3,2
  6723     0948  294A               	goto	u3691
  6724     0949  294B               	goto	u3690
  6725     094A                     u3691:
  6726     094A  296B               	goto	l2420
  6727     094B                     u3690:
  6728     094B                     l2412:
  6729     094B  3001               	movlw	1
  6730     094C  00A8               	movwf	??___fldiv
  6731     094D                     u3705:
  6732     094D  1003               	clrc
  6733     094E  0DAD               	rlf	___fldiv@rem,f
  6734     094F  0DAE               	rlf	___fldiv@rem+1,f
  6735     0950  0DAF               	rlf	___fldiv@rem+2,f
  6736     0951  0DB0               	rlf	___fldiv@rem+3,f
  6737     0952  0BA8               	decfsz	??___fldiv,f
  6738     0953  294D               	goto	u3705
  6739     0954  3001               	movlw	1
  6740     0955  00A8               	movwf	??___fldiv
  6741     0956                     u3715:
  6742     0956  1003               	clrc
  6743     0957  0DA4               	rlf	___fldiv@b,f
  6744     0958  0DA5               	rlf	___fldiv@b+1,f
  6745     0959  0DA6               	rlf	___fldiv@b+2,f
  6746     095A  0DA7               	rlf	___fldiv@b+3,f
  6747     095B  0BA8               	decfsz	??___fldiv,f
  6748     095C  2956               	goto	u3715
  6749     095D                     l2414:
  6750     095D  1FB7               	btfss	___fldiv@grs+3,7
  6751     095E  2960               	goto	u3721
  6752     095F  2961               	goto	u3720
  6753     0960                     u3721:
  6754     0960  2962               	goto	l2418
  6755     0961                     u3720:
  6756     0961                     l2416:
  6757     0961  1424               	bsf	___fldiv@b,0
  6758     0962                     l2418:
  6759     0962  3001               	movlw	1
  6760     0963  00A8               	movwf	??___fldiv
  6761     0964                     u3735:
  6762     0964  1003               	clrc
  6763     0965  0DB4               	rlf	___fldiv@grs,f
  6764     0966  0DB5               	rlf	___fldiv@grs+1,f
  6765     0967  0DB6               	rlf	___fldiv@grs+2,f
  6766     0968  0DB7               	rlf	___fldiv@grs+3,f
  6767     0969  0BA8               	decfsz	??___fldiv,f
  6768     096A  2964               	goto	u3735
  6769     096B                     l2420:
  6770     096B  0823               	movf	___fldiv@a+3,w
  6771     096C  0230               	subwf	___fldiv@rem+3,w
  6772     096D  1D03               	skipz
  6773     096E  2979               	goto	u3745
  6774     096F  0822               	movf	___fldiv@a+2,w
  6775     0970  022F               	subwf	___fldiv@rem+2,w
  6776     0971  1D03               	skipz
  6777     0972  2979               	goto	u3745
  6778     0973  0821               	movf	___fldiv@a+1,w
  6779     0974  022E               	subwf	___fldiv@rem+1,w
  6780     0975  1D03               	skipz
  6781     0976  2979               	goto	u3745
  6782     0977  0820               	movf	___fldiv@a,w
  6783     0978  022D               	subwf	___fldiv@rem,w
  6784     0979                     u3745:
  6785     0979  1C03               	skipc
  6786     097A  297C               	goto	u3741
  6787     097B  297D               	goto	u3740
  6788     097C                     u3741:
  6789     097C  298C               	goto	l2426
  6790     097D                     u3740:
  6791     097D                     l2422:
  6792     097D  1737               	bsf	___fldiv@grs+3,6
  6793     097E                     l2424:
  6794     097E  0820               	movf	___fldiv@a,w
  6795     097F  02AD               	subwf	___fldiv@rem,f
  6796     0980  0821               	movf	___fldiv@a+1,w
  6797     0981  1C03               	skipc
  6798     0982  0F21               	incfsz	___fldiv@a+1,w
  6799     0983  02AE               	subwf	___fldiv@rem+1,f
  6800     0984  0822               	movf	___fldiv@a+2,w
  6801     0985  1C03               	skipc
  6802     0986  0F22               	incfsz	___fldiv@a+2,w
  6803     0987  02AF               	subwf	___fldiv@rem+2,f
  6804     0988  0823               	movf	___fldiv@a+3,w
  6805     0989  1C03               	skipc
  6806     098A  0F23               	incfsz	___fldiv@a+3,w
  6807     098B  02B0               	subwf	___fldiv@rem+3,f
  6808     098C                     l2426:
  6809     098C  3001               	movlw	1
  6810     098D  07B9               	addwf	___fldiv@aexp,f
  6811     098E                     l2428:
  6812     098E  301A               	movlw	26
  6813     098F  0239               	subwf	___fldiv@aexp,w
  6814     0990  1C03               	skipc
  6815     0991  2993               	goto	u3751
  6816     0992  2994               	goto	u3750
  6817     0993                     u3751:
  6818     0993  2946               	goto	l2410
  6819     0994                     u3750:
  6820     0994                     l2430:
  6821     0994  0830               	movf	___fldiv@rem+3,w
  6822     0995  042F               	iorwf	___fldiv@rem+2,w
  6823     0996  042E               	iorwf	___fldiv@rem+1,w
  6824     0997  042D               	iorwf	___fldiv@rem,w
  6825     0998  1903               	skipnz
  6826     0999  299B               	goto	u3761
  6827     099A  299C               	goto	u3760
  6828     099B                     u3761:
  6829     099B  29BB               	goto	l2444
  6830     099C                     u3760:
  6831     099C                     l2432:
  6832     099C  1434               	bsf	___fldiv@grs,0
  6833     099D  29BB               	goto	l2444
  6834     099E                     l2434:
  6835     099E  3001               	movlw	1
  6836     099F  00A8               	movwf	??___fldiv
  6837     09A0                     u3775:
  6838     09A0  1003               	clrc
  6839     09A1  0DA4               	rlf	___fldiv@b,f
  6840     09A2  0DA5               	rlf	___fldiv@b+1,f
  6841     09A3  0DA6               	rlf	___fldiv@b+2,f
  6842     09A4  0DA7               	rlf	___fldiv@b+3,f
  6843     09A5  0BA8               	decfsz	??___fldiv,f
  6844     09A6  29A0               	goto	u3775
  6845     09A7                     l2436:
  6846     09A7  1FB7               	btfss	___fldiv@grs+3,7
  6847     09A8  29AA               	goto	u3781
  6848     09A9  29AB               	goto	u3780
  6849     09AA                     u3781:
  6850     09AA  29AC               	goto	l2440
  6851     09AB                     u3780:
  6852     09AB                     l2438:
  6853     09AB  1424               	bsf	___fldiv@b,0
  6854     09AC                     l2440:
  6855     09AC  3001               	movlw	1
  6856     09AD  00A8               	movwf	??___fldiv
  6857     09AE                     u3795:
  6858     09AE  1003               	clrc
  6859     09AF  0DB4               	rlf	___fldiv@grs,f
  6860     09B0  0DB5               	rlf	___fldiv@grs+1,f
  6861     09B1  0DB6               	rlf	___fldiv@grs+2,f
  6862     09B2  0DB7               	rlf	___fldiv@grs+3,f
  6863     09B3  0BA8               	decfsz	??___fldiv,f
  6864     09B4  29AE               	goto	u3795
  6865     09B5                     l2442:
  6866     09B5  30FF               	movlw	255
  6867     09B6  07B2               	addwf	___fldiv@new_exp,f
  6868     09B7  1803               	skipnc
  6869     09B8  0AB3               	incf	___fldiv@new_exp+1,f
  6870     09B9  30FF               	movlw	255
  6871     09BA  07B3               	addwf	___fldiv@new_exp+1,f
  6872     09BB                     l2444:
  6873     09BB  1FA6               	btfss	___fldiv@b+2,7
  6874     09BC  29BE               	goto	u3801
  6875     09BD  29BF               	goto	u3800
  6876     09BE                     u3801:
  6877     09BE  299E               	goto	l2434
  6878     09BF                     u3800:
  6879     09BF                     l2446:
  6880     09BF  01B9               	clrf	___fldiv@aexp
  6881     09C0                     l2448:
  6882     09C0  1FB7               	btfss	___fldiv@grs+3,7
  6883     09C1  29C3               	goto	u3811
  6884     09C2  29C4               	goto	u3810
  6885     09C3                     u3811:
  6886     09C3  29E0               	goto	l2456
  6887     09C4                     u3810:
  6888     09C4                     l2450:
  6889     09C4  30FF               	movlw	255
  6890     09C5  0534               	andwf	___fldiv@grs,w
  6891     09C6  00A8               	movwf	??___fldiv
  6892     09C7  30FF               	movlw	255
  6893     09C8  0535               	andwf	___fldiv@grs+1,w
  6894     09C9  00A9               	movwf	??___fldiv+1
  6895     09CA  30FF               	movlw	255
  6896     09CB  0536               	andwf	___fldiv@grs+2,w
  6897     09CC  00AA               	movwf	??___fldiv+2
  6898     09CD  307F               	movlw	127
  6899     09CE  0537               	andwf	___fldiv@grs+3,w
  6900     09CF  00AB               	movwf	??___fldiv+3
  6901     09D0  082B               	movf	??___fldiv+3,w
  6902     09D1  042A               	iorwf	??___fldiv+2,w
  6903     09D2  0429               	iorwf	??___fldiv+1,w
  6904     09D3  0428               	iorwf	??___fldiv,w
  6905     09D4  1903               	skipnz
  6906     09D5  29D7               	goto	u3821
  6907     09D6  29D8               	goto	u3820
  6908     09D7                     u3821:
  6909     09D7  29DB               	goto	l548
  6910     09D8                     u3820:
  6911     09D8                     l2452:
  6912     09D8  3001               	movlw	1
  6913     09D9  00B9               	movwf	___fldiv@aexp
  6914     09DA  29E0               	goto	l2456
  6915     09DB                     l548:
  6916     09DB  1C24               	btfss	___fldiv@b,0
  6917     09DC  29DE               	goto	u3831
  6918     09DD  29DF               	goto	u3830
  6919     09DE                     u3831:
  6920     09DE  29E0               	goto	l2456
  6921     09DF                     u3830:
  6922     09DF  29D8               	goto	l2452
  6923     09E0                     l2456:
  6924     09E0  0839               	movf	___fldiv@aexp,w
  6925     09E1  1903               	btfsc	3,2
  6926     09E2  29E4               	goto	u3841
  6927     09E3  29E5               	goto	u3840
  6928     09E4                     u3841:
  6929     09E4  2A16               	goto	l2466
  6930     09E5                     u3840:
  6931     09E5                     l2458:
  6932     09E5  3001               	movlw	1
  6933     09E6  07A4               	addwf	___fldiv@b,f
  6934     09E7  3000               	movlw	0
  6935     09E8  1803               	skipnc
  6936     09E9  3001               	movlw	1
  6937     09EA  07A5               	addwf	___fldiv@b+1,f
  6938     09EB  3000               	movlw	0
  6939     09EC  1803               	skipnc
  6940     09ED  3001               	movlw	1
  6941     09EE  07A6               	addwf	___fldiv@b+2,f
  6942     09EF  3000               	movlw	0
  6943     09F0  1803               	skipnc
  6944     09F1  3001               	movlw	1
  6945     09F2  07A7               	addwf	___fldiv@b+3,f
  6946     09F3                     l2460:
  6947     09F3  1C27               	btfss	___fldiv@b+3,0
  6948     09F4  29F6               	goto	u3851
  6949     09F5  29F7               	goto	u3850
  6950     09F6                     u3851:
  6951     09F6  2A16               	goto	l2466
  6952     09F7                     u3850:
  6953     09F7                     l2462:
  6954     09F7  0824               	movf	___fldiv@b,w
  6955     09F8  00A8               	movwf	??___fldiv
  6956     09F9  0825               	movf	___fldiv@b+1,w
  6957     09FA  00A9               	movwf	??___fldiv+1
  6958     09FB  0826               	movf	___fldiv@b+2,w
  6959     09FC  00AA               	movwf	??___fldiv+2
  6960     09FD  0827               	movf	___fldiv@b+3,w
  6961     09FE  00AB               	movwf	??___fldiv+3
  6962     09FF  3001               	movlw	1
  6963     0A00  00AC               	movwf	??___fldiv+4
  6964     0A01                     u3865:
  6965     0A01  0D2B               	rlf	??___fldiv+3,w
  6966     0A02  0CAB               	rrf	??___fldiv+3,f
  6967     0A03  0CAA               	rrf	??___fldiv+2,f
  6968     0A04  0CA9               	rrf	??___fldiv+1,f
  6969     0A05  0CA8               	rrf	??___fldiv,f
  6970     0A06                     u3860:
  6971     0A06  0BAC               	decfsz	??___fldiv+4,f
  6972     0A07  2A01               	goto	u3865
  6973     0A08  082B               	movf	??___fldiv+3,w
  6974     0A09  00A7               	movwf	___fldiv@b+3
  6975     0A0A  082A               	movf	??___fldiv+2,w
  6976     0A0B  00A6               	movwf	___fldiv@b+2
  6977     0A0C  0829               	movf	??___fldiv+1,w
  6978     0A0D  00A5               	movwf	___fldiv@b+1
  6979     0A0E  0828               	movf	??___fldiv,w
  6980     0A0F  00A4               	movwf	___fldiv@b
  6981     0A10                     l2464:
  6982     0A10  3001               	movlw	1
  6983     0A11  07B2               	addwf	___fldiv@new_exp,f
  6984     0A12  1803               	skipnc
  6985     0A13  0AB3               	incf	___fldiv@new_exp+1,f
  6986     0A14  3000               	movlw	0
  6987     0A15  07B3               	addwf	___fldiv@new_exp+1,f
  6988     0A16                     l2466:
  6989     0A16  0833               	movf	___fldiv@new_exp+1,w
  6990     0A17  3A80               	xorlw	128
  6991     0A18  00FF               	movwf	btemp+1
  6992     0A19  3080               	movlw	128
  6993     0A1A  027F               	subwf	btemp+1,w
  6994     0A1B  1D03               	skipz
  6995     0A1C  2A1F               	goto	u3875
  6996     0A1D  30FF               	movlw	255
  6997     0A1E  0232               	subwf	___fldiv@new_exp,w
  6998     0A1F                     u3875:
  6999     0A1F  1C03               	skipc
  7000     0A20  2A22               	goto	u3871
  7001     0A21  2A23               	goto	u3870
  7002     0A22                     u3871:
  7003     0A22  2A31               	goto	l2470
  7004     0A23                     u3870:
  7005     0A23                     l2468:
  7006     0A23  30FF               	movlw	255
  7007     0A24  1283               	bcf	3,5	;RP0=0, select bank0
  7008     0A25  1303               	bcf	3,6	;RP1=0, select bank0
  7009     0A26  00B2               	movwf	___fldiv@new_exp
  7010     0A27  3000               	movlw	0
  7011     0A28  00B3               	movwf	___fldiv@new_exp+1
  7012     0A29  3000               	movlw	0
  7013     0A2A  00A7               	movwf	___fldiv@b+3
  7014     0A2B  3000               	movlw	0
  7015     0A2C  00A6               	movwf	___fldiv@b+2
  7016     0A2D  3000               	movlw	0
  7017     0A2E  00A5               	movwf	___fldiv@b+1
  7018     0A2F  3000               	movlw	0
  7019     0A30  00A4               	movwf	___fldiv@b
  7020     0A31                     l2470:
  7021     0A31  1283               	bcf	3,5	;RP0=0, select bank0
  7022     0A32  1303               	bcf	3,6	;RP1=0, select bank0
  7023     0A33  0833               	movf	___fldiv@new_exp+1,w
  7024     0A34  3A80               	xorlw	128
  7025     0A35  00FF               	movwf	btemp+1
  7026     0A36  3080               	movlw	128
  7027     0A37  027F               	subwf	btemp+1,w
  7028     0A38  1D03               	skipz
  7029     0A39  2A3C               	goto	u3885
  7030     0A3A  3001               	movlw	1
  7031     0A3B  0232               	subwf	___fldiv@new_exp,w
  7032     0A3C                     u3885:
  7033     0A3C  1803               	skipnc
  7034     0A3D  2A3F               	goto	u3881
  7035     0A3E  2A40               	goto	u3880
  7036     0A3F                     u3881:
  7037     0A3F  2A4D               	goto	l554
  7038     0A40                     u3880:
  7039     0A40                     l2472:
  7040     0A40  1283               	bcf	3,5	;RP0=0, select bank0
  7041     0A41  1303               	bcf	3,6	;RP1=0, select bank0
  7042     0A42  01B2               	clrf	___fldiv@new_exp
  7043     0A43  01B3               	clrf	___fldiv@new_exp+1
  7044     0A44                     l2474:
  7045     0A44  3000               	movlw	0
  7046     0A45  00A7               	movwf	___fldiv@b+3
  7047     0A46  3000               	movlw	0
  7048     0A47  00A6               	movwf	___fldiv@b+2
  7049     0A48  3000               	movlw	0
  7050     0A49  00A5               	movwf	___fldiv@b+1
  7051     0A4A  3000               	movlw	0
  7052     0A4B  00A4               	movwf	___fldiv@b
  7053     0A4C                     l2476:
  7054     0A4C  01B1               	clrf	___fldiv@sign
  7055     0A4D                     l554:
  7056     0A4D  1283               	bcf	3,5	;RP0=0, select bank0
  7057     0A4E  1303               	bcf	3,6	;RP1=0, select bank0
  7058     0A4F  0832               	movf	___fldiv@new_exp,w
  7059     0A50  00B8               	movwf	___fldiv@bexp
  7060     0A51                     l2478:
  7061     0A51  1C38               	btfss	___fldiv@bexp,0
  7062     0A52  2A54               	goto	u3891
  7063     0A53  2A55               	goto	u3890
  7064     0A54                     u3891:
  7065     0A54  2A57               	goto	l2482
  7066     0A55                     u3890:
  7067     0A55                     l2480:
  7068     0A55  17A6               	bsf	___fldiv@b+2,7
  7069     0A56  2A59               	goto	l556
  7070     0A57                     l2482:
  7071     0A57  307F               	movlw	127
  7072     0A58  05A6               	andwf	___fldiv@b+2,f
  7073     0A59                     l556:
  7074     0A59  0838               	movf	___fldiv@bexp,w
  7075     0A5A  00A8               	movwf	??___fldiv
  7076     0A5B  1003               	clrc
  7077     0A5C  0C28               	rrf	??___fldiv,w
  7078     0A5D  00A7               	movwf	___fldiv@b+3
  7079     0A5E  0831               	movf	___fldiv@sign,w
  7080     0A5F  04A7               	iorwf	___fldiv@b+3,f
  7081     0A60  2903               	goto	l2390
  7082     0A61                     l534:
  7083     0A61  0008               	return
  7084     0A62                     __end_of___fldiv:
  7085                           
  7086                           	psect	text25
  7087     1DA4                     __ptext25:	
  7088 ;; *************** function _send_trigger *****************
  7089 ;; Defined at:
  7090 ;;		line 89 in file "Proy3.c"
  7091 ;; Parameters:    Size  Location     Type
  7092 ;;		None
  7093 ;; Auto vars:     Size  Location     Type
  7094 ;;		None
  7095 ;; Return value:  Size  Location     Type
  7096 ;;                  1    wreg      void 
  7097 ;; Registers used:
  7098 ;;		wreg
  7099 ;; Tracked objects:
  7100 ;;		On entry : 0/0
  7101 ;;		On exit  : 0/0
  7102 ;;		Unchanged: 0/0
  7103 ;; Data sizes:     COMMON   BANK0   BANK1   BANK3   BANK2
  7104 ;;      Params:         0       0       0       0       0
  7105 ;;      Locals:         0       0       0       0       0
  7106 ;;      Temps:          1       0       0       0       0
  7107 ;;      Totals:         1       0       0       0       0
  7108 ;;Total ram usage:        1 bytes
  7109 ;; Hardware stack levels used: 1
  7110 ;; This function calls:
  7111 ;;		Nothing
  7112 ;; This function is called by:
  7113 ;;		_main
  7114 ;; This function uses a non-reentrant model
  7115 ;;
  7116                           
  7117     1DA4                     _send_trigger:	
  7118                           ;psect for function _send_trigger
  7119                           
  7120     1DA4                     l3088:	
  7121                           ;incstack = 0
  7122                           ; Regs used in _send_trigger: [wreg]
  7123                           
  7124                           
  7125                           ;Proy3.c: 90:     RC0 = 1;
  7126     1DA4  1283               	bcf	3,5	;RP0=0, select bank0
  7127     1DA5  1303               	bcf	3,6	;RP1=0, select bank0
  7128     1DA6  1407               	bsf	7,0	;volatile
  7129     1DA7                     l3090:
  7130                           
  7131                           ;Proy3.c: 91:     _delay((unsigned long)((10)*(8000000/4000000.0)));
  7132     1DA7  3006               	movlw	6
  7133     1DA8  00F0               	movwf	??_send_trigger
  7134     1DA9                     u5647:
  7135     1DA9  0BF0               	decfsz	??_send_trigger,f
  7136     1DAA  2DA9               	goto	u5647
  7137     1DAB  0000               	nop
  7138     1DAC                     l3092:
  7139                           
  7140                           ;Proy3.c: 92:     RC0 = 0;
  7141     1DAC  1283               	bcf	3,5	;RP0=0, select bank0
  7142     1DAD  1303               	bcf	3,6	;RP1=0, select bank0
  7143     1DAE  1007               	bcf	7,0	;volatile
  7144     1DAF                     l65:
  7145     1DAF  0008               	return
  7146     1DB0                     __end_of_send_trigger:
  7147                           
  7148                           	psect	text26
  7149     1F76                     __ptext26:	
  7150 ;; *************** function _read_echo *****************
  7151 ;; Defined at:
  7152 ;;		line 95 in file "Proy3.c"
  7153 ;; Parameters:    Size  Location     Type
  7154 ;;		None
  7155 ;; Auto vars:     Size  Location     Type
  7156 ;;  timeout         2    4[COMMON] unsigned int 
  7157 ;; Return value:  Size  Location     Type
  7158 ;;                  2    0[COMMON] unsigned int 
  7159 ;; Registers used:
  7160 ;;		wreg, status,2
  7161 ;; Tracked objects:
  7162 ;;		On entry : 0/0
  7163 ;;		On exit  : 0/0
  7164 ;;		Unchanged: 0/0
  7165 ;; Data sizes:     COMMON   BANK0   BANK1   BANK3   BANK2
  7166 ;;      Params:         2       0       0       0       0
  7167 ;;      Locals:         2       0       0       0       0
  7168 ;;      Temps:          2       0       0       0       0
  7169 ;;      Totals:         6       0       0       0       0
  7170 ;;Total ram usage:        6 bytes
  7171 ;; Hardware stack levels used: 1
  7172 ;; This function calls:
  7173 ;;		Nothing
  7174 ;; This function is called by:
  7175 ;;		_main
  7176 ;; This function uses a non-reentrant model
  7177 ;;
  7178                           
  7179     1F76                     _read_echo:	
  7180                           ;psect for function _read_echo
  7181                           
  7182     1F76                     l3094:	
  7183                           ;incstack = 0
  7184                           ; Regs used in _read_echo: [wreg+status,2]
  7185                           
  7186                           
  7187                           ;Proy3.c: 96:     unsigned int timeout = 0;
  7188     1F76  01F4               	clrf	read_echo@timeout
  7189     1F77  01F5               	clrf	read_echo@timeout+1
  7190     1F78                     l68:	
  7191                           ;Proy3.c: 99:     while (!RC1 && timeout++ < 30000);
  7192                           
  7193     1F78  1283               	bcf	3,5	;RP0=0, select bank0
  7194     1F79  1303               	bcf	3,6	;RP1=0, select bank0
  7195     1F7A  1887               	btfsc	7,1	;volatile
  7196     1F7B  2F7D               	goto	u5411
  7197     1F7C  2F7E               	goto	u5410
  7198     1F7D                     u5411:
  7199     1F7D  2F8E               	goto	l3098
  7200     1F7E                     u5410:
  7201     1F7E                     l3096:
  7202     1F7E  0875               	movf	read_echo@timeout+1,w
  7203     1F7F  00F3               	movwf	??_read_echo+1
  7204     1F80  0874               	movf	read_echo@timeout,w
  7205     1F81  00F2               	movwf	??_read_echo
  7206     1F82  0AF4               	incf	read_echo@timeout,f
  7207     1F83  1903               	skipnz
  7208     1F84  0AF5               	incf	read_echo@timeout+1,f
  7209     1F85  3075               	movlw	117
  7210     1F86  0273               	subwf	??_read_echo+1,w
  7211     1F87  3030               	movlw	48
  7212     1F88  1903               	skipnz
  7213     1F89  0272               	subwf	??_read_echo,w
  7214     1F8A  1C03               	skipc
  7215     1F8B  2F8D               	goto	u5421
  7216     1F8C  2F8E               	goto	u5420
  7217     1F8D                     u5421:
  7218     1F8D  2F78               	goto	l68
  7219     1F8E                     u5420:
  7220     1F8E                     l3098:
  7221                           
  7222                           ;Proy3.c: 100:     if (timeout >= 30000) return 0;
  7223     1F8E  3075               	movlw	117
  7224     1F8F  0275               	subwf	read_echo@timeout+1,w
  7225     1F90  3030               	movlw	48
  7226     1F91  1903               	skipnz
  7227     1F92  0274               	subwf	read_echo@timeout,w
  7228     1F93  1C03               	skipc
  7229     1F94  2F96               	goto	u5431
  7230     1F95  2F97               	goto	u5430
  7231     1F96                     u5431:
  7232     1F96  2F9A               	goto	l3104
  7233     1F97                     u5430:
  7234     1F97                     l3100:
  7235     1F97  01F0               	clrf	?_read_echo
  7236     1F98  01F1               	clrf	?_read_echo+1
  7237     1F99  2FB1               	goto	l74
  7238     1F9A                     l3104:
  7239                           
  7240                           ;Proy3.c: 102:     TMR1 = 0;
  7241     1F9A  018E               	clrf	14	;volatile
  7242     1F9B  018F               	clrf	15	;volatile
  7243     1F9C                     l3106:
  7244                           
  7245                           ;Proy3.c: 103:     T1CON = 0x10;
  7246     1F9C  3010               	movlw	16
  7247     1F9D  0090               	movwf	16	;volatile
  7248     1F9E                     l3108:
  7249                           
  7250                           ;Proy3.c: 104:     TMR1ON = 1;
  7251     1F9E  1410               	bsf	16,0	;volatile
  7252     1F9F                     l75:	
  7253                           ;Proy3.c: 107:     while (RC1 && TMR1 < 30000);
  7254                           
  7255     1F9F  1C87               	btfss	7,1	;volatile
  7256     1FA0  2FA2               	goto	u5441
  7257     1FA1  2FA3               	goto	u5440
  7258     1FA2                     u5441:
  7259     1FA2  2FAC               	goto	l79
  7260     1FA3                     u5440:
  7261     1FA3                     l3110:
  7262     1FA3  3075               	movlw	117
  7263     1FA4  020F               	subwf	15,w	;volatile
  7264     1FA5  3030               	movlw	48
  7265     1FA6  1903               	skipnz
  7266     1FA7  020E               	subwf	14,w	;volatile
  7267     1FA8  1C03               	skipc
  7268     1FA9  2FAB               	goto	u5451
  7269     1FAA  2FAC               	goto	u5450
  7270     1FAB                     u5451:
  7271     1FAB  2F9F               	goto	l75
  7272     1FAC                     u5450:
  7273     1FAC                     l79:
  7274                           
  7275                           ;Proy3.c: 109:     TMR1ON = 0;
  7276     1FAC  1010               	bcf	16,0	;volatile
  7277     1FAD                     l3112:
  7278                           
  7279                           ;Proy3.c: 110:     return TMR1;
  7280     1FAD  080F               	movf	15,w	;volatile
  7281     1FAE  00F1               	movwf	?_read_echo+1
  7282     1FAF  080E               	movf	14,w	;volatile
  7283     1FB0  00F0               	movwf	?_read_echo
  7284     1FB1                     l74:
  7285     1FB1  0008               	return
  7286     1FB2                     __end_of_read_echo:
  7287                           
  7288                           	psect	text27
  7289     1351                     __ptext27:	
  7290 ;; *************** function ___xxtofl *****************
  7291 ;; Defined at:
  7292 ;;		line 10 in file "C:\Program Files\Microchip\xc8\v3.00\pic\sources\c99\common\xxtofl.c"
  7293 ;; Parameters:    Size  Location     Type
  7294 ;;  sign            1    wreg     unsigned char 
  7295 ;;  val             4    0[COMMON] long 
  7296 ;; Auto vars:     Size  Location     Type
  7297 ;;  sign            1    8[COMMON] unsigned char 
  7298 ;;  arg             4   10[COMMON] unsigned long 
  7299 ;;  exp             1    9[COMMON] unsigned char 
  7300 ;; Return value:  Size  Location     Type
  7301 ;;                  4    0[COMMON] unsigned char 
  7302 ;; Registers used:
  7303 ;;		wreg, status,2, status,0
  7304 ;; Tracked objects:
  7305 ;;		On entry : 0/0
  7306 ;;		On exit  : 0/0
  7307 ;;		Unchanged: 0/0
  7308 ;; Data sizes:     COMMON   BANK0   BANK1   BANK3   BANK2
  7309 ;;      Params:         4       0       0       0       0
  7310 ;;      Locals:         6       0       0       0       0
  7311 ;;      Temps:          4       0       0       0       0
  7312 ;;      Totals:        14       0       0       0       0
  7313 ;;Total ram usage:       14 bytes
  7314 ;; Hardware stack levels used: 1
  7315 ;; This function calls:
  7316 ;;		Nothing
  7317 ;; This function is called by:
  7318 ;;		_main
  7319 ;; This function uses a non-reentrant model
  7320 ;;
  7321                           
  7322     1351                     ___xxtofl:	
  7323                           ;psect for function ___xxtofl
  7324                           
  7325                           
  7326                           ;incstack = 0
  7327                           ; Regs used in ___xxtofl: [wreg+status,2+status,0]
  7328                           ;___xxtofl@sign stored from wreg
  7329     1351  00F8               	movwf	___xxtofl@sign
  7330     1352                     l3130:
  7331     1352  0878               	movf	___xxtofl@sign,w
  7332     1353  1903               	btfsc	3,2
  7333     1354  2B56               	goto	u5461
  7334     1355  2B57               	goto	u5460
  7335     1356                     u5461:
  7336     1356  2B6B               	goto	l3136
  7337     1357                     u5460:
  7338     1357                     l3132:
  7339     1357  1FF3               	btfss	___xxtofl@val+3,7
  7340     1358  2B5A               	goto	u5471
  7341     1359  2B5B               	goto	u5470
  7342     135A                     u5471:
  7343     135A  2B6B               	goto	l3136
  7344     135B                     u5470:
  7345     135B                     l3134:
  7346     135B  0970               	comf	___xxtofl@val,w
  7347     135C  00FA               	movwf	___xxtofl@arg
  7348     135D  0971               	comf	___xxtofl@val+1,w
  7349     135E  00FB               	movwf	___xxtofl@arg+1
  7350     135F  0972               	comf	___xxtofl@val+2,w
  7351     1360  00FC               	movwf	___xxtofl@arg+2
  7352     1361  0973               	comf	___xxtofl@val+3,w
  7353     1362  00FD               	movwf	___xxtofl@arg+3
  7354     1363  0AFA               	incf	___xxtofl@arg,f
  7355     1364  1903               	skipnz
  7356     1365  0AFB               	incf	___xxtofl@arg+1,f
  7357     1366  1903               	skipnz
  7358     1367  0AFC               	incf	___xxtofl@arg+2,f
  7359     1368  1903               	skipnz
  7360     1369  0AFD               	incf	___xxtofl@arg+3,f
  7361     136A  2B73               	goto	l616
  7362     136B                     l3136:
  7363     136B  0873               	movf	___xxtofl@val+3,w
  7364     136C  00FD               	movwf	___xxtofl@arg+3
  7365     136D  0872               	movf	___xxtofl@val+2,w
  7366     136E  00FC               	movwf	___xxtofl@arg+2
  7367     136F  0871               	movf	___xxtofl@val+1,w
  7368     1370  00FB               	movwf	___xxtofl@arg+1
  7369     1371  0870               	movf	___xxtofl@val,w
  7370     1372  00FA               	movwf	___xxtofl@arg
  7371     1373                     l616:
  7372     1373  0873               	movf	___xxtofl@val+3,w
  7373     1374  0472               	iorwf	___xxtofl@val+2,w
  7374     1375  0471               	iorwf	___xxtofl@val+1,w
  7375     1376  0470               	iorwf	___xxtofl@val,w
  7376     1377  1D03               	skipz
  7377     1378  2B7A               	goto	u5481
  7378     1379  2B7B               	goto	u5480
  7379     137A                     u5481:
  7380     137A  2B84               	goto	l617
  7381     137B                     u5480:
  7382     137B                     l3138:
  7383     137B  3000               	movlw	0
  7384     137C  00F3               	movwf	?___xxtofl+3
  7385     137D  3000               	movlw	0
  7386     137E  00F2               	movwf	?___xxtofl+2
  7387     137F  3000               	movlw	0
  7388     1380  00F1               	movwf	?___xxtofl+1
  7389     1381  3000               	movlw	0
  7390     1382  00F0               	movwf	?___xxtofl
  7391     1383  2C04               	goto	l618
  7392     1384                     l617:
  7393     1384  3096               	movlw	150
  7394     1385  00F9               	movwf	___xxtofl@exp
  7395     1386  2B92               	goto	l3144
  7396     1387                     l3142:
  7397     1387  3001               	movlw	1
  7398     1388  07F9               	addwf	___xxtofl@exp,f
  7399     1389  3001               	movlw	1
  7400     138A                     u5495:
  7401     138A  1003               	clrc
  7402     138B  0CFD               	rrf	___xxtofl@arg+3,f
  7403     138C  0CFC               	rrf	___xxtofl@arg+2,f
  7404     138D  0CFB               	rrf	___xxtofl@arg+1,f
  7405     138E  0CFA               	rrf	___xxtofl@arg,f
  7406     138F  3EFF               	addlw	-1
  7407     1390  1D03               	skipz
  7408     1391  2B8A               	goto	u5495
  7409     1392                     l3144:
  7410     1392  30FE               	movlw	254
  7411     1393  057D               	andwf	___xxtofl@arg+3,w
  7412     1394  1D03               	btfss	3,2
  7413     1395  2B97               	goto	u5501
  7414     1396  2B98               	goto	u5500
  7415     1397                     u5501:
  7416     1397  2B87               	goto	l3142
  7417     1398                     u5500:
  7418     1398  2BB2               	goto	l622
  7419     1399                     l3146:
  7420     1399  3001               	movlw	1
  7421     139A  07F9               	addwf	___xxtofl@exp,f
  7422     139B                     l3148:
  7423     139B  3001               	movlw	1
  7424     139C  07FA               	addwf	___xxtofl@arg,f
  7425     139D  3000               	movlw	0
  7426     139E  1803               	skipnc
  7427     139F  3001               	movlw	1
  7428     13A0  07FB               	addwf	___xxtofl@arg+1,f
  7429     13A1  3000               	movlw	0
  7430     13A2  1803               	skipnc
  7431     13A3  3001               	movlw	1
  7432     13A4  07FC               	addwf	___xxtofl@arg+2,f
  7433     13A5  3000               	movlw	0
  7434     13A6  1803               	skipnc
  7435     13A7  3001               	movlw	1
  7436     13A8  07FD               	addwf	___xxtofl@arg+3,f
  7437     13A9                     l3150:
  7438     13A9  3001               	movlw	1
  7439     13AA                     u5515:
  7440     13AA  1003               	clrc
  7441     13AB  0CFD               	rrf	___xxtofl@arg+3,f
  7442     13AC  0CFC               	rrf	___xxtofl@arg+2,f
  7443     13AD  0CFB               	rrf	___xxtofl@arg+1,f
  7444     13AE  0CFA               	rrf	___xxtofl@arg,f
  7445     13AF  3EFF               	addlw	-1
  7446     13B0  1D03               	skipz
  7447     13B1  2BAA               	goto	u5515
  7448     13B2                     l622:
  7449     13B2  30FF               	movlw	255
  7450     13B3  057D               	andwf	___xxtofl@arg+3,w
  7451     13B4  1D03               	btfss	3,2
  7452     13B5  2BB7               	goto	u5521
  7453     13B6  2BB8               	goto	u5520
  7454     13B7                     u5521:
  7455     13B7  2B99               	goto	l3146
  7456     13B8                     u5520:
  7457     13B8  2BC4               	goto	l3154
  7458     13B9                     l3152:
  7459     13B9  3001               	movlw	1
  7460     13BA  02F9               	subwf	___xxtofl@exp,f
  7461     13BB  3001               	movlw	1
  7462     13BC  00F4               	movwf	??___xxtofl
  7463     13BD                     u5535:
  7464     13BD  1003               	clrc
  7465     13BE  0DFA               	rlf	___xxtofl@arg,f
  7466     13BF  0DFB               	rlf	___xxtofl@arg+1,f
  7467     13C0  0DFC               	rlf	___xxtofl@arg+2,f
  7468     13C1  0DFD               	rlf	___xxtofl@arg+3,f
  7469     13C2  0BF4               	decfsz	??___xxtofl,f
  7470     13C3  2BBD               	goto	u5535
  7471     13C4                     l3154:
  7472     13C4  1BFC               	btfsc	___xxtofl@arg+2,7
  7473     13C5  2BC7               	goto	u5541
  7474     13C6  2BC8               	goto	u5540
  7475     13C7                     u5541:
  7476     13C7  2BCE               	goto	l629
  7477     13C8                     u5540:
  7478     13C8                     l3156:
  7479     13C8  3002               	movlw	2
  7480     13C9  0279               	subwf	___xxtofl@exp,w
  7481     13CA  1803               	skipnc
  7482     13CB  2BCD               	goto	u5551
  7483     13CC  2BCE               	goto	u5550
  7484     13CD                     u5551:
  7485     13CD  2BB9               	goto	l3152
  7486     13CE                     u5550:
  7487     13CE                     l629:
  7488     13CE  1879               	btfsc	___xxtofl@exp,0
  7489     13CF  2BD1               	goto	u5561
  7490     13D0  2BD2               	goto	u5560
  7491     13D1                     u5561:
  7492     13D1  2BDA               	goto	l630
  7493     13D2                     u5560:
  7494     13D2                     l3158:
  7495     13D2  30FF               	movlw	255
  7496     13D3  05FA               	andwf	___xxtofl@arg,f
  7497     13D4  30FF               	movlw	255
  7498     13D5  05FB               	andwf	___xxtofl@arg+1,f
  7499     13D6  307F               	movlw	127
  7500     13D7  05FC               	andwf	___xxtofl@arg+2,f
  7501     13D8  30FF               	movlw	255
  7502     13D9  05FD               	andwf	___xxtofl@arg+3,f
  7503     13DA                     l630:
  7504     13DA  1003               	clrc
  7505     13DB  0CF9               	rrf	___xxtofl@exp,f
  7506     13DC                     l3160:
  7507     13DC  0879               	movf	___xxtofl@exp,w
  7508     13DD  00F4               	movwf	??___xxtofl
  7509     13DE  01F5               	clrf	??___xxtofl+1
  7510     13DF  01F6               	clrf	??___xxtofl+2
  7511     13E0  01F7               	clrf	??___xxtofl+3
  7512     13E1  3018               	movlw	24
  7513     13E2                     u5575:
  7514     13E2  1003               	clrc
  7515     13E3  0DF4               	rlf	??___xxtofl,f
  7516     13E4  0DF5               	rlf	??___xxtofl+1,f
  7517     13E5  0DF6               	rlf	??___xxtofl+2,f
  7518     13E6  0DF7               	rlf	??___xxtofl+3,f
  7519     13E7                     u5570:
  7520     13E7  3EFF               	addlw	-1
  7521     13E8  1D03               	skipz
  7522     13E9  2BE2               	goto	u5575
  7523     13EA  0874               	movf	??___xxtofl,w
  7524     13EB  04FA               	iorwf	___xxtofl@arg,f
  7525     13EC  0875               	movf	??___xxtofl+1,w
  7526     13ED  04FB               	iorwf	___xxtofl@arg+1,f
  7527     13EE  0876               	movf	??___xxtofl+2,w
  7528     13EF  04FC               	iorwf	___xxtofl@arg+2,f
  7529     13F0  0877               	movf	??___xxtofl+3,w
  7530     13F1  04FD               	iorwf	___xxtofl@arg+3,f
  7531     13F2                     l3162:
  7532     13F2  0878               	movf	___xxtofl@sign,w
  7533     13F3  1903               	btfsc	3,2
  7534     13F4  2BF6               	goto	u5581
  7535     13F5  2BF7               	goto	u5580
  7536     13F6                     u5581:
  7537     13F6  2BFC               	goto	l3168
  7538     13F7                     u5580:
  7539     13F7                     l3164:
  7540     13F7  1FF3               	btfss	___xxtofl@val+3,7
  7541     13F8  2BFA               	goto	u5591
  7542     13F9  2BFB               	goto	u5590
  7543     13FA                     u5591:
  7544     13FA  2BFC               	goto	l3168
  7545     13FB                     u5590:
  7546     13FB                     l3166:
  7547     13FB  17FD               	bsf	___xxtofl@arg+3,7
  7548     13FC                     l3168:
  7549     13FC  087D               	movf	___xxtofl@arg+3,w
  7550     13FD  00F3               	movwf	?___xxtofl+3
  7551     13FE  087C               	movf	___xxtofl@arg+2,w
  7552     13FF  00F2               	movwf	?___xxtofl+2
  7553     1400  087B               	movf	___xxtofl@arg+1,w
  7554     1401  00F1               	movwf	?___xxtofl+1
  7555     1402  087A               	movf	___xxtofl@arg,w
  7556     1403  00F0               	movwf	?___xxtofl
  7557     1404                     l618:
  7558     1404  0008               	return
  7559     1405                     __end_of___xxtofl:
  7560                           
  7561                           	psect	text28
  7562     1E99                     __ptext28:	
  7563 ;; *************** function _LCD_String *****************
  7564 ;; Defined at:
  7565 ;;		line 73 in file "Proy3.c"
  7566 ;; Parameters:    Size  Location     Type
  7567 ;;  str             2    3[COMMON] PTR const unsigned char 
  7568 ;;		 -> main@buffer(16), STR_3(14), STR_2(13), STR_1(13), 
  7569 ;; Auto vars:     Size  Location     Type
  7570 ;;		None
  7571 ;; Return value:  Size  Location     Type
  7572 ;;                  1    wreg      void 
  7573 ;; Registers used:
  7574 ;;		wreg, fsr0l, fsr0h, status,2, status,0, btemp+1, pclath, cstack
  7575 ;; Tracked objects:
  7576 ;;		On entry : 0/0
  7577 ;;		On exit  : 0/0
  7578 ;;		Unchanged: 0/0
  7579 ;; Data sizes:     COMMON   BANK0   BANK1   BANK3   BANK2
  7580 ;;      Params:         2       0       0       0       0
  7581 ;;      Locals:         0       0       0       0       0
  7582 ;;      Temps:          0       0       0       0       0
  7583 ;;      Totals:         2       0       0       0       0
  7584 ;;Total ram usage:        2 bytes
  7585 ;; Hardware stack levels used: 1
  7586 ;; Hardware stack levels required when called: 2
  7587 ;; This function calls:
  7588 ;;		_LCD_Char
  7589 ;; This function is called by:
  7590 ;;		_main
  7591 ;; This function uses a non-reentrant model
  7592 ;;
  7593                           
  7594     1E99                     _LCD_String:	
  7595                           ;psect for function _LCD_String
  7596                           
  7597     1E99                     l3068:	
  7598                           ;incstack = 0
  7599                           ; Regs used in _LCD_String: [wreg-fsr0h+status,2+status,0+btemp+1+pclath+cstack]
  7600                           
  7601                           
  7602                           ;Proy3.c: 74:     while (*str) LCD_Char(*str++);
  7603     1E99  2EAE               	goto	l3074
  7604     1E9A                     l3070:
  7605     1E9A  0874               	movf	LCD_String@str+1,w
  7606     1E9B  00FF               	movwf	btemp+1
  7607     1E9C  0873               	movf	LCD_String@str,w
  7608     1E9D  0084               	movwf	4
  7609     1E9E  160A  158A  2000  160A  158A  	fcall	stringtab
  7610     1EA3  160A  118A  2169  160A  158A  	fcall	_LCD_Char
  7611     1EA8                     l3072:
  7612     1EA8  3001               	movlw	1
  7613     1EA9  07F3               	addwf	LCD_String@str,f
  7614     1EAA  1803               	skipnc
  7615     1EAB  0AF4               	incf	LCD_String@str+1,f
  7616     1EAC  3000               	movlw	0
  7617     1EAD  07F4               	addwf	LCD_String@str+1,f
  7618     1EAE                     l3074:
  7619     1EAE  0874               	movf	LCD_String@str+1,w
  7620     1EAF  1283               	bcf	3,5	;RP0=0, select bank0
  7621     1EB0  1303               	bcf	3,6	;RP1=0, select bank0
  7622     1EB1  00FF               	movwf	btemp+1
  7623     1EB2  0873               	movf	LCD_String@str,w
  7624     1EB3  0084               	movwf	4
  7625     1EB4  160A  158A  2000  160A  158A  	fcall	stringtab
  7626     1EB9  3A00               	xorlw	0
  7627     1EBA  1D03               	skipz
  7628     1EBB  2EBD               	goto	u5391
  7629     1EBC  2EBE               	goto	u5390
  7630     1EBD                     u5391:
  7631     1EBD  2E9A               	goto	l3070
  7632     1EBE                     u5390:
  7633     1EBE                     l52:
  7634     1EBE  0008               	return
  7635     1EBF                     __end_of_LCD_String:
  7636                           
  7637                           	psect	text29
  7638     1169                     __ptext29:	
  7639 ;; *************** function _LCD_Char *****************
  7640 ;; Defined at:
  7641 ;;		line 46 in file "Proy3.c"
  7642 ;; Parameters:    Size  Location     Type
  7643 ;;  data            1    wreg     unsigned char 
  7644 ;; Auto vars:     Size  Location     Type
  7645 ;;  data            1    2[COMMON] unsigned char 
  7646 ;; Return value:  Size  Location     Type
  7647 ;;                  1    wreg      void 
  7648 ;; Registers used:
  7649 ;;		wreg, status,2, status,0, pclath, cstack
  7650 ;; Tracked objects:
  7651 ;;		On entry : 0/0
  7652 ;;		On exit  : 0/0
  7653 ;;		Unchanged: 0/0
  7654 ;; Data sizes:     COMMON   BANK0   BANK1   BANK3   BANK2
  7655 ;;      Params:         0       0       0       0       0
  7656 ;;      Locals:         1       0       0       0       0
  7657 ;;      Temps:          2       0       0       0       0
  7658 ;;      Totals:         3       0       0       0       0
  7659 ;;Total ram usage:        3 bytes
  7660 ;; Hardware stack levels used: 1
  7661 ;; Hardware stack levels required when called: 1
  7662 ;; This function calls:
  7663 ;;		_LCD_PulseEnable
  7664 ;; This function is called by:
  7665 ;;		_LCD_String
  7666 ;; This function uses a non-reentrant model
  7667 ;;
  7668                           
  7669     1169                     _LCD_Char:	
  7670                           ;psect for function _LCD_Char
  7671                           
  7672                           
  7673                           ;incstack = 0
  7674                           ; Regs used in _LCD_Char: [wreg+status,2+status,0+pclath+cstack]
  7675                           ;LCD_Char@data stored from wreg
  7676     1169  00F2               	movwf	LCD_Char@data
  7677     116A                     l3024:
  7678                           
  7679                           ;Proy3.c: 47:     RD0 = 1;
  7680     116A  1283               	bcf	3,5	;RP0=0, select bank0
  7681     116B  1303               	bcf	3,6	;RP1=0, select bank0
  7682     116C  1408               	bsf	8,0	;volatile
  7683     116D                     l3026:
  7684                           
  7685                           ;Proy3.c: 48:     RD2 = (data >> 4) & 1;
  7686     116D  0872               	movf	LCD_Char@data,w
  7687     116E  00F0               	movwf	??_LCD_Char
  7688     116F  3004               	movlw	4
  7689     1170                     u5155:
  7690     1170  1003               	clrc
  7691     1171  0CF0               	rrf	??_LCD_Char,f
  7692     1172  3EFF               	addlw	-1
  7693     1173  1D03               	skipz
  7694     1174  2970               	goto	u5155
  7695     1175  1870               	btfsc	??_LCD_Char,0
  7696     1176  2978               	goto	u5161
  7697     1177  297C               	goto	u5160
  7698     1178                     u5161:
  7699     1178  1283               	bcf	3,5	;RP0=0, select bank0
  7700     1179  1303               	bcf	3,6	;RP1=0, select bank0
  7701     117A  1508               	bsf	8,2	;volatile
  7702     117B  297F               	goto	u5174
  7703     117C                     u5160:
  7704     117C  1283               	bcf	3,5	;RP0=0, select bank0
  7705     117D  1303               	bcf	3,6	;RP1=0, select bank0
  7706     117E  1108               	bcf	8,2	;volatile
  7707     117F                     u5174:
  7708                           
  7709                           ;Proy3.c: 49:     RD3 = (data >> 5) & 1;
  7710     117F  0872               	movf	LCD_Char@data,w
  7711     1180  00F0               	movwf	??_LCD_Char
  7712     1181  3005               	movlw	5
  7713     1182                     u5185:
  7714     1182  1003               	clrc
  7715     1183  0CF0               	rrf	??_LCD_Char,f
  7716     1184  3EFF               	addlw	-1
  7717     1185  1D03               	skipz
  7718     1186  2982               	goto	u5185
  7719     1187  1870               	btfsc	??_LCD_Char,0
  7720     1188  298A               	goto	u5191
  7721     1189  298E               	goto	u5190
  7722     118A                     u5191:
  7723     118A  1283               	bcf	3,5	;RP0=0, select bank0
  7724     118B  1303               	bcf	3,6	;RP1=0, select bank0
  7725     118C  1588               	bsf	8,3	;volatile
  7726     118D  2991               	goto	u5204
  7727     118E                     u5190:
  7728     118E  1283               	bcf	3,5	;RP0=0, select bank0
  7729     118F  1303               	bcf	3,6	;RP1=0, select bank0
  7730     1190  1188               	bcf	8,3	;volatile
  7731     1191                     u5204:
  7732                           
  7733                           ;Proy3.c: 50:     RD4 = (data >> 6) & 1;
  7734     1191  0872               	movf	LCD_Char@data,w
  7735     1192  00F0               	movwf	??_LCD_Char
  7736     1193  3006               	movlw	6
  7737     1194                     u5215:
  7738     1194  1003               	clrc
  7739     1195  0CF0               	rrf	??_LCD_Char,f
  7740     1196  3EFF               	addlw	-1
  7741     1197  1D03               	skipz
  7742     1198  2994               	goto	u5215
  7743     1199  1870               	btfsc	??_LCD_Char,0
  7744     119A  299C               	goto	u5221
  7745     119B  29A0               	goto	u5220
  7746     119C                     u5221:
  7747     119C  1283               	bcf	3,5	;RP0=0, select bank0
  7748     119D  1303               	bcf	3,6	;RP1=0, select bank0
  7749     119E  1608               	bsf	8,4	;volatile
  7750     119F  29A3               	goto	u5234
  7751     11A0                     u5220:
  7752     11A0  1283               	bcf	3,5	;RP0=0, select bank0
  7753     11A1  1303               	bcf	3,6	;RP1=0, select bank0
  7754     11A2  1208               	bcf	8,4	;volatile
  7755     11A3                     u5234:
  7756                           
  7757                           ;Proy3.c: 51:     RD5 = (data >> 7) & 1;
  7758     11A3  0872               	movf	LCD_Char@data,w
  7759     11A4  00F0               	movwf	??_LCD_Char
  7760     11A5  3007               	movlw	7
  7761     11A6                     u5245:
  7762     11A6  1003               	clrc
  7763     11A7  0CF0               	rrf	??_LCD_Char,f
  7764     11A8  3EFF               	addlw	-1
  7765     11A9  1D03               	skipz
  7766     11AA  29A6               	goto	u5245
  7767     11AB  1870               	btfsc	??_LCD_Char,0
  7768     11AC  29AE               	goto	u5251
  7769     11AD  29B2               	goto	u5250
  7770     11AE                     u5251:
  7771     11AE  1283               	bcf	3,5	;RP0=0, select bank0
  7772     11AF  1303               	bcf	3,6	;RP1=0, select bank0
  7773     11B0  1688               	bsf	8,5	;volatile
  7774     11B1  29B5               	goto	u5264
  7775     11B2                     u5250:
  7776     11B2  1283               	bcf	3,5	;RP0=0, select bank0
  7777     11B3  1303               	bcf	3,6	;RP1=0, select bank0
  7778     11B4  1288               	bcf	8,5	;volatile
  7779     11B5                     u5264:
  7780     11B5                     l3028:
  7781                           
  7782                           ;Proy3.c: 52:     LCD_PulseEnable();
  7783     11B5  160A  158A  259C  160A  118A  	fcall	_LCD_PulseEnable
  7784     11BA                     l3030:
  7785                           
  7786                           ;Proy3.c: 53:     RD2 = data & 1;
  7787     11BA  1872               	btfsc	LCD_Char@data,0
  7788     11BB  29BD               	goto	u5271
  7789     11BC  29C1               	goto	u5270
  7790     11BD                     u5271:
  7791     11BD  1283               	bcf	3,5	;RP0=0, select bank0
  7792     11BE  1303               	bcf	3,6	;RP1=0, select bank0
  7793     11BF  1508               	bsf	8,2	;volatile
  7794     11C0  29C4               	goto	u5284
  7795     11C1                     u5270:
  7796     11C1  1283               	bcf	3,5	;RP0=0, select bank0
  7797     11C2  1303               	bcf	3,6	;RP1=0, select bank0
  7798     11C3  1108               	bcf	8,2	;volatile
  7799     11C4                     u5284:
  7800     11C4                     l3032:
  7801                           
  7802                           ;Proy3.c: 54:     RD3 = (data >> 1) & 1;
  7803     11C4  0872               	movf	LCD_Char@data,w
  7804     11C5  00F0               	movwf	??_LCD_Char
  7805     11C6  3001               	movlw	1
  7806     11C7                     u5295:
  7807     11C7  1003               	clrc
  7808     11C8  0CF0               	rrf	??_LCD_Char,f
  7809     11C9  3EFF               	addlw	-1
  7810     11CA  1D03               	skipz
  7811     11CB  29C7               	goto	u5295
  7812     11CC  1870               	btfsc	??_LCD_Char,0
  7813     11CD  29CF               	goto	u5301
  7814     11CE  29D3               	goto	u5300
  7815     11CF                     u5301:
  7816     11CF  1283               	bcf	3,5	;RP0=0, select bank0
  7817     11D0  1303               	bcf	3,6	;RP1=0, select bank0
  7818     11D1  1588               	bsf	8,3	;volatile
  7819     11D2  29D6               	goto	u5314
  7820     11D3                     u5300:
  7821     11D3  1283               	bcf	3,5	;RP0=0, select bank0
  7822     11D4  1303               	bcf	3,6	;RP1=0, select bank0
  7823     11D5  1188               	bcf	8,3	;volatile
  7824     11D6                     u5314:
  7825     11D6                     l3034:
  7826                           
  7827                           ;Proy3.c: 55:     RD4 = (data >> 2) & 1;
  7828     11D6  0872               	movf	LCD_Char@data,w
  7829     11D7  00F0               	movwf	??_LCD_Char
  7830     11D8  3002               	movlw	2
  7831     11D9                     u5325:
  7832     11D9  1003               	clrc
  7833     11DA  0CF0               	rrf	??_LCD_Char,f
  7834     11DB  3EFF               	addlw	-1
  7835     11DC  1D03               	skipz
  7836     11DD  29D9               	goto	u5325
  7837     11DE  1870               	btfsc	??_LCD_Char,0
  7838     11DF  29E1               	goto	u5331
  7839     11E0  29E5               	goto	u5330
  7840     11E1                     u5331:
  7841     11E1  1283               	bcf	3,5	;RP0=0, select bank0
  7842     11E2  1303               	bcf	3,6	;RP1=0, select bank0
  7843     11E3  1608               	bsf	8,4	;volatile
  7844     11E4  29E8               	goto	u5344
  7845     11E5                     u5330:
  7846     11E5  1283               	bcf	3,5	;RP0=0, select bank0
  7847     11E6  1303               	bcf	3,6	;RP1=0, select bank0
  7848     11E7  1208               	bcf	8,4	;volatile
  7849     11E8                     u5344:
  7850     11E8                     l3036:
  7851                           
  7852                           ;Proy3.c: 56:     RD5 = (data >> 3) & 1;
  7853     11E8  0872               	movf	LCD_Char@data,w
  7854     11E9  00F0               	movwf	??_LCD_Char
  7855     11EA  3003               	movlw	3
  7856     11EB                     u5355:
  7857     11EB  1003               	clrc
  7858     11EC  0CF0               	rrf	??_LCD_Char,f
  7859     11ED  3EFF               	addlw	-1
  7860     11EE  1D03               	skipz
  7861     11EF  29EB               	goto	u5355
  7862     11F0  1870               	btfsc	??_LCD_Char,0
  7863     11F1  29F3               	goto	u5361
  7864     11F2  29F7               	goto	u5360
  7865     11F3                     u5361:
  7866     11F3  1283               	bcf	3,5	;RP0=0, select bank0
  7867     11F4  1303               	bcf	3,6	;RP1=0, select bank0
  7868     11F5  1688               	bsf	8,5	;volatile
  7869     11F6  29FA               	goto	u5374
  7870     11F7                     u5360:
  7871     11F7  1283               	bcf	3,5	;RP0=0, select bank0
  7872     11F8  1303               	bcf	3,6	;RP1=0, select bank0
  7873     11F9  1288               	bcf	8,5	;volatile
  7874     11FA                     u5374:
  7875                           
  7876                           ;Proy3.c: 57:     LCD_PulseEnable();
  7877     11FA  160A  158A  259C  160A  118A  	fcall	_LCD_PulseEnable
  7878     11FF                     l3038:
  7879                           
  7880                           ;Proy3.c: 58:     _delay((unsigned long)((2)*(8000000/4000.0)));
  7881     11FF  3006               	movlw	6
  7882     1200  00F1               	movwf	??_LCD_Char+1
  7883     1201  3030               	movlw	48
  7884     1202  00F0               	movwf	??_LCD_Char
  7885     1203                     u5657:
  7886     1203  0BF0               	decfsz	??_LCD_Char,f
  7887     1204  2A03               	goto	u5657
  7888     1205  0BF1               	decfsz	??_LCD_Char+1,f
  7889     1206  2A03               	goto	u5657
  7890     1207  0000               	nop
  7891     1208                     l43:
  7892     1208  0008               	return
  7893     1209                     __end_of_LCD_Char:
  7894                           
  7895                           	psect	text30
  7896     1DEE                     __ptext30:	
  7897 ;; *************** function _LCD_Set_Cursor *****************
  7898 ;; Defined at:
  7899 ;;		line 77 in file "Proy3.c"
  7900 ;; Parameters:    Size  Location     Type
  7901 ;;  row             1    wreg     unsigned char 
  7902 ;;  col             1    3[COMMON] unsigned char 
  7903 ;; Auto vars:     Size  Location     Type
  7904 ;;  row             1    4[COMMON] unsigned char 
  7905 ;;  pos             1    7[COMMON] unsigned char 
  7906 ;; Return value:  Size  Location     Type
  7907 ;;                  1    wreg      void 
  7908 ;; Registers used:
  7909 ;;		wreg, status,2, status,0, pclath, cstack
  7910 ;; Tracked objects:
  7911 ;;		On entry : 0/0
  7912 ;;		On exit  : 0/0
  7913 ;;		Unchanged: 0/0
  7914 ;; Data sizes:     COMMON   BANK0   BANK1   BANK3   BANK2
  7915 ;;      Params:         1       0       0       0       0
  7916 ;;      Locals:         4       0       0       0       0
  7917 ;;      Temps:          0       0       0       0       0
  7918 ;;      Totals:         5       0       0       0       0
  7919 ;;Total ram usage:        5 bytes
  7920 ;; Hardware stack levels used: 1
  7921 ;; Hardware stack levels required when called: 2
  7922 ;; This function calls:
  7923 ;;		_LCD_Cmd
  7924 ;; This function is called by:
  7925 ;;		_main
  7926 ;; This function uses a non-reentrant model
  7927 ;;
  7928                           
  7929     1DEE                     _LCD_Set_Cursor:	
  7930                           ;psect for function _LCD_Set_Cursor
  7931                           
  7932                           
  7933                           ;incstack = 0
  7934                           ; Regs used in _LCD_Set_Cursor: [wreg+status,2+status,0+pclath+cstack]
  7935                           ;LCD_Set_Cursor@row stored from wreg
  7936     1DEE  00F4               	movwf	LCD_Set_Cursor@row
  7937     1DEF                     l3076:
  7938                           
  7939                           ;Proy3.c: 78:     char pos = (row == 1) ? 0x80 + (col - 1) : 0xC0 + (col - 1);
  7940     1DEF  0374               	decf	LCD_Set_Cursor@row,w
  7941     1DF0  1903               	btfsc	3,2
  7942     1DF1  2DF3               	goto	u5401
  7943     1DF2  2DF4               	goto	u5400
  7944     1DF3                     u5401:
  7945     1DF3  2DFC               	goto	l3080
  7946     1DF4                     u5400:
  7947     1DF4                     l3078:
  7948     1DF4  0873               	movf	LCD_Set_Cursor@col,w
  7949     1DF5  3EBF               	addlw	191
  7950     1DF6  00F5               	movwf	_LCD_Set_Cursor$64
  7951     1DF7  3000               	movlw	0
  7952     1DF8  1803               	skipnc
  7953     1DF9  3001               	movlw	1
  7954     1DFA  00F6               	movwf	_LCD_Set_Cursor$64+1
  7955     1DFB  2E03               	goto	l58
  7956     1DFC                     l3080:
  7957     1DFC  0873               	movf	LCD_Set_Cursor@col,w
  7958     1DFD  3E7F               	addlw	127
  7959     1DFE  00F5               	movwf	_LCD_Set_Cursor$64
  7960     1DFF  3000               	movlw	0
  7961     1E00  1803               	skipnc
  7962     1E01  3001               	movlw	1
  7963     1E02  00F6               	movwf	_LCD_Set_Cursor$64+1
  7964     1E03                     l58:
  7965     1E03  0875               	movf	_LCD_Set_Cursor$64,w
  7966     1E04  00F7               	movwf	LCD_Set_Cursor@pos
  7967     1E05                     l3082:
  7968                           
  7969                           ;Proy3.c: 79:     LCD_Cmd(pos);
  7970     1E05  0877               	movf	LCD_Set_Cursor@pos,w
  7971     1E06  160A  118A  2209  160A  158A  	fcall	_LCD_Cmd
  7972     1E0B                     l59:
  7973     1E0B  0008               	return
  7974     1E0C                     __end_of_LCD_Set_Cursor:
  7975                           
  7976                           	psect	text31
  7977     1F3E                     __ptext31:	
  7978 ;; *************** function _LCD_Init *****************
  7979 ;; Defined at:
  7980 ;;		line 61 in file "Proy3.c"
  7981 ;; Parameters:    Size  Location     Type
  7982 ;;		None
  7983 ;; Auto vars:     Size  Location     Type
  7984 ;;		None
  7985 ;; Return value:  Size  Location     Type
  7986 ;;                  1    wreg      void 
  7987 ;; Registers used:
  7988 ;;		wreg, status,2, status,0, pclath, cstack
  7989 ;; Tracked objects:
  7990 ;;		On entry : 0/0
  7991 ;;		On exit  : 0/0
  7992 ;;		Unchanged: 0/0
  7993 ;; Data sizes:     COMMON   BANK0   BANK1   BANK3   BANK2
  7994 ;;      Params:         0       0       0       0       0
  7995 ;;      Locals:         0       0       0       0       0
  7996 ;;      Temps:          2       0       0       0       0
  7997 ;;      Totals:         2       0       0       0       0
  7998 ;;Total ram usage:        2 bytes
  7999 ;; Hardware stack levels used: 1
  8000 ;; Hardware stack levels required when called: 2
  8001 ;; This function calls:
  8002 ;;		_LCD_Cmd
  8003 ;; This function is called by:
  8004 ;;		_main
  8005 ;; This function uses a non-reentrant model
  8006 ;;
  8007                           
  8008     1F3E                     _LCD_Init:	
  8009                           ;psect for function _LCD_Init
  8010                           
  8011     1F3E                     l3050:	
  8012                           ;incstack = 0
  8013                           ; Regs used in _LCD_Init: [wreg+status,2+status,0+pclath+cstack]
  8014                           
  8015                           
  8016                           ;Proy3.c: 62:     TRISD = 0x00;
  8017     1F3E  1683               	bsf	3,5	;RP0=1, select bank1
  8018     1F3F  1303               	bcf	3,6	;RP1=0, select bank1
  8019     1F40  0188               	clrf	8	;volatile
  8020     1F41                     l3052:
  8021                           
  8022                           ;Proy3.c: 63:     RD0 = RD1 = 0;
  8023     1F41  1283               	bcf	3,5	;RP0=0, select bank0
  8024     1F42  1303               	bcf	3,6	;RP1=0, select bank0
  8025     1F43  1088               	bcf	8,1	;volatile
  8026     1F44  1008               	bcf	8,0	;volatile
  8027     1F45                     l3054:
  8028                           
  8029                           ;Proy3.c: 64:     _delay((unsigned long)((20)*(8000000/4000.0)));
  8030     1F45  3034               	movlw	52
  8031     1F46  00F4               	movwf	??_LCD_Init+1
  8032     1F47  30F1               	movlw	241
  8033     1F48  00F3               	movwf	??_LCD_Init
  8034     1F49                     u5667:
  8035     1F49  0BF3               	decfsz	??_LCD_Init,f
  8036     1F4A  2F49               	goto	u5667
  8037     1F4B  0BF4               	decfsz	??_LCD_Init+1,f
  8038     1F4C  2F49               	goto	u5667
  8039     1F4D  2F4E               	nop2
  8040     1F4E                     l3056:
  8041                           
  8042                           ;Proy3.c: 65:     LCD_Cmd(0x02);
  8043     1F4E  3002               	movlw	2
  8044     1F4F  160A  118A  2209  160A  158A  	fcall	_LCD_Cmd
  8045     1F54                     l3058:
  8046                           
  8047                           ;Proy3.c: 66:     LCD_Cmd(0x28);
  8048     1F54  3028               	movlw	40
  8049     1F55  160A  118A  2209  160A  158A  	fcall	_LCD_Cmd
  8050     1F5A                     l3060:
  8051                           
  8052                           ;Proy3.c: 67:     LCD_Cmd(0x0C);
  8053     1F5A  300C               	movlw	12
  8054     1F5B  160A  118A  2209  160A  158A  	fcall	_LCD_Cmd
  8055     1F60                     l3062:
  8056                           
  8057                           ;Proy3.c: 68:     LCD_Cmd(0x06);
  8058     1F60  3006               	movlw	6
  8059     1F61  160A  118A  2209  160A  158A  	fcall	_LCD_Cmd
  8060     1F66                     l3064:
  8061                           
  8062                           ;Proy3.c: 69:     LCD_Cmd(0x01);
  8063     1F66  3001               	movlw	1
  8064     1F67  160A  118A  2209  160A  158A  	fcall	_LCD_Cmd
  8065     1F6C                     l3066:
  8066                           
  8067                           ;Proy3.c: 70:     _delay((unsigned long)((2)*(8000000/4000.0)));
  8068     1F6C  3006               	movlw	6
  8069     1F6D  00F4               	movwf	??_LCD_Init+1
  8070     1F6E  3030               	movlw	48
  8071     1F6F  00F3               	movwf	??_LCD_Init
  8072     1F70                     u5677:
  8073     1F70  0BF3               	decfsz	??_LCD_Init,f
  8074     1F71  2F70               	goto	u5677
  8075     1F72  0BF4               	decfsz	??_LCD_Init+1,f
  8076     1F73  2F70               	goto	u5677
  8077     1F74  0000               	nop
  8078     1F75                     l46:
  8079     1F75  0008               	return
  8080     1F76                     __end_of_LCD_Init:
  8081                           
  8082                           	psect	text32
  8083     1DB0                     __ptext32:	
  8084 ;; *************** function _LCD_Clear *****************
  8085 ;; Defined at:
  8086 ;;		line 82 in file "Proy3.c"
  8087 ;; Parameters:    Size  Location     Type
  8088 ;;		None
  8089 ;; Auto vars:     Size  Location     Type
  8090 ;;		None
  8091 ;; Return value:  Size  Location     Type
  8092 ;;                  1    wreg      void 
  8093 ;; Registers used:
  8094 ;;		wreg, status,2, status,0, pclath, cstack
  8095 ;; Tracked objects:
  8096 ;;		On entry : 0/0
  8097 ;;		On exit  : 0/0
  8098 ;;		Unchanged: 0/0
  8099 ;; Data sizes:     COMMON   BANK0   BANK1   BANK3   BANK2
  8100 ;;      Params:         0       0       0       0       0
  8101 ;;      Locals:         0       0       0       0       0
  8102 ;;      Temps:          2       0       0       0       0
  8103 ;;      Totals:         2       0       0       0       0
  8104 ;;Total ram usage:        2 bytes
  8105 ;; Hardware stack levels used: 1
  8106 ;; Hardware stack levels required when called: 2
  8107 ;; This function calls:
  8108 ;;		_LCD_Cmd
  8109 ;; This function is called by:
  8110 ;;		_main
  8111 ;; This function uses a non-reentrant model
  8112 ;;
  8113                           
  8114     1DB0                     _LCD_Clear:	
  8115                           ;psect for function _LCD_Clear
  8116                           
  8117     1DB0                     l3084:	
  8118                           ;incstack = 0
  8119                           ; Regs used in _LCD_Clear: [wreg+status,2+status,0+pclath+cstack]
  8120                           
  8121                           
  8122                           ;Proy3.c: 83:     LCD_Cmd(0x01);
  8123     1DB0  3001               	movlw	1
  8124     1DB1  160A  118A  2209  160A  158A  	fcall	_LCD_Cmd
  8125     1DB6                     l3086:
  8126                           
  8127                           ;Proy3.c: 84:     _delay((unsigned long)((2)*(8000000/4000.0)));
  8128     1DB6  3006               	movlw	6
  8129     1DB7  00F4               	movwf	??_LCD_Clear+1
  8130     1DB8  3030               	movlw	48
  8131     1DB9  00F3               	movwf	??_LCD_Clear
  8132     1DBA                     u5687:
  8133     1DBA  0BF3               	decfsz	??_LCD_Clear,f
  8134     1DBB  2DBA               	goto	u5687
  8135     1DBC  0BF4               	decfsz	??_LCD_Clear+1,f
  8136     1DBD  2DBA               	goto	u5687
  8137     1DBE  0000               	nop
  8138     1DBF                     l62:
  8139     1DBF  0008               	return
  8140     1DC0                     __end_of_LCD_Clear:
  8141                           
  8142                           	psect	text33
  8143     1209                     __ptext33:	
  8144 ;; *************** function _LCD_Cmd *****************
  8145 ;; Defined at:
  8146 ;;		line 30 in file "Proy3.c"
  8147 ;; Parameters:    Size  Location     Type
  8148 ;;  cmd             1    wreg     unsigned char 
  8149 ;; Auto vars:     Size  Location     Type
  8150 ;;  cmd             1    2[COMMON] unsigned char 
  8151 ;; Return value:  Size  Location     Type
  8152 ;;                  1    wreg      void 
  8153 ;; Registers used:
  8154 ;;		wreg, status,2, status,0, pclath, cstack
  8155 ;; Tracked objects:
  8156 ;;		On entry : 0/0
  8157 ;;		On exit  : 0/0
  8158 ;;		Unchanged: 0/0
  8159 ;; Data sizes:     COMMON   BANK0   BANK1   BANK3   BANK2
  8160 ;;      Params:         0       0       0       0       0
  8161 ;;      Locals:         1       0       0       0       0
  8162 ;;      Temps:          2       0       0       0       0
  8163 ;;      Totals:         3       0       0       0       0
  8164 ;;Total ram usage:        3 bytes
  8165 ;; Hardware stack levels used: 1
  8166 ;; Hardware stack levels required when called: 1
  8167 ;; This function calls:
  8168 ;;		_LCD_PulseEnable
  8169 ;; This function is called by:
  8170 ;;		_LCD_Init
  8171 ;;		_LCD_Set_Cursor
  8172 ;;		_LCD_Clear
  8173 ;; This function uses a non-reentrant model
  8174 ;;
  8175                           
  8176     1209                     _LCD_Cmd:	
  8177                           ;psect for function _LCD_Cmd
  8178                           
  8179                           
  8180                           ;incstack = 0
  8181                           ; Regs used in _LCD_Cmd: [wreg+status,2+status,0+pclath+cstack]
  8182                           ;LCD_Cmd@cmd stored from wreg
  8183     1209  00F2               	movwf	LCD_Cmd@cmd
  8184     120A                     l3006:
  8185                           
  8186                           ;Proy3.c: 31:     RD0 = 0;
  8187     120A  1283               	bcf	3,5	;RP0=0, select bank0
  8188     120B  1303               	bcf	3,6	;RP1=0, select bank0
  8189     120C  1008               	bcf	8,0	;volatile
  8190     120D                     l3008:
  8191                           
  8192                           ;Proy3.c: 32:     RD2 = (cmd >> 4) & 1;
  8193     120D  0872               	movf	LCD_Cmd@cmd,w
  8194     120E  00F0               	movwf	??_LCD_Cmd
  8195     120F  3004               	movlw	4
  8196     1210                     u4925:
  8197     1210  1003               	clrc
  8198     1211  0CF0               	rrf	??_LCD_Cmd,f
  8199     1212  3EFF               	addlw	-1
  8200     1213  1D03               	skipz
  8201     1214  2A10               	goto	u4925
  8202     1215  1870               	btfsc	??_LCD_Cmd,0
  8203     1216  2A18               	goto	u4931
  8204     1217  2A1C               	goto	u4930
  8205     1218                     u4931:
  8206     1218  1283               	bcf	3,5	;RP0=0, select bank0
  8207     1219  1303               	bcf	3,6	;RP1=0, select bank0
  8208     121A  1508               	bsf	8,2	;volatile
  8209     121B  2A1F               	goto	u4944
  8210     121C                     u4930:
  8211     121C  1283               	bcf	3,5	;RP0=0, select bank0
  8212     121D  1303               	bcf	3,6	;RP1=0, select bank0
  8213     121E  1108               	bcf	8,2	;volatile
  8214     121F                     u4944:
  8215                           
  8216                           ;Proy3.c: 33:     RD3 = (cmd >> 5) & 1;
  8217     121F  0872               	movf	LCD_Cmd@cmd,w
  8218     1220  00F0               	movwf	??_LCD_Cmd
  8219     1221  3005               	movlw	5
  8220     1222                     u4955:
  8221     1222  1003               	clrc
  8222     1223  0CF0               	rrf	??_LCD_Cmd,f
  8223     1224  3EFF               	addlw	-1
  8224     1225  1D03               	skipz
  8225     1226  2A22               	goto	u4955
  8226     1227  1870               	btfsc	??_LCD_Cmd,0
  8227     1228  2A2A               	goto	u4961
  8228     1229  2A2E               	goto	u4960
  8229     122A                     u4961:
  8230     122A  1283               	bcf	3,5	;RP0=0, select bank0
  8231     122B  1303               	bcf	3,6	;RP1=0, select bank0
  8232     122C  1588               	bsf	8,3	;volatile
  8233     122D  2A31               	goto	u4974
  8234     122E                     u4960:
  8235     122E  1283               	bcf	3,5	;RP0=0, select bank0
  8236     122F  1303               	bcf	3,6	;RP1=0, select bank0
  8237     1230  1188               	bcf	8,3	;volatile
  8238     1231                     u4974:
  8239                           
  8240                           ;Proy3.c: 34:     RD4 = (cmd >> 6) & 1;
  8241     1231  0872               	movf	LCD_Cmd@cmd,w
  8242     1232  00F0               	movwf	??_LCD_Cmd
  8243     1233  3006               	movlw	6
  8244     1234                     u4985:
  8245     1234  1003               	clrc
  8246     1235  0CF0               	rrf	??_LCD_Cmd,f
  8247     1236  3EFF               	addlw	-1
  8248     1237  1D03               	skipz
  8249     1238  2A34               	goto	u4985
  8250     1239  1870               	btfsc	??_LCD_Cmd,0
  8251     123A  2A3C               	goto	u4991
  8252     123B  2A40               	goto	u4990
  8253     123C                     u4991:
  8254     123C  1283               	bcf	3,5	;RP0=0, select bank0
  8255     123D  1303               	bcf	3,6	;RP1=0, select bank0
  8256     123E  1608               	bsf	8,4	;volatile
  8257     123F  2A43               	goto	u5004
  8258     1240                     u4990:
  8259     1240  1283               	bcf	3,5	;RP0=0, select bank0
  8260     1241  1303               	bcf	3,6	;RP1=0, select bank0
  8261     1242  1208               	bcf	8,4	;volatile
  8262     1243                     u5004:
  8263                           
  8264                           ;Proy3.c: 35:     RD5 = (cmd >> 7) & 1;
  8265     1243  0872               	movf	LCD_Cmd@cmd,w
  8266     1244  00F0               	movwf	??_LCD_Cmd
  8267     1245  3007               	movlw	7
  8268     1246                     u5015:
  8269     1246  1003               	clrc
  8270     1247  0CF0               	rrf	??_LCD_Cmd,f
  8271     1248  3EFF               	addlw	-1
  8272     1249  1D03               	skipz
  8273     124A  2A46               	goto	u5015
  8274     124B  1870               	btfsc	??_LCD_Cmd,0
  8275     124C  2A4E               	goto	u5021
  8276     124D  2A52               	goto	u5020
  8277     124E                     u5021:
  8278     124E  1283               	bcf	3,5	;RP0=0, select bank0
  8279     124F  1303               	bcf	3,6	;RP1=0, select bank0
  8280     1250  1688               	bsf	8,5	;volatile
  8281     1251  2A55               	goto	u5034
  8282     1252                     u5020:
  8283     1252  1283               	bcf	3,5	;RP0=0, select bank0
  8284     1253  1303               	bcf	3,6	;RP1=0, select bank0
  8285     1254  1288               	bcf	8,5	;volatile
  8286     1255                     u5034:
  8287     1255                     l3010:
  8288                           
  8289                           ;Proy3.c: 36:     LCD_PulseEnable();
  8290     1255  160A  158A  259C  160A  118A  	fcall	_LCD_PulseEnable
  8291     125A                     l3012:
  8292                           
  8293                           ;Proy3.c: 37:     _delay((unsigned long)((200)*(8000000/4000000.0)));
  8294     125A  3085               	movlw	133
  8295     125B  00F0               	movwf	??_LCD_Cmd
  8296     125C                     u5697:
  8297     125C  0BF0               	decfsz	??_LCD_Cmd,f
  8298     125D  2A5C               	goto	u5697
  8299     125E                     l3014:
  8300                           
  8301                           ;Proy3.c: 38:     RD2 = cmd & 1;
  8302     125E  1872               	btfsc	LCD_Cmd@cmd,0
  8303     125F  2A61               	goto	u5041
  8304     1260  2A65               	goto	u5040
  8305     1261                     u5041:
  8306     1261  1283               	bcf	3,5	;RP0=0, select bank0
  8307     1262  1303               	bcf	3,6	;RP1=0, select bank0
  8308     1263  1508               	bsf	8,2	;volatile
  8309     1264  2A68               	goto	u5054
  8310     1265                     u5040:
  8311     1265  1283               	bcf	3,5	;RP0=0, select bank0
  8312     1266  1303               	bcf	3,6	;RP1=0, select bank0
  8313     1267  1108               	bcf	8,2	;volatile
  8314     1268                     u5054:
  8315     1268                     l3016:
  8316                           
  8317                           ;Proy3.c: 39:     RD3 = (cmd >> 1) & 1;
  8318     1268  0872               	movf	LCD_Cmd@cmd,w
  8319     1269  00F0               	movwf	??_LCD_Cmd
  8320     126A  3001               	movlw	1
  8321     126B                     u5065:
  8322     126B  1003               	clrc
  8323     126C  0CF0               	rrf	??_LCD_Cmd,f
  8324     126D  3EFF               	addlw	-1
  8325     126E  1D03               	skipz
  8326     126F  2A6B               	goto	u5065
  8327     1270  1870               	btfsc	??_LCD_Cmd,0
  8328     1271  2A73               	goto	u5071
  8329     1272  2A77               	goto	u5070
  8330     1273                     u5071:
  8331     1273  1283               	bcf	3,5	;RP0=0, select bank0
  8332     1274  1303               	bcf	3,6	;RP1=0, select bank0
  8333     1275  1588               	bsf	8,3	;volatile
  8334     1276  2A7A               	goto	u5084
  8335     1277                     u5070:
  8336     1277  1283               	bcf	3,5	;RP0=0, select bank0
  8337     1278  1303               	bcf	3,6	;RP1=0, select bank0
  8338     1279  1188               	bcf	8,3	;volatile
  8339     127A                     u5084:
  8340     127A                     l3018:
  8341                           
  8342                           ;Proy3.c: 40:     RD4 = (cmd >> 2) & 1;
  8343     127A  0872               	movf	LCD_Cmd@cmd,w
  8344     127B  00F0               	movwf	??_LCD_Cmd
  8345     127C  3002               	movlw	2
  8346     127D                     u5095:
  8347     127D  1003               	clrc
  8348     127E  0CF0               	rrf	??_LCD_Cmd,f
  8349     127F  3EFF               	addlw	-1
  8350     1280  1D03               	skipz
  8351     1281  2A7D               	goto	u5095
  8352     1282  1870               	btfsc	??_LCD_Cmd,0
  8353     1283  2A85               	goto	u5101
  8354     1284  2A89               	goto	u5100
  8355     1285                     u5101:
  8356     1285  1283               	bcf	3,5	;RP0=0, select bank0
  8357     1286  1303               	bcf	3,6	;RP1=0, select bank0
  8358     1287  1608               	bsf	8,4	;volatile
  8359     1288  2A8C               	goto	u5114
  8360     1289                     u5100:
  8361     1289  1283               	bcf	3,5	;RP0=0, select bank0
  8362     128A  1303               	bcf	3,6	;RP1=0, select bank0
  8363     128B  1208               	bcf	8,4	;volatile
  8364     128C                     u5114:
  8365     128C                     l3020:
  8366                           
  8367                           ;Proy3.c: 41:     RD5 = (cmd >> 3) & 1;
  8368     128C  0872               	movf	LCD_Cmd@cmd,w
  8369     128D  00F0               	movwf	??_LCD_Cmd
  8370     128E  3003               	movlw	3
  8371     128F                     u5125:
  8372     128F  1003               	clrc
  8373     1290  0CF0               	rrf	??_LCD_Cmd,f
  8374     1291  3EFF               	addlw	-1
  8375     1292  1D03               	skipz
  8376     1293  2A8F               	goto	u5125
  8377     1294  1870               	btfsc	??_LCD_Cmd,0
  8378     1295  2A97               	goto	u5131
  8379     1296  2A9B               	goto	u5130
  8380     1297                     u5131:
  8381     1297  1283               	bcf	3,5	;RP0=0, select bank0
  8382     1298  1303               	bcf	3,6	;RP1=0, select bank0
  8383     1299  1688               	bsf	8,5	;volatile
  8384     129A  2A9E               	goto	u5144
  8385     129B                     u5130:
  8386     129B  1283               	bcf	3,5	;RP0=0, select bank0
  8387     129C  1303               	bcf	3,6	;RP1=0, select bank0
  8388     129D  1288               	bcf	8,5	;volatile
  8389     129E                     u5144:
  8390     129E                     l3022:
  8391                           
  8392                           ;Proy3.c: 42:     LCD_PulseEnable();
  8393     129E  160A  158A  259C  160A  118A  	fcall	_LCD_PulseEnable
  8394                           
  8395                           ;Proy3.c: 43:     _delay((unsigned long)((2)*(8000000/4000.0)));
  8396     12A3  3006               	movlw	6
  8397     12A4  00F1               	movwf	??_LCD_Cmd+1
  8398     12A5  3030               	movlw	48
  8399     12A6  00F0               	movwf	??_LCD_Cmd
  8400     12A7                     u5707:
  8401     12A7  0BF0               	decfsz	??_LCD_Cmd,f
  8402     12A8  2AA7               	goto	u5707
  8403     12A9  0BF1               	decfsz	??_LCD_Cmd+1,f
  8404     12AA  2AA7               	goto	u5707
  8405     12AB  0000               	nop
  8406     12AC                     l40:
  8407     12AC  0008               	return
  8408     12AD                     __end_of_LCD_Cmd:
  8409                           
  8410                           	psect	text34
  8411     1D9C                     __ptext34:	
  8412 ;; *************** function _LCD_PulseEnable *****************
  8413 ;; Defined at:
  8414 ;;		line 24 in file "Proy3.c"
  8415 ;; Parameters:    Size  Location     Type
  8416 ;;		None
  8417 ;; Auto vars:     Size  Location     Type
  8418 ;;		None
  8419 ;; Return value:  Size  Location     Type
  8420 ;;                  1    wreg      void 
  8421 ;; Registers used:
  8422 ;;		None
  8423 ;; Tracked objects:
  8424 ;;		On entry : 0/0
  8425 ;;		On exit  : 0/0
  8426 ;;		Unchanged: 0/0
  8427 ;; Data sizes:     COMMON   BANK0   BANK1   BANK3   BANK2
  8428 ;;      Params:         0       0       0       0       0
  8429 ;;      Locals:         0       0       0       0       0
  8430 ;;      Temps:          0       0       0       0       0
  8431 ;;      Totals:         0       0       0       0       0
  8432 ;;Total ram usage:        0 bytes
  8433 ;; Hardware stack levels used: 1
  8434 ;; This function calls:
  8435 ;;		Nothing
  8436 ;; This function is called by:
  8437 ;;		_LCD_Cmd
  8438 ;;		_LCD_Char
  8439 ;; This function uses a non-reentrant model
  8440 ;;
  8441                           
  8442     1D9C                     _LCD_PulseEnable:	
  8443                           ;psect for function _LCD_PulseEnable
  8444                           
  8445     1D9C                     l2948:	
  8446                           ;incstack = 0
  8447                           ; Regs used in _LCD_PulseEnable: []
  8448                           
  8449                           
  8450                           ;Proy3.c: 25:     RD1 = 1;
  8451     1D9C  1283               	bcf	3,5	;RP0=0, select bank0
  8452     1D9D  1303               	bcf	3,6	;RP1=0, select bank0
  8453     1D9E  1488               	bsf	8,1	;volatile
  8454                           
  8455                           ;Proy3.c: 26:     _delay((unsigned long)((1)*(8000000/4000000.0)));
  8456     1D9F  2DA0               	nop2	;2 cycle nop
  8457                           
  8458                           ;Proy3.c: 27:     RD1 = 0;
  8459     1DA0  1283               	bcf	3,5	;RP0=0, select bank0
  8460     1DA1  1303               	bcf	3,6	;RP1=0, select bank0
  8461     1DA2  1088               	bcf	8,1	;volatile
  8462     1DA3                     l37:
  8463     1DA3  0008               	return
  8464     1DA4                     __end_of_LCD_PulseEnable:
  8465     0002                     ___latbits      equ	2
  8466     007E                     btemp           set	126	;btemp
  8467     007E                     wtemp0          set	126
  8468                           
  8469                           	psect	config
  8470                           
  8471                           ;Config register CONFIG1 @ 0x2007
  8472                           ;	Oscillator Selection bits
  8473                           ;	FOSC = INTRC_NOCLKOUT, INTOSCIO oscillator: I/O function on RA6/OSC2/CLKOUT pin, I/O f
      +                          unction on RA7/OSC1/CLKIN
  8474                           ;	Watchdog Timer Enable bit
  8475                           ;	WDTE = OFF, WDT disabled and can be enabled by SWDTEN bit of the WDTCON register
  8476                           ;	Power-up Timer Enable bit
  8477                           ;	PWRTE = OFF, PWRT disabled
  8478                           ;	RE3/MCLR pin function select bit
  8479                           ;	MCLRE = ON, RE3/MCLR pin function is MCLR
  8480                           ;	Code Protection bit
  8481                           ;	CP = OFF, Program memory code protection is disabled
  8482                           ;	Data Code Protection bit
  8483                           ;	CPD = OFF, Data memory code protection is disabled
  8484                           ;	Brown Out Reset Selection bits
  8485                           ;	BOREN = OFF, BOR disabled
  8486                           ;	Internal External Switchover bit
  8487                           ;	IESO = OFF, Internal/External Switchover mode is disabled
  8488                           ;	Fail-Safe Clock Monitor Enabled bit
  8489                           ;	FCMEN = OFF, Fail-Safe Clock Monitor is disabled
  8490                           ;	Low Voltage Programming Enable bit
  8491                           ;	LVP = OFF, RB3 pin has digital I/O, HV on MCLR must be used for programming
  8492                           ;	In-Circuit Debugger Mode bit
  8493                           ;	DEBUG = 0x1, unprogrammed default
  8494     2007                     	org	8199
  8495     2007  20F4               	dw	8436
  8496                           
  8497                           ;Config register CONFIG2 @ 0x2008
  8498                           ;	Brown-out Reset Selection bit
  8499                           ;	BOR4V = BOR40V, Brown-out Reset set to 4.0V
  8500                           ;	Flash Program Memory Self Write Enable bits
  8501                           ;	WRT = OFF, Write protection off
  8502     2008                     	org	8200
  8503     2008  3FFF               	dw	16383
  8504                           
  8505                           	psect	text6_split_1
  8506     0047                     l2766:
  8507                           
  8508                           ;C:\Program Files\Microchip\xc8\v3.00\pic\sources\c99\common\doprnt.c: 657:     u.f = 1.
      +                          0;
  8509     0047  303F               	movlw	63
  8510     0048  1683               	bsf	3,5	;RP0=1, select bank1
  8511     0049  1303               	bcf	3,6	;RP1=0, select bank1
  8512     004A  00CB               	movwf	(efgtoa@u+3)^(0+128)
  8513     004B  3080               	movlw	128
  8514     004C  00CA               	movwf	(efgtoa@u+2)^(0+128)
  8515     004D  3000               	movlw	0
  8516     004E  00C9               	movwf	(efgtoa@u+1)^(0+128)
  8517     004F  3000               	movlw	0
  8518     0050  00C8               	movwf	efgtoa@u^(0+128)
  8519     0051                     l2768:
  8520                           
  8521                           ;C:\Program Files\Microchip\xc8\v3.00\pic\sources\c99\common\doprnt.c: 658:     e = 0;
  8522     0051  01AF               	clrf	efgtoa@e^(0+128)
  8523     0052  01B0               	clrf	(efgtoa@e+1)^(0+128)
  8524     0053                     l2770:
  8525                           
  8526                           ;C:\Program Files\Microchip\xc8\v3.00\pic\sources\c99\common\doprnt.c: 659:  if (!(g.f =
      +                          = 0.0)) {
  8527     0053  0847               	movf	(efgtoa@g+3)^(0+128),w
  8528     0054  00F3               	movwf	___fleq@ff1+3
  8529     0055  0846               	movf	(efgtoa@g+2)^(0+128),w
  8530     0056  00F2               	movwf	___fleq@ff1+2
  8531     0057  0845               	movf	(efgtoa@g+1)^(0+128),w
  8532     0058  00F1               	movwf	___fleq@ff1+1
  8533     0059  0844               	movf	efgtoa@g^(0+128),w
  8534     005A  00F0               	movwf	___fleq@ff1
  8535     005B  3000               	movlw	0
  8536     005C  00F7               	movwf	___fleq@ff2+3
  8537     005D  3000               	movlw	0
  8538     005E  00F6               	movwf	___fleq@ff2+2
  8539     005F  3000               	movlw	0
  8540     0060  00F5               	movwf	___fleq@ff2+1
  8541     0061  3000               	movlw	0
  8542     0062  00F4               	movwf	___fleq@ff2
  8543     0063  160A  158A  27B2  120A  118A  	fcall	___fleq
  8544     0068  1803               	btfsc	3,0
  8545     0069  286B               	goto	u4591
  8546     006A  286C               	goto	u4590
  8547     006B                     u4591:
  8548     006B  2A9B               	goto	l2796
  8549     006C                     u4590:
  8550     006C  287D               	goto	l2776
  8551     006D                     l2774:
  8552                           
  8553                           ;C:\Program Files\Microchip\xc8\v3.00\pic\sources\c99\common\doprnt.c: 661:    u = ou;
  8554     006D  1683               	bsf	3,5	;RP0=1, select bank1
  8555     006E  1303               	bcf	3,6	;RP1=0, select bank1
  8556     006F  0836               	movf	(efgtoa@ou+3)^(0+128),w
  8557     0070  00CB               	movwf	(efgtoa@u+3)^(0+128)
  8558     0071  0835               	movf	(efgtoa@ou+2)^(0+128),w
  8559     0072  00CA               	movwf	(efgtoa@u+2)^(0+128)
  8560     0073  0834               	movf	(efgtoa@ou+1)^(0+128),w
  8561     0074  00C9               	movwf	(efgtoa@u+1)^(0+128)
  8562     0075  0833               	movf	efgtoa@ou^(0+128),w
  8563     0076  00C8               	movwf	efgtoa@u^(0+128)
  8564                           
  8565                           ;C:\Program Files\Microchip\xc8\v3.00\pic\sources\c99\common\doprnt.c: 662:    ++e;
  8566     0077  3001               	movlw	1
  8567     0078  07AF               	addwf	efgtoa@e^(0+128),f
  8568     0079  1803               	skipnc
  8569     007A  0AB0               	incf	(efgtoa@e+1)^(0+128),f
  8570     007B  3000               	movlw	0
  8571     007C  07B0               	addwf	(efgtoa@e+1)^(0+128),f
  8572     007D                     l2776:
  8573                           
  8574                           ;C:\Program Files\Microchip\xc8\v3.00\pic\sources\c99\common\doprnt.c: 660:   while ((la
      +                          bs((g).u-((ou.f = u.f*10.0,ou)).u) <= 1) || g.f > ou.f) {
  8575     007D  3041               	movlw	65
  8576     007E  1283               	bcf	3,5	;RP0=0, select bank0
  8577     007F  1303               	bcf	3,6	;RP1=0, select bank0
  8578     0080  00A3               	movwf	___flmul@b+3
  8579     0081  3020               	movlw	32
  8580     0082  00A2               	movwf	___flmul@b+2
  8581     0083  3000               	movlw	0
  8582     0084  00A1               	movwf	___flmul@b+1
  8583     0085  3000               	movlw	0
  8584     0086  00A0               	movwf	___flmul@b
  8585     0087  1683               	bsf	3,5	;RP0=1, select bank1
  8586     0088  1303               	bcf	3,6	;RP1=0, select bank1
  8587     0089  084B               	movf	(efgtoa@u+3)^(0+128),w
  8588     008A  1283               	bcf	3,5	;RP0=0, select bank0
  8589     008B  1303               	bcf	3,6	;RP1=0, select bank0
  8590     008C  00A7               	movwf	___flmul@a+3
  8591     008D  1683               	bsf	3,5	;RP0=1, select bank1
  8592     008E  1303               	bcf	3,6	;RP1=0, select bank1
  8593     008F  084A               	movf	(efgtoa@u+2)^(0+128),w
  8594     0090  1283               	bcf	3,5	;RP0=0, select bank0
  8595     0091  1303               	bcf	3,6	;RP1=0, select bank0
  8596     0092  00A6               	movwf	___flmul@a+2
  8597     0093  1683               	bsf	3,5	;RP0=1, select bank1
  8598     0094  1303               	bcf	3,6	;RP1=0, select bank1
  8599     0095  0849               	movf	(efgtoa@u+1)^(0+128),w
  8600     0096  1283               	bcf	3,5	;RP0=0, select bank0
  8601     0097  1303               	bcf	3,6	;RP1=0, select bank0
  8602     0098  00A5               	movwf	___flmul@a+1
  8603     0099  1683               	bsf	3,5	;RP0=1, select bank1
  8604     009A  1303               	bcf	3,6	;RP1=0, select bank1
  8605     009B  0848               	movf	efgtoa@u^(0+128),w
  8606     009C  1283               	bcf	3,5	;RP0=0, select bank0
  8607     009D  1303               	bcf	3,6	;RP1=0, select bank0
  8608     009E  00A4               	movwf	___flmul@a
  8609     009F  120A  158A  24BE  120A  118A  	fcall	___flmul
  8610     00A4  1283               	bcf	3,5	;RP0=0, select bank0
  8611     00A5  1303               	bcf	3,6	;RP1=0, select bank0
  8612     00A6  0823               	movf	?___flmul+3,w
  8613     00A7  1683               	bsf	3,5	;RP0=1, select bank1
  8614     00A8  1303               	bcf	3,6	;RP1=0, select bank1
  8615     00A9  00B6               	movwf	(efgtoa@ou+3)^(0+128)
  8616     00AA  1283               	bcf	3,5	;RP0=0, select bank0
  8617     00AB  1303               	bcf	3,6	;RP1=0, select bank0
  8618     00AC  0822               	movf	?___flmul+2,w
  8619     00AD  1683               	bsf	3,5	;RP0=1, select bank1
  8620     00AE  1303               	bcf	3,6	;RP1=0, select bank1
  8621     00AF  00B5               	movwf	(efgtoa@ou+2)^(0+128)
  8622     00B0  1283               	bcf	3,5	;RP0=0, select bank0
  8623     00B1  1303               	bcf	3,6	;RP1=0, select bank0
  8624     00B2  0821               	movf	?___flmul+1,w
  8625     00B3  1683               	bsf	3,5	;RP0=1, select bank1
  8626     00B4  1303               	bcf	3,6	;RP1=0, select bank1
  8627     00B5  00B4               	movwf	(efgtoa@ou+1)^(0+128)
  8628     00B6  1283               	bcf	3,5	;RP0=0, select bank0
  8629     00B7  1303               	bcf	3,6	;RP1=0, select bank0
  8630     00B8  0820               	movf	?___flmul,w
  8631     00B9  1683               	bsf	3,5	;RP0=1, select bank1
  8632     00BA  1303               	bcf	3,6	;RP1=0, select bank1
  8633     00BB  00B3               	movwf	efgtoa@ou^(0+128)
  8634     00BC                     l2778:
  8635     00BC  0844               	movf	efgtoa@g^(0+128),w
  8636     00BD  1283               	bcf	3,5	;RP0=0, select bank0
  8637     00BE  1303               	bcf	3,6	;RP1=0, select bank0
  8638     00BF  00D5               	movwf	??_efgtoa
  8639     00C0  1683               	bsf	3,5	;RP0=1, select bank1
  8640     00C1  1303               	bcf	3,6	;RP1=0, select bank1
  8641     00C2  0845               	movf	(efgtoa@g+1)^(0+128),w
  8642     00C3  1283               	bcf	3,5	;RP0=0, select bank0
  8643     00C4  1303               	bcf	3,6	;RP1=0, select bank0
  8644     00C5  00D6               	movwf	??_efgtoa+1
  8645     00C6  1683               	bsf	3,5	;RP0=1, select bank1
  8646     00C7  1303               	bcf	3,6	;RP1=0, select bank1
  8647     00C8  0846               	movf	(efgtoa@g+2)^(0+128),w
  8648     00C9  1283               	bcf	3,5	;RP0=0, select bank0
  8649     00CA  1303               	bcf	3,6	;RP1=0, select bank0
  8650     00CB  00D7               	movwf	??_efgtoa+2
  8651     00CC  1683               	bsf	3,5	;RP0=1, select bank1
  8652     00CD  1303               	bcf	3,6	;RP1=0, select bank1
  8653     00CE  0847               	movf	(efgtoa@g+3)^(0+128),w
  8654     00CF  1283               	bcf	3,5	;RP0=0, select bank0
  8655     00D0  1303               	bcf	3,6	;RP1=0, select bank0
  8656     00D1  00D8               	movwf	??_efgtoa+3
  8657     00D2  1683               	bsf	3,5	;RP0=1, select bank1
  8658     00D3  1303               	bcf	3,6	;RP1=0, select bank1
  8659     00D4  0833               	movf	efgtoa@ou^(0+128),w
  8660     00D5  1283               	bcf	3,5	;RP0=0, select bank0
  8661     00D6  1303               	bcf	3,6	;RP1=0, select bank0
  8662     00D7  02D5               	subwf	??_efgtoa,f
  8663     00D8  1683               	bsf	3,5	;RP0=1, select bank1
  8664     00D9  1303               	bcf	3,6	;RP1=0, select bank1
  8665     00DA  0834               	movf	(efgtoa@ou+1)^(0+128),w
  8666     00DB  1C03               	skipc
  8667     00DC  0F34               	incfsz	(efgtoa@ou+1)^(0+128),w
  8668     00DD  28DF               	goto	u4601
  8669     00DE  28E2               	goto	u4602
  8670     00DF                     u4601:
  8671     00DF  1283               	bcf	3,5	;RP0=0, select bank0
  8672     00E0  1303               	bcf	3,6	;RP1=0, select bank0
  8673     00E1  02D6               	subwf	??_efgtoa+1,f
  8674     00E2                     u4602:
  8675     00E2  1683               	bsf	3,5	;RP0=1, select bank1
  8676     00E3  1303               	bcf	3,6	;RP1=0, select bank1
  8677     00E4  0835               	movf	(efgtoa@ou+2)^(0+128),w
  8678     00E5  1C03               	skipc
  8679     00E6  0F35               	incfsz	(efgtoa@ou+2)^(0+128),w
  8680     00E7  28E9               	goto	u4603
  8681     00E8  28EC               	goto	u4604
  8682     00E9                     u4603:
  8683     00E9  1283               	bcf	3,5	;RP0=0, select bank0
  8684     00EA  1303               	bcf	3,6	;RP1=0, select bank0
  8685     00EB  02D7               	subwf	??_efgtoa+2,f
  8686     00EC                     u4604:
  8687     00EC  1683               	bsf	3,5	;RP0=1, select bank1
  8688     00ED  1303               	bcf	3,6	;RP1=0, select bank1
  8689     00EE  0836               	movf	(efgtoa@ou+3)^(0+128),w
  8690     00EF  1C03               	skipc
  8691     00F0  0F36               	incfsz	(efgtoa@ou+3)^(0+128),w
  8692     00F1  28F3               	goto	u4605
  8693     00F2  28F6               	goto	u4606
  8694     00F3                     u4605:
  8695     00F3  1283               	bcf	3,5	;RP0=0, select bank0
  8696     00F4  1303               	bcf	3,6	;RP1=0, select bank0
  8697     00F5  02D8               	subwf	??_efgtoa+3,f
  8698     00F6                     u4606:
  8699     00F6  1683               	bsf	3,5	;RP0=1, select bank1
  8700     00F7  1303               	bcf	3,6	;RP1=0, select bank1
  8701     00F8  1283               	bcf	3,5	;RP0=0, select bank0
  8702     00F9  1303               	bcf	3,6	;RP1=0, select bank0
  8703     00FA  0858               	movf	??_efgtoa+3,w
  8704     00FB  00F3               	movwf	labs@a+3
  8705     00FC  0857               	movf	??_efgtoa+2,w
  8706     00FD  00F2               	movwf	labs@a+2
  8707     00FE  0856               	movf	??_efgtoa+1,w
  8708     00FF  00F1               	movwf	labs@a+1
  8709     0100  0855               	movf	??_efgtoa,w
  8710     0101  00F0               	movwf	labs@a
  8711     0102  160A  158A  25C0  120A  118A  	fcall	_labs
  8712     0107  1BF3               	btfsc	?_labs+3,7
  8713     0108  2919               	goto	u4611
  8714     0109  0873               	movf	?_labs+3,w
  8715     010A  1D03               	btfss	3,2
  8716     010B  291A               	goto	u4610
  8717     010C  0872               	movf	?_labs+2,w
  8718     010D  1D03               	btfss	3,2
  8719     010E  291A               	goto	u4610
  8720     010F  0871               	movf	?_labs+1,w
  8721     0110  1D03               	btfss	3,2
  8722     0111  291A               	goto	u4610
  8723     0112  3002               	movlw	2
  8724     0113  0270               	subwf	?_labs,w
  8725     0114  1D03               	skipz
  8726     0115  2916               	goto	u4613
  8727     0116                     u4613:
  8728     0116  1C03               	btfss	3,0
  8729     0117  2919               	goto	u4611
  8730     0118  291A               	goto	u4610
  8731     0119                     u4611:
  8732     0119  286D               	goto	l2774
  8733     011A                     u4610:
  8734     011A                     l2780:
  8735     011A  1683               	bsf	3,5	;RP0=1, select bank1
  8736     011B  1303               	bcf	3,6	;RP1=0, select bank1
  8737     011C  0836               	movf	(efgtoa@ou+3)^(0+128),w
  8738     011D  1283               	bcf	3,5	;RP0=0, select bank0
  8739     011E  1303               	bcf	3,6	;RP1=0, select bank0
  8740     011F  00B8               	movwf	___flge@ff1+3
  8741     0120  1683               	bsf	3,5	;RP0=1, select bank1
  8742     0121  1303               	bcf	3,6	;RP1=0, select bank1
  8743     0122  0835               	movf	(efgtoa@ou+2)^(0+128),w
  8744     0123  1283               	bcf	3,5	;RP0=0, select bank0
  8745     0124  1303               	bcf	3,6	;RP1=0, select bank0
  8746     0125  00B7               	movwf	___flge@ff1+2
  8747     0126  1683               	bsf	3,5	;RP0=1, select bank1
  8748     0127  1303               	bcf	3,6	;RP1=0, select bank1
  8749     0128  0834               	movf	(efgtoa@ou+1)^(0+128),w
  8750     0129  1283               	bcf	3,5	;RP0=0, select bank0
  8751     012A  1303               	bcf	3,6	;RP1=0, select bank0
  8752     012B  00B6               	movwf	___flge@ff1+1
  8753     012C  1683               	bsf	3,5	;RP0=1, select bank1
  8754     012D  1303               	bcf	3,6	;RP1=0, select bank1
  8755     012E  0833               	movf	efgtoa@ou^(0+128),w
  8756     012F  1283               	bcf	3,5	;RP0=0, select bank0
  8757     0130  1303               	bcf	3,6	;RP1=0, select bank0
  8758     0131  00B5               	movwf	___flge@ff1
  8759     0132  1683               	bsf	3,5	;RP0=1, select bank1
  8760     0133  1303               	bcf	3,6	;RP1=0, select bank1
  8761     0134  0847               	movf	(efgtoa@g+3)^(0+128),w
  8762     0135  1283               	bcf	3,5	;RP0=0, select bank0
  8763     0136  1303               	bcf	3,6	;RP1=0, select bank0
  8764     0137  00BC               	movwf	___flge@ff2+3
  8765     0138  1683               	bsf	3,5	;RP0=1, select bank1
  8766     0139  1303               	bcf	3,6	;RP1=0, select bank1
  8767     013A  0846               	movf	(efgtoa@g+2)^(0+128),w
  8768     013B  1283               	bcf	3,5	;RP0=0, select bank0
  8769     013C  1303               	bcf	3,6	;RP1=0, select bank0
  8770     013D  00BB               	movwf	___flge@ff2+2
  8771     013E  1683               	bsf	3,5	;RP0=1, select bank1
  8772     013F  1303               	bcf	3,6	;RP1=0, select bank1
  8773     0140  0845               	movf	(efgtoa@g+1)^(0+128),w
  8774     0141  1283               	bcf	3,5	;RP0=0, select bank0
  8775     0142  1303               	bcf	3,6	;RP1=0, select bank0
  8776     0143  00BA               	movwf	___flge@ff2+1
  8777     0144  1683               	bsf	3,5	;RP0=1, select bank1
  8778     0145  1303               	bcf	3,6	;RP1=0, select bank1
  8779     0146  0844               	movf	efgtoa@g^(0+128),w
  8780     0147  1283               	bcf	3,5	;RP0=0, select bank0
  8781     0148  1303               	bcf	3,6	;RP1=0, select bank0
  8782     0149  00B9               	movwf	___flge@ff2
  8783     014A  160A  118A  22AD  120A  118A  	fcall	___flge
  8784     014F  1C03               	btfss	3,0
  8785     0150  2952               	goto	u4621
  8786     0151  2953               	goto	u4620
  8787     0152                     u4621:
  8788     0152  286D               	goto	l2774
  8789     0153                     u4620:
  8790     0153                     l2782:
  8791                           
  8792                           ;C:\Program Files\Microchip\xc8\v3.00\pic\sources\c99\common\doprnt.c: 664:   if ((labs(
      +                          (g).u-(u).u) <= 1)) {
  8793     0153  1683               	bsf	3,5	;RP0=1, select bank1
  8794     0154  1303               	bcf	3,6	;RP1=0, select bank1
  8795     0155  0844               	movf	efgtoa@g^(0+128),w
  8796     0156  1283               	bcf	3,5	;RP0=0, select bank0
  8797     0157  1303               	bcf	3,6	;RP1=0, select bank0
  8798     0158  00D5               	movwf	??_efgtoa
  8799     0159  1683               	bsf	3,5	;RP0=1, select bank1
  8800     015A  1303               	bcf	3,6	;RP1=0, select bank1
  8801     015B  0845               	movf	(efgtoa@g+1)^(0+128),w
  8802     015C  1283               	bcf	3,5	;RP0=0, select bank0
  8803     015D  1303               	bcf	3,6	;RP1=0, select bank0
  8804     015E  00D6               	movwf	??_efgtoa+1
  8805     015F  1683               	bsf	3,5	;RP0=1, select bank1
  8806     0160  1303               	bcf	3,6	;RP1=0, select bank1
  8807     0161  0846               	movf	(efgtoa@g+2)^(0+128),w
  8808     0162  1283               	bcf	3,5	;RP0=0, select bank0
  8809     0163  1303               	bcf	3,6	;RP1=0, select bank0
  8810     0164  00D7               	movwf	??_efgtoa+2
  8811     0165  1683               	bsf	3,5	;RP0=1, select bank1
  8812     0166  1303               	bcf	3,6	;RP1=0, select bank1
  8813     0167  0847               	movf	(efgtoa@g+3)^(0+128),w
  8814     0168  1283               	bcf	3,5	;RP0=0, select bank0
  8815     0169  1303               	bcf	3,6	;RP1=0, select bank0
  8816     016A  00D8               	movwf	??_efgtoa+3
  8817     016B  1683               	bsf	3,5	;RP0=1, select bank1
  8818     016C  1303               	bcf	3,6	;RP1=0, select bank1
  8819     016D  0848               	movf	efgtoa@u^(0+128),w
  8820     016E  1283               	bcf	3,5	;RP0=0, select bank0
  8821     016F  1303               	bcf	3,6	;RP1=0, select bank0
  8822     0170  02D5               	subwf	??_efgtoa,f
  8823     0171  1683               	bsf	3,5	;RP0=1, select bank1
  8824     0172  1303               	bcf	3,6	;RP1=0, select bank1
  8825     0173  0849               	movf	(efgtoa@u+1)^(0+128),w
  8826     0174  1C03               	skipc
  8827     0175  0F49               	incfsz	(efgtoa@u+1)^(0+128),w
  8828     0176  2978               	goto	u4631
  8829     0177  297B               	goto	u4632
  8830     0178                     u4631:
  8831     0178  1283               	bcf	3,5	;RP0=0, select bank0
  8832     0179  1303               	bcf	3,6	;RP1=0, select bank0
  8833     017A  02D6               	subwf	??_efgtoa+1,f
  8834     017B                     u4632:
  8835     017B  1683               	bsf	3,5	;RP0=1, select bank1
  8836     017C  1303               	bcf	3,6	;RP1=0, select bank1
  8837     017D  084A               	movf	(efgtoa@u+2)^(0+128),w
  8838     017E  1C03               	skipc
  8839     017F  0F4A               	incfsz	(efgtoa@u+2)^(0+128),w
  8840     0180  2982               	goto	u4633
  8841     0181  2985               	goto	u4634
  8842     0182                     u4633:
  8843     0182  1283               	bcf	3,5	;RP0=0, select bank0
  8844     0183  1303               	bcf	3,6	;RP1=0, select bank0
  8845     0184  02D7               	subwf	??_efgtoa+2,f
  8846     0185                     u4634:
  8847     0185  1683               	bsf	3,5	;RP0=1, select bank1
  8848     0186  1303               	bcf	3,6	;RP1=0, select bank1
  8849     0187  084B               	movf	(efgtoa@u+3)^(0+128),w
  8850     0188  1C03               	skipc
  8851     0189  0F4B               	incfsz	(efgtoa@u+3)^(0+128),w
  8852     018A  298C               	goto	u4635
  8853     018B  298F               	goto	u4636
  8854     018C                     u4635:
  8855     018C  1283               	bcf	3,5	;RP0=0, select bank0
  8856     018D  1303               	bcf	3,6	;RP1=0, select bank0
  8857     018E  02D8               	subwf	??_efgtoa+3,f
  8858     018F                     u4636:
  8859     018F  1683               	bsf	3,5	;RP0=1, select bank1
  8860     0190  1303               	bcf	3,6	;RP1=0, select bank1
  8861     0191  1283               	bcf	3,5	;RP0=0, select bank0
  8862     0192  1303               	bcf	3,6	;RP1=0, select bank0
  8863     0193  0858               	movf	??_efgtoa+3,w
  8864     0194  00F3               	movwf	labs@a+3
  8865     0195  0857               	movf	??_efgtoa+2,w
  8866     0196  00F2               	movwf	labs@a+2
  8867     0197  0856               	movf	??_efgtoa+1,w
  8868     0198  00F1               	movwf	labs@a+1
  8869     0199  0855               	movf	??_efgtoa,w
  8870     019A  00F0               	movwf	labs@a
  8871     019B  160A  158A  25C0  120A  118A  	fcall	_labs
  8872     01A0  1BF3               	btfsc	?_labs+3,7
  8873     01A1  29B3               	goto	u4640
  8874     01A2  0873               	movf	?_labs+3,w
  8875     01A3  1D03               	btfss	3,2
  8876     01A4  29B2               	goto	u4641
  8877     01A5  0872               	movf	?_labs+2,w
  8878     01A6  1D03               	btfss	3,2
  8879     01A7  29B2               	goto	u4641
  8880     01A8  0871               	movf	?_labs+1,w
  8881     01A9  1D03               	btfss	3,2
  8882     01AA  29B2               	goto	u4641
  8883     01AB  3002               	movlw	2
  8884     01AC  0270               	subwf	?_labs,w
  8885     01AD  1D03               	skipz
  8886     01AE  29AF               	goto	u4643
  8887     01AF                     u4643:
  8888     01AF  1803               	btfsc	3,0
  8889     01B0  29B2               	goto	u4641
  8890     01B1  29B3               	goto	u4640
  8891     01B2                     u4641:
  8892     01B2  2A62               	goto	l2794
  8893     01B3                     u4640:
  8894     01B3                     l2784:
  8895                           
  8896                           ;C:\Program Files\Microchip\xc8\v3.00\pic\sources\c99\common\doprnt.c: 665:    g = u;
  8897     01B3  1683               	bsf	3,5	;RP0=1, select bank1
  8898     01B4  1303               	bcf	3,6	;RP1=0, select bank1
  8899     01B5  084B               	movf	(efgtoa@u+3)^(0+128),w
  8900     01B6  00C7               	movwf	(efgtoa@g+3)^(0+128)
  8901     01B7  084A               	movf	(efgtoa@u+2)^(0+128),w
  8902     01B8  00C6               	movwf	(efgtoa@g+2)^(0+128)
  8903     01B9  0849               	movf	(efgtoa@u+1)^(0+128),w
  8904     01BA  00C5               	movwf	(efgtoa@g+1)^(0+128)
  8905     01BB  0848               	movf	efgtoa@u^(0+128),w
  8906     01BC  00C4               	movwf	efgtoa@g^(0+128)
  8907                           
  8908                           ;C:\Program Files\Microchip\xc8\v3.00\pic\sources\c99\common\doprnt.c: 666:   }
  8909     01BD  2A9B               	goto	l2796
  8910     01BE                     l2786:
  8911                           
  8912                           ;C:\Program Files\Microchip\xc8\v3.00\pic\sources\c99\common\doprnt.c: 669:     u.f = u.
      +                          f/10.0;
  8913     01BE  3041               	movlw	65
  8914     01BF  1283               	bcf	3,5	;RP0=0, select bank0
  8915     01C0  1303               	bcf	3,6	;RP1=0, select bank0
  8916     01C1  00A3               	movwf	___fldiv@a+3
  8917     01C2  3020               	movlw	32
  8918     01C3  00A2               	movwf	___fldiv@a+2
  8919     01C4  3000               	movlw	0
  8920     01C5  00A1               	movwf	___fldiv@a+1
  8921     01C6  3000               	movlw	0
  8922     01C7  00A0               	movwf	___fldiv@a
  8923     01C8  1683               	bsf	3,5	;RP0=1, select bank1
  8924     01C9  1303               	bcf	3,6	;RP1=0, select bank1
  8925     01CA  084B               	movf	(efgtoa@u+3)^(0+128),w
  8926     01CB  1283               	bcf	3,5	;RP0=0, select bank0
  8927     01CC  1303               	bcf	3,6	;RP1=0, select bank0
  8928     01CD  00A7               	movwf	___fldiv@b+3
  8929     01CE  1683               	bsf	3,5	;RP0=1, select bank1
  8930     01CF  1303               	bcf	3,6	;RP1=0, select bank1
  8931     01D0  084A               	movf	(efgtoa@u+2)^(0+128),w
  8932     01D1  1283               	bcf	3,5	;RP0=0, select bank0
  8933     01D2  1303               	bcf	3,6	;RP1=0, select bank0
  8934     01D3  00A6               	movwf	___fldiv@b+2
  8935     01D4  1683               	bsf	3,5	;RP0=1, select bank1
  8936     01D5  1303               	bcf	3,6	;RP1=0, select bank1
  8937     01D6  0849               	movf	(efgtoa@u+1)^(0+128),w
  8938     01D7  1283               	bcf	3,5	;RP0=0, select bank0
  8939     01D8  1303               	bcf	3,6	;RP1=0, select bank0
  8940     01D9  00A5               	movwf	___fldiv@b+1
  8941     01DA  1683               	bsf	3,5	;RP0=1, select bank1
  8942     01DB  1303               	bcf	3,6	;RP1=0, select bank1
  8943     01DC  0848               	movf	efgtoa@u^(0+128),w
  8944     01DD  1283               	bcf	3,5	;RP0=0, select bank0
  8945     01DE  1303               	bcf	3,6	;RP1=0, select bank0
  8946     01DF  00A4               	movwf	___fldiv@b
  8947     01E0  120A  158A  2098  120A  118A  	fcall	___fldiv
  8948     01E5  1283               	bcf	3,5	;RP0=0, select bank0
  8949     01E6  1303               	bcf	3,6	;RP1=0, select bank0
  8950     01E7  0823               	movf	?___fldiv+3,w
  8951     01E8  1683               	bsf	3,5	;RP0=1, select bank1
  8952     01E9  1303               	bcf	3,6	;RP1=0, select bank1
  8953     01EA  00CB               	movwf	(efgtoa@u+3)^(0+128)
  8954     01EB  1283               	bcf	3,5	;RP0=0, select bank0
  8955     01EC  1303               	bcf	3,6	;RP1=0, select bank0
  8956     01ED  0822               	movf	?___fldiv+2,w
  8957     01EE  1683               	bsf	3,5	;RP0=1, select bank1
  8958     01EF  1303               	bcf	3,6	;RP1=0, select bank1
  8959     01F0  00CA               	movwf	(efgtoa@u+2)^(0+128)
  8960     01F1  1283               	bcf	3,5	;RP0=0, select bank0
  8961     01F2  1303               	bcf	3,6	;RP1=0, select bank0
  8962     01F3  0821               	movf	?___fldiv+1,w
  8963     01F4  1683               	bsf	3,5	;RP0=1, select bank1
  8964     01F5  1303               	bcf	3,6	;RP1=0, select bank1
  8965     01F6  00C9               	movwf	(efgtoa@u+1)^(0+128)
  8966     01F7  1283               	bcf	3,5	;RP0=0, select bank0
  8967     01F8  1303               	bcf	3,6	;RP1=0, select bank0
  8968     01F9  0820               	movf	?___fldiv,w
  8969     01FA  1683               	bsf	3,5	;RP0=1, select bank1
  8970     01FB  1303               	bcf	3,6	;RP1=0, select bank1
  8971     01FC  00C8               	movwf	efgtoa@u^(0+128)
  8972     01FD                     l2788:
  8973                           
  8974                           ;C:\Program Files\Microchip\xc8\v3.00\pic\sources\c99\common\doprnt.c: 670:     --e;
  8975     01FD  30FF               	movlw	255
  8976     01FE  07AF               	addwf	efgtoa@e^(0+128),f
  8977     01FF  1803               	skipnc
  8978     0200  0AB0               	incf	(efgtoa@e+1)^(0+128),f
  8979     0201  30FF               	movlw	255
  8980     0202  07B0               	addwf	(efgtoa@e+1)^(0+128),f
  8981     0203                     l2790:
  8982                           
  8983                           ;C:\Program Files\Microchip\xc8\v3.00\pic\sources\c99\common\doprnt.c: 671:     if ((lab
      +                          s((g).u-(u).u) <= 1)) {
  8984     0203  0844               	movf	efgtoa@g^(0+128),w
  8985     0204  1283               	bcf	3,5	;RP0=0, select bank0
  8986     0205  1303               	bcf	3,6	;RP1=0, select bank0
  8987     0206  00D5               	movwf	??_efgtoa
  8988     0207  1683               	bsf	3,5	;RP0=1, select bank1
  8989     0208  1303               	bcf	3,6	;RP1=0, select bank1
  8990     0209  0845               	movf	(efgtoa@g+1)^(0+128),w
  8991     020A  1283               	bcf	3,5	;RP0=0, select bank0
  8992     020B  1303               	bcf	3,6	;RP1=0, select bank0
  8993     020C  00D6               	movwf	??_efgtoa+1
  8994     020D  1683               	bsf	3,5	;RP0=1, select bank1
  8995     020E  1303               	bcf	3,6	;RP1=0, select bank1
  8996     020F  0846               	movf	(efgtoa@g+2)^(0+128),w
  8997     0210  1283               	bcf	3,5	;RP0=0, select bank0
  8998     0211  1303               	bcf	3,6	;RP1=0, select bank0
  8999     0212  00D7               	movwf	??_efgtoa+2
  9000     0213  1683               	bsf	3,5	;RP0=1, select bank1
  9001     0214  1303               	bcf	3,6	;RP1=0, select bank1
  9002     0215  0847               	movf	(efgtoa@g+3)^(0+128),w
  9003     0216  1283               	bcf	3,5	;RP0=0, select bank0
  9004     0217  1303               	bcf	3,6	;RP1=0, select bank0
  9005     0218  00D8               	movwf	??_efgtoa+3
  9006     0219  1683               	bsf	3,5	;RP0=1, select bank1
  9007     021A  1303               	bcf	3,6	;RP1=0, select bank1
  9008     021B  0848               	movf	efgtoa@u^(0+128),w
  9009     021C  1283               	bcf	3,5	;RP0=0, select bank0
  9010     021D  1303               	bcf	3,6	;RP1=0, select bank0
  9011     021E  02D5               	subwf	??_efgtoa,f
  9012     021F  1683               	bsf	3,5	;RP0=1, select bank1
  9013     0220  1303               	bcf	3,6	;RP1=0, select bank1
  9014     0221  0849               	movf	(efgtoa@u+1)^(0+128),w
  9015     0222  1C03               	skipc
  9016     0223  0F49               	incfsz	(efgtoa@u+1)^(0+128),w
  9017     0224  2A26               	goto	u4651
  9018     0225  2A29               	goto	u4652
  9019     0226                     u4651:
  9020     0226  1283               	bcf	3,5	;RP0=0, select bank0
  9021     0227  1303               	bcf	3,6	;RP1=0, select bank0
  9022     0228  02D6               	subwf	??_efgtoa+1,f
  9023     0229                     u4652:
  9024     0229  1683               	bsf	3,5	;RP0=1, select bank1
  9025     022A  1303               	bcf	3,6	;RP1=0, select bank1
  9026     022B  084A               	movf	(efgtoa@u+2)^(0+128),w
  9027     022C  1C03               	skipc
  9028     022D  0F4A               	incfsz	(efgtoa@u+2)^(0+128),w
  9029     022E  2A30               	goto	u4653
  9030     022F  2A33               	goto	u4654
  9031     0230                     u4653:
  9032     0230  1283               	bcf	3,5	;RP0=0, select bank0
  9033     0231  1303               	bcf	3,6	;RP1=0, select bank0
  9034     0232  02D7               	subwf	??_efgtoa+2,f
  9035     0233                     u4654:
  9036     0233  1683               	bsf	3,5	;RP0=1, select bank1
  9037     0234  1303               	bcf	3,6	;RP1=0, select bank1
  9038     0235  084B               	movf	(efgtoa@u+3)^(0+128),w
  9039     0236  1C03               	skipc
  9040     0237  0F4B               	incfsz	(efgtoa@u+3)^(0+128),w
  9041     0238  2A3A               	goto	u4655
  9042     0239  2A3D               	goto	u4656
  9043     023A                     u4655:
  9044     023A  1283               	bcf	3,5	;RP0=0, select bank0
  9045     023B  1303               	bcf	3,6	;RP1=0, select bank0
  9046     023C  02D8               	subwf	??_efgtoa+3,f
  9047     023D                     u4656:
  9048     023D  1683               	bsf	3,5	;RP0=1, select bank1
  9049     023E  1303               	bcf	3,6	;RP1=0, select bank1
  9050     023F  1283               	bcf	3,5	;RP0=0, select bank0
  9051     0240  1303               	bcf	3,6	;RP1=0, select bank0
  9052     0241  0858               	movf	??_efgtoa+3,w
  9053     0242  00F3               	movwf	labs@a+3
  9054     0243  0857               	movf	??_efgtoa+2,w
  9055     0244  00F2               	movwf	labs@a+2
  9056     0245  0856               	movf	??_efgtoa+1,w
  9057     0246  00F1               	movwf	labs@a+1
  9058     0247  0855               	movf	??_efgtoa,w
  9059     0248  00F0               	movwf	labs@a
  9060     0249  160A  158A  25C0  120A  118A  	fcall	_labs
  9061     024E  1BF3               	btfsc	?_labs+3,7
  9062     024F  2A61               	goto	u4660
  9063     0250  0873               	movf	?_labs+3,w
  9064     0251  1D03               	btfss	3,2
  9065     0252  2A60               	goto	u4661
  9066     0253  0872               	movf	?_labs+2,w
  9067     0254  1D03               	btfss	3,2
  9068     0255  2A60               	goto	u4661
  9069     0256  0871               	movf	?_labs+1,w
  9070     0257  1D03               	btfss	3,2
  9071     0258  2A60               	goto	u4661
  9072     0259  3002               	movlw	2
  9073     025A  0270               	subwf	?_labs,w
  9074     025B  1D03               	skipz
  9075     025C  2A5D               	goto	u4663
  9076     025D                     u4663:
  9077     025D  1803               	btfsc	3,0
  9078     025E  2A60               	goto	u4661
  9079     025F  2A61               	goto	u4660
  9080     0260                     u4661:
  9081     0260  2A62               	goto	l2794
  9082     0261                     u4660:
  9083     0261  29B3               	goto	l2784
  9084     0262                     l2794:
  9085                           
  9086                           ;C:\Program Files\Microchip\xc8\v3.00\pic\sources\c99\common\doprnt.c: 668:    while (g.
      +                          f < u.f) {
  9087     0262  1683               	bsf	3,5	;RP0=1, select bank1
  9088     0263  1303               	bcf	3,6	;RP1=0, select bank1
  9089     0264  0847               	movf	(efgtoa@g+3)^(0+128),w
  9090     0265  1283               	bcf	3,5	;RP0=0, select bank0
  9091     0266  1303               	bcf	3,6	;RP1=0, select bank0
  9092     0267  00B8               	movwf	___flge@ff1+3
  9093     0268  1683               	bsf	3,5	;RP0=1, select bank1
  9094     0269  1303               	bcf	3,6	;RP1=0, select bank1
  9095     026A  0846               	movf	(efgtoa@g+2)^(0+128),w
  9096     026B  1283               	bcf	3,5	;RP0=0, select bank0
  9097     026C  1303               	bcf	3,6	;RP1=0, select bank0
  9098     026D  00B7               	movwf	___flge@ff1+2
  9099     026E  1683               	bsf	3,5	;RP0=1, select bank1
  9100     026F  1303               	bcf	3,6	;RP1=0, select bank1
  9101     0270  0845               	movf	(efgtoa@g+1)^(0+128),w
  9102     0271  1283               	bcf	3,5	;RP0=0, select bank0
  9103     0272  1303               	bcf	3,6	;RP1=0, select bank0
  9104     0273  00B6               	movwf	___flge@ff1+1
  9105     0274  1683               	bsf	3,5	;RP0=1, select bank1
  9106     0275  1303               	bcf	3,6	;RP1=0, select bank1
  9107     0276  0844               	movf	efgtoa@g^(0+128),w
  9108     0277  1283               	bcf	3,5	;RP0=0, select bank0
  9109     0278  1303               	bcf	3,6	;RP1=0, select bank0
  9110     0279  00B5               	movwf	___flge@ff1
  9111     027A  1683               	bsf	3,5	;RP0=1, select bank1
  9112     027B  1303               	bcf	3,6	;RP1=0, select bank1
  9113     027C  084B               	movf	(efgtoa@u+3)^(0+128),w
  9114     027D  1283               	bcf	3,5	;RP0=0, select bank0
  9115     027E  1303               	bcf	3,6	;RP1=0, select bank0
  9116     027F  00BC               	movwf	___flge@ff2+3
  9117     0280  1683               	bsf	3,5	;RP0=1, select bank1
  9118     0281  1303               	bcf	3,6	;RP1=0, select bank1
  9119     0282  084A               	movf	(efgtoa@u+2)^(0+128),w
  9120     0283  1283               	bcf	3,5	;RP0=0, select bank0
  9121     0284  1303               	bcf	3,6	;RP1=0, select bank0
  9122     0285  00BB               	movwf	___flge@ff2+2
  9123     0286  1683               	bsf	3,5	;RP0=1, select bank1
  9124     0287  1303               	bcf	3,6	;RP1=0, select bank1
  9125     0288  0849               	movf	(efgtoa@u+1)^(0+128),w
  9126     0289  1283               	bcf	3,5	;RP0=0, select bank0
  9127     028A  1303               	bcf	3,6	;RP1=0, select bank0
  9128     028B  00BA               	movwf	___flge@ff2+1
  9129     028C  1683               	bsf	3,5	;RP0=1, select bank1
  9130     028D  1303               	bcf	3,6	;RP1=0, select bank1
  9131     028E  0848               	movf	efgtoa@u^(0+128),w
  9132     028F  1283               	bcf	3,5	;RP0=0, select bank0
  9133     0290  1303               	bcf	3,6	;RP1=0, select bank0
  9134     0291  00B9               	movwf	___flge@ff2
  9135     0292  160A  118A  22AD  120A  118A  	fcall	___flge
  9136     0297  1C03               	btfss	3,0
  9137     0298  2A9A               	goto	u4671
  9138     0299  2A9B               	goto	u4670
  9139     029A                     u4671:
  9140     029A  29BE               	goto	l2786
  9141     029B                     u4670:
  9142     029B                     l2796:
  9143                           
  9144                           ;C:\Program Files\Microchip\xc8\v3.00\pic\sources\c99\common\doprnt.c: 683:  mode = c;
  9145     029B  1283               	bcf	3,5	;RP0=0, select bank0
  9146     029C  1303               	bcf	3,6	;RP1=0, select bank0
  9147     029D  0854               	movf	efgtoa@c,w
  9148     029E  1683               	bsf	3,5	;RP0=1, select bank1
  9149     029F  1303               	bcf	3,6	;RP1=0, select bank1
  9150     02A0  00A9               	movwf	efgtoa@mode^(0+128)
  9151                           
  9152                           ;C:\Program Files\Microchip\xc8\v3.00\pic\sources\c99\common\doprnt.c: 685:     nmode = 
      +                          mode;
  9153     02A1  0829               	movf	efgtoa@mode^(0+128),w
  9154     02A2  00AA               	movwf	efgtoa@nmode^(0+128)
  9155     02A3                     l2798:
  9156                           
  9157                           ;C:\Program Files\Microchip\xc8\v3.00\pic\sources\c99\common\doprnt.c: 695:  {;C:\Progra
      +                          m Files\Microchip\xc8\v3.00\pic\sources\c99\common\doprnt.c: 696:         p = (prec < 0)
      +                           ? 6 : prec;
  9158     02A3  1BE7               	btfsc	(_prec+1)^(0+128),7
  9159     02A4  2AA6               	goto	u4681
  9160     02A5  2AA7               	goto	u4680
  9161     02A6                     u4681:
  9162     02A6  2AAC               	goto	l2802
  9163     02A7                     u4680:
  9164     02A7                     l2800:
  9165     02A7  0867               	movf	(_prec+1)^(0+128),w
  9166     02A8  00A3               	movwf	(efgtoa@p+1)^(0+128)
  9167     02A9  0866               	movf	_prec^(0+128),w
  9168     02AA  00A2               	movwf	efgtoa@p^(0+128)
  9169     02AB  2AB0               	goto	l696
  9170     02AC                     l2802:
  9171     02AC  3006               	movlw	6
  9172     02AD  00A2               	movwf	efgtoa@p^(0+128)
  9173     02AE  3000               	movlw	0
  9174     02AF  00A3               	movwf	(efgtoa@p^(0+128)+1)
  9175     02B0                     l696:
  9176                           
  9177                           ;C:\Program Files\Microchip\xc8\v3.00\pic\sources\c99\common\doprnt.c: 697:     };C:\Pro
      +                          gram Files\Microchip\xc8\v3.00\pic\sources\c99\common\doprnt.c: 711:     m = p;
  9178     02B0  0823               	movf	(efgtoa@p+1)^(0+128),w
  9179     02B1  00AE               	movwf	(efgtoa@m+1)^(0+128)
  9180     02B2  0822               	movf	efgtoa@p^(0+128),w
  9181     02B3  00AD               	movwf	efgtoa@m^(0+128)
  9182                           
  9183                           ;C:\Program Files\Microchip\xc8\v3.00\pic\sources\c99\common\doprnt.c: 715:  {;C:\Progra
      +                          m Files\Microchip\xc8\v3.00\pic\sources\c99\common\doprnt.c: 716:         ++m;
  9184     02B4  3001               	movlw	1
  9185     02B5  07AD               	addwf	efgtoa@m^(0+128),f
  9186     02B6  1803               	skipnc
  9187     02B7  0AAE               	incf	(efgtoa@m+1)^(0+128),f
  9188     02B8  3000               	movlw	0
  9189     02B9  07AE               	addwf	(efgtoa@m+1)^(0+128),f
  9190     02BA                     l2804:
  9191                           
  9192                           ;C:\Program Files\Microchip\xc8\v3.00\pic\sources\c99\common\doprnt.c: 717:     };C:\Pro
      +                          gram Files\Microchip\xc8\v3.00\pic\sources\c99\common\doprnt.c: 721:     if (nmode == 'f
      +                          ') {
  9193     02BA  3066               	movlw	102
  9194     02BB  062A               	xorwf	efgtoa@nmode^(0+128),w
  9195     02BC  1D03               	btfss	3,2
  9196     02BD  2ABF               	goto	u4691
  9197     02BE  2AC0               	goto	u4690
  9198     02BF                     u4691:
  9199     02BF  2ADA               	goto	l2816
  9200     02C0                     u4690:
  9201     02C0                     l2806:
  9202                           
  9203                           ;C:\Program Files\Microchip\xc8\v3.00\pic\sources\c99\common\doprnt.c: 722:         if (
      +                          e < 0) {
  9204     02C0  1FB0               	btfss	(efgtoa@e+1)^(0+128),7
  9205     02C1  2AC3               	goto	u4701
  9206     02C2  2AC4               	goto	u4700
  9207     02C3                     u4701:
  9208     02C3  2ACE               	goto	l2812
  9209     02C4                     u4700:
  9210     02C4                     l2808:
  9211                           
  9212                           ;C:\Program Files\Microchip\xc8\v3.00\pic\sources\c99\common\doprnt.c: 723:             
      +                          u.f = 1.0;
  9213     02C4  303F               	movlw	63
  9214     02C5  00CB               	movwf	(efgtoa@u+3)^(0+128)
  9215     02C6  3080               	movlw	128
  9216     02C7  00CA               	movwf	(efgtoa@u+2)^(0+128)
  9217     02C8  3000               	movlw	0
  9218     02C9  00C9               	movwf	(efgtoa@u+1)^(0+128)
  9219     02CA  3000               	movlw	0
  9220     02CB  00C8               	movwf	efgtoa@u^(0+128)
  9221     02CC                     l2810:
  9222                           
  9223                           ;C:\Program Files\Microchip\xc8\v3.00\pic\sources\c99\common\doprnt.c: 724:             
      +                          e = 0;
  9224     02CC  01AF               	clrf	efgtoa@e^(0+128)
  9225     02CD  01B0               	clrf	(efgtoa@e+1)^(0+128)
  9226     02CE                     l2812:
  9227                           
  9228                           ;C:\Program Files\Microchip\xc8\v3.00\pic\sources\c99\common\doprnt.c: 726:         if (
      +                          !(mode == 'g')) {
  9229     02CE  3067               	movlw	103
  9230     02CF  0629               	xorwf	efgtoa@mode^(0+128),w
  9231     02D0  1903               	btfsc	3,2
  9232     02D1  2AD3               	goto	u4711
  9233     02D2  2AD4               	goto	u4710
  9234     02D3                     u4711:
  9235     02D3  2ADA               	goto	l2816
  9236     02D4                     u4710:
  9237     02D4                     l2814:
  9238                           
  9239                           ;C:\Program Files\Microchip\xc8\v3.00\pic\sources\c99\common\doprnt.c: 727:             
      +                          m += e;
  9240     02D4  082F               	movf	efgtoa@e^(0+128),w
  9241     02D5  07AD               	addwf	efgtoa@m^(0+128),f
  9242     02D6  1803               	skipnc
  9243     02D7  0AAE               	incf	(efgtoa@m+1)^(0+128),f
  9244     02D8  0830               	movf	(efgtoa@e+1)^(0+128),w
  9245     02D9  07AE               	addwf	(efgtoa@m+1)^(0+128),f
  9246     02DA                     l2816:
  9247                           
  9248                           ;C:\Program Files\Microchip\xc8\v3.00\pic\sources\c99\common\doprnt.c: 733:     i = 0;
  9249     02DA  01B7               	clrf	efgtoa@i^(0+128)
  9250     02DB  01B8               	clrf	(efgtoa@i+1)^(0+128)
  9251     02DC                     l2818:
  9252                           
  9253                           ;C:\Program Files\Microchip\xc8\v3.00\pic\sources\c99\common\doprnt.c: 734:     h = g.f;
  9254     02DC  0847               	movf	(efgtoa@g+3)^(0+128),w
  9255     02DD  00BC               	movwf	(efgtoa@h+3)^(0+128)
  9256     02DE  0846               	movf	(efgtoa@g+2)^(0+128),w
  9257     02DF  00BB               	movwf	(efgtoa@h+2)^(0+128)
  9258     02E0  0845               	movf	(efgtoa@g+1)^(0+128),w
  9259     02E1  00BA               	movwf	(efgtoa@h+1)^(0+128)
  9260     02E2  0844               	movf	efgtoa@g^(0+128),w
  9261     02E3  00B9               	movwf	efgtoa@h^(0+128)
  9262     02E4                     l2820:
  9263                           
  9264                           ;C:\Program Files\Microchip\xc8\v3.00\pic\sources\c99\common\doprnt.c: 735:     ou = u;
  9265     02E4  084B               	movf	(efgtoa@u+3)^(0+128),w
  9266     02E5  00B6               	movwf	(efgtoa@ou+3)^(0+128)
  9267     02E6  084A               	movf	(efgtoa@u+2)^(0+128),w
  9268     02E7  00B5               	movwf	(efgtoa@ou+2)^(0+128)
  9269     02E8  0849               	movf	(efgtoa@u+1)^(0+128),w
  9270     02E9  00B4               	movwf	(efgtoa@ou+1)^(0+128)
  9271     02EA  0848               	movf	efgtoa@u^(0+128),w
  9272     02EB  00B3               	movwf	efgtoa@ou^(0+128)
  9273                           
  9274                           ;C:\Program Files\Microchip\xc8\v3.00\pic\sources\c99\common\doprnt.c: 736:     while (i
      +                           < m) {
  9275     02EC  2C13               	goto	l2832
  9276     02ED                     l2822:
  9277                           
  9278                           ;C:\Program Files\Microchip\xc8\v3.00\pic\sources\c99\common\doprnt.c: 737:         l = 
      +                          floorf(h/u.f);
  9279     02ED  1683               	bsf	3,5	;RP0=1, select bank1
  9280     02EE  1303               	bcf	3,6	;RP1=0, select bank1
  9281     02EF  084B               	movf	(efgtoa@u+3)^(0+128),w
  9282     02F0  1283               	bcf	3,5	;RP0=0, select bank0
  9283     02F1  1303               	bcf	3,6	;RP1=0, select bank0
  9284     02F2  00A3               	movwf	___fldiv@a+3
  9285     02F3  1683               	bsf	3,5	;RP0=1, select bank1
  9286     02F4  1303               	bcf	3,6	;RP1=0, select bank1
  9287     02F5  084A               	movf	(efgtoa@u+2)^(0+128),w
  9288     02F6  1283               	bcf	3,5	;RP0=0, select bank0
  9289     02F7  1303               	bcf	3,6	;RP1=0, select bank0
  9290     02F8  00A2               	movwf	___fldiv@a+2
  9291     02F9  1683               	bsf	3,5	;RP0=1, select bank1
  9292     02FA  1303               	bcf	3,6	;RP1=0, select bank1
  9293     02FB  0849               	movf	(efgtoa@u+1)^(0+128),w
  9294     02FC  1283               	bcf	3,5	;RP0=0, select bank0
  9295     02FD  1303               	bcf	3,6	;RP1=0, select bank0
  9296     02FE  00A1               	movwf	___fldiv@a+1
  9297     02FF  1683               	bsf	3,5	;RP0=1, select bank1
  9298     0300  1303               	bcf	3,6	;RP1=0, select bank1
  9299     0301  0848               	movf	efgtoa@u^(0+128),w
  9300     0302  1283               	bcf	3,5	;RP0=0, select bank0
  9301     0303  1303               	bcf	3,6	;RP1=0, select bank0
  9302     0304  00A0               	movwf	___fldiv@a
  9303     0305  1683               	bsf	3,5	;RP0=1, select bank1
  9304     0306  1303               	bcf	3,6	;RP1=0, select bank1
  9305     0307  083C               	movf	(efgtoa@h+3)^(0+128),w
  9306     0308  1283               	bcf	3,5	;RP0=0, select bank0
  9307     0309  1303               	bcf	3,6	;RP1=0, select bank0
  9308     030A  00A7               	movwf	___fldiv@b+3
  9309     030B  1683               	bsf	3,5	;RP0=1, select bank1
  9310     030C  1303               	bcf	3,6	;RP1=0, select bank1
  9311     030D  083B               	movf	(efgtoa@h+2)^(0+128),w
  9312     030E  1283               	bcf	3,5	;RP0=0, select bank0
  9313     030F  1303               	bcf	3,6	;RP1=0, select bank0
  9314     0310  00A6               	movwf	___fldiv@b+2
  9315     0311  1683               	bsf	3,5	;RP0=1, select bank1
  9316     0312  1303               	bcf	3,6	;RP1=0, select bank1
  9317     0313  083A               	movf	(efgtoa@h+1)^(0+128),w
  9318     0314  1283               	bcf	3,5	;RP0=0, select bank0
  9319     0315  1303               	bcf	3,6	;RP1=0, select bank0
  9320     0316  00A5               	movwf	___fldiv@b+1
  9321     0317  1683               	bsf	3,5	;RP0=1, select bank1
  9322     0318  1303               	bcf	3,6	;RP1=0, select bank1
  9323     0319  0839               	movf	efgtoa@h^(0+128),w
  9324     031A  1283               	bcf	3,5	;RP0=0, select bank0
  9325     031B  1303               	bcf	3,6	;RP1=0, select bank0
  9326     031C  00A4               	movwf	___fldiv@b
  9327     031D  120A  158A  2098  120A  118A  	fcall	___fldiv
  9328     0322  1283               	bcf	3,5	;RP0=0, select bank0
  9329     0323  1303               	bcf	3,6	;RP1=0, select bank0
  9330     0324  0823               	movf	?___fldiv+3,w
  9331     0325  00BD               	movwf	floorf@x+3
  9332     0326  0822               	movf	?___fldiv+2,w
  9333     0327  00BC               	movwf	floorf@x+2
  9334     0328  0821               	movf	?___fldiv+1,w
  9335     0329  00BB               	movwf	floorf@x+1
  9336     032A  0820               	movf	?___fldiv,w
  9337     032B  00BA               	movwf	floorf@x
  9338     032C  160A  118A  26F1  120A  118A  	fcall	_floorf
  9339     0331  1283               	bcf	3,5	;RP0=0, select bank0
  9340     0332  1303               	bcf	3,6	;RP1=0, select bank0
  9341     0333  083D               	movf	?_floorf+3,w
  9342     0334  1683               	bsf	3,5	;RP0=1, select bank1
  9343     0335  1303               	bcf	3,6	;RP1=0, select bank1
  9344     0336  00C0               	movwf	(efgtoa@l+3)^(0+128)
  9345     0337  1283               	bcf	3,5	;RP0=0, select bank0
  9346     0338  1303               	bcf	3,6	;RP1=0, select bank0
  9347     0339  083C               	movf	?_floorf+2,w
  9348     033A  1683               	bsf	3,5	;RP0=1, select bank1
  9349     033B  1303               	bcf	3,6	;RP1=0, select bank1
  9350     033C  00BF               	movwf	(efgtoa@l+2)^(0+128)
  9351     033D  1283               	bcf	3,5	;RP0=0, select bank0
  9352     033E  1303               	bcf	3,6	;RP1=0, select bank0
  9353     033F  083B               	movf	?_floorf+1,w
  9354     0340  1683               	bsf	3,5	;RP0=1, select bank1
  9355     0341  1303               	bcf	3,6	;RP1=0, select bank1
  9356     0342  00BE               	movwf	(efgtoa@l+1)^(0+128)
  9357     0343  1283               	bcf	3,5	;RP0=0, select bank0
  9358     0344  1303               	bcf	3,6	;RP1=0, select bank0
  9359     0345  083A               	movf	?_floorf,w
  9360     0346  1683               	bsf	3,5	;RP0=1, select bank1
  9361     0347  1303               	bcf	3,6	;RP1=0, select bank1
  9362     0348  00BD               	movwf	efgtoa@l^(0+128)
  9363     0349                     l2824:
  9364                           
  9365                           ;C:\Program Files\Microchip\xc8\v3.00\pic\sources\c99\common\doprnt.c: 738:         d = 
      +                          (int)l;
  9366     0349  0840               	movf	(efgtoa@l+3)^(0+128),w
  9367     034A  00F3               	movwf	___fltol@f1+3
  9368     034B  083F               	movf	(efgtoa@l+2)^(0+128),w
  9369     034C  00F2               	movwf	___fltol@f1+2
  9370     034D  083E               	movf	(efgtoa@l+1)^(0+128),w
  9371     034E  00F1               	movwf	___fltol@f1+1
  9372     034F  083D               	movf	efgtoa@l^(0+128),w
  9373     0350  00F0               	movwf	___fltol@f1
  9374     0351  160A  118A  205B  120A  118A  	fcall	___fltol
  9375     0356  0871               	movf	?___fltol+1,w
  9376     0357  1683               	bsf	3,5	;RP0=1, select bank1
  9377     0358  1303               	bcf	3,6	;RP1=0, select bank1
  9378     0359  00AC               	movwf	(efgtoa@d+1)^(0+128)
  9379     035A  0870               	movf	?___fltol,w
  9380     035B  00AB               	movwf	efgtoa@d^(0+128)
  9381     035C                     l2826:
  9382                           
  9383                           ;C:\Program Files\Microchip\xc8\v3.00\pic\sources\c99\common\doprnt.c: 739:         h -=
      +                           l*u.f;
  9384     035C  084B               	movf	(efgtoa@u+3)^(0+128),w
  9385     035D  1283               	bcf	3,5	;RP0=0, select bank0
  9386     035E  1303               	bcf	3,6	;RP1=0, select bank0
  9387     035F  00A7               	movwf	___flmul@a+3
  9388     0360  1683               	bsf	3,5	;RP0=1, select bank1
  9389     0361  1303               	bcf	3,6	;RP1=0, select bank1
  9390     0362  084A               	movf	(efgtoa@u+2)^(0+128),w
  9391     0363  1283               	bcf	3,5	;RP0=0, select bank0
  9392     0364  1303               	bcf	3,6	;RP1=0, select bank0
  9393     0365  00A6               	movwf	___flmul@a+2
  9394     0366  1683               	bsf	3,5	;RP0=1, select bank1
  9395     0367  1303               	bcf	3,6	;RP1=0, select bank1
  9396     0368  0849               	movf	(efgtoa@u+1)^(0+128),w
  9397     0369  1283               	bcf	3,5	;RP0=0, select bank0
  9398     036A  1303               	bcf	3,6	;RP1=0, select bank0
  9399     036B  00A5               	movwf	___flmul@a+1
  9400     036C  1683               	bsf	3,5	;RP0=1, select bank1
  9401     036D  1303               	bcf	3,6	;RP1=0, select bank1
  9402     036E  0848               	movf	efgtoa@u^(0+128),w
  9403     036F  1283               	bcf	3,5	;RP0=0, select bank0
  9404     0370  1303               	bcf	3,6	;RP1=0, select bank0
  9405     0371  00A4               	movwf	___flmul@a
  9406     0372  1683               	bsf	3,5	;RP0=1, select bank1
  9407     0373  1303               	bcf	3,6	;RP1=0, select bank1
  9408     0374  0840               	movf	(efgtoa@l+3)^(0+128),w
  9409     0375  1283               	bcf	3,5	;RP0=0, select bank0
  9410     0376  1303               	bcf	3,6	;RP1=0, select bank0
  9411     0377  00A3               	movwf	___flmul@b+3
  9412     0378  1683               	bsf	3,5	;RP0=1, select bank1
  9413     0379  1303               	bcf	3,6	;RP1=0, select bank1
  9414     037A  083F               	movf	(efgtoa@l+2)^(0+128),w
  9415     037B  1283               	bcf	3,5	;RP0=0, select bank0
  9416     037C  1303               	bcf	3,6	;RP1=0, select bank0
  9417     037D  00A2               	movwf	___flmul@b+2
  9418     037E  1683               	bsf	3,5	;RP0=1, select bank1
  9419     037F  1303               	bcf	3,6	;RP1=0, select bank1
  9420     0380  083E               	movf	(efgtoa@l+1)^(0+128),w
  9421     0381  1283               	bcf	3,5	;RP0=0, select bank0
  9422     0382  1303               	bcf	3,6	;RP1=0, select bank0
  9423     0383  00A1               	movwf	___flmul@b+1
  9424     0384  1683               	bsf	3,5	;RP0=1, select bank1
  9425     0385  1303               	bcf	3,6	;RP1=0, select bank1
  9426     0386  083D               	movf	efgtoa@l^(0+128),w
  9427     0387  1283               	bcf	3,5	;RP0=0, select bank0
  9428     0388  1303               	bcf	3,6	;RP1=0, select bank0
  9429     0389  00A0               	movwf	___flmul@b
  9430     038A  120A  158A  24BE  120A  118A  	fcall	___flmul
  9431     038F  1283               	bcf	3,5	;RP0=0, select bank0
  9432     0390  1303               	bcf	3,6	;RP1=0, select bank0
  9433     0391  0823               	movf	?___flmul+3,w
  9434     0392  00B8               	movwf	___flsub@a+3
  9435     0393  0822               	movf	?___flmul+2,w
  9436     0394  00B7               	movwf	___flsub@a+2
  9437     0395  0821               	movf	?___flmul+1,w
  9438     0396  00B6               	movwf	___flsub@a+1
  9439     0397  0820               	movf	?___flmul,w
  9440     0398  00B5               	movwf	___flsub@a
  9441     0399  1683               	bsf	3,5	;RP0=1, select bank1
  9442     039A  1303               	bcf	3,6	;RP1=0, select bank1
  9443     039B  083C               	movf	(efgtoa@h+3)^(0+128),w
  9444     039C  1283               	bcf	3,5	;RP0=0, select bank0
  9445     039D  1303               	bcf	3,6	;RP1=0, select bank0
  9446     039E  00BC               	movwf	___flsub@b+3
  9447     039F  1683               	bsf	3,5	;RP0=1, select bank1
  9448     03A0  1303               	bcf	3,6	;RP1=0, select bank1
  9449     03A1  083B               	movf	(efgtoa@h+2)^(0+128),w
  9450     03A2  1283               	bcf	3,5	;RP0=0, select bank0
  9451     03A3  1303               	bcf	3,6	;RP1=0, select bank0
  9452     03A4  00BB               	movwf	___flsub@b+2
  9453     03A5  1683               	bsf	3,5	;RP0=1, select bank1
  9454     03A6  1303               	bcf	3,6	;RP1=0, select bank1
  9455     03A7  083A               	movf	(efgtoa@h+1)^(0+128),w
  9456     03A8  1283               	bcf	3,5	;RP0=0, select bank0
  9457     03A9  1303               	bcf	3,6	;RP1=0, select bank0
  9458     03AA  00BA               	movwf	___flsub@b+1
  9459     03AB  1683               	bsf	3,5	;RP0=1, select bank1
  9460     03AC  1303               	bcf	3,6	;RP1=0, select bank1
  9461     03AD  0839               	movf	efgtoa@h^(0+128),w
  9462     03AE  1283               	bcf	3,5	;RP0=0, select bank0
  9463     03AF  1303               	bcf	3,6	;RP1=0, select bank0
  9464     03B0  00B9               	movwf	___flsub@b
  9465     03B1  160A  158A  2650  120A  118A  	fcall	___flsub
  9466     03B6  1283               	bcf	3,5	;RP0=0, select bank0
  9467     03B7  1303               	bcf	3,6	;RP1=0, select bank0
  9468     03B8  0838               	movf	?___flsub+3,w
  9469     03B9  1683               	bsf	3,5	;RP0=1, select bank1
  9470     03BA  1303               	bcf	3,6	;RP1=0, select bank1
  9471     03BB  00BC               	movwf	(efgtoa@h+3)^(0+128)
  9472     03BC  1283               	bcf	3,5	;RP0=0, select bank0
  9473     03BD  1303               	bcf	3,6	;RP1=0, select bank0
  9474     03BE  0837               	movf	?___flsub+2,w
  9475     03BF  1683               	bsf	3,5	;RP0=1, select bank1
  9476     03C0  1303               	bcf	3,6	;RP1=0, select bank1
  9477     03C1  00BB               	movwf	(efgtoa@h+2)^(0+128)
  9478     03C2  1283               	bcf	3,5	;RP0=0, select bank0
  9479     03C3  1303               	bcf	3,6	;RP1=0, select bank0
  9480     03C4  0836               	movf	?___flsub+1,w
  9481     03C5  1683               	bsf	3,5	;RP0=1, select bank1
  9482     03C6  1303               	bcf	3,6	;RP1=0, select bank1
  9483     03C7  00BA               	movwf	(efgtoa@h+1)^(0+128)
  9484     03C8  1283               	bcf	3,5	;RP0=0, select bank0
  9485     03C9  1303               	bcf	3,6	;RP1=0, select bank0
  9486     03CA  0835               	movf	?___flsub,w
  9487     03CB  1683               	bsf	3,5	;RP0=1, select bank1
  9488     03CC  1303               	bcf	3,6	;RP1=0, select bank1
  9489     03CD  00B9               	movwf	efgtoa@h^(0+128)
  9490     03CE                     l2828:
  9491                           
  9492                           ;C:\Program Files\Microchip\xc8\v3.00\pic\sources\c99\common\doprnt.c: 740:         u.f 
      +                          = u.f/10.0;
  9493     03CE  3041               	movlw	65
  9494     03CF  1283               	bcf	3,5	;RP0=0, select bank0
  9495     03D0  1303               	bcf	3,6	;RP1=0, select bank0
  9496     03D1  00A3               	movwf	___fldiv@a+3
  9497     03D2  3020               	movlw	32
  9498     03D3  00A2               	movwf	___fldiv@a+2
  9499     03D4  3000               	movlw	0
  9500     03D5  00A1               	movwf	___fldiv@a+1
  9501     03D6  3000               	movlw	0
  9502     03D7  00A0               	movwf	___fldiv@a
  9503     03D8  1683               	bsf	3,5	;RP0=1, select bank1
  9504     03D9  1303               	bcf	3,6	;RP1=0, select bank1
  9505     03DA  084B               	movf	(efgtoa@u+3)^(0+128),w
  9506     03DB  1283               	bcf	3,5	;RP0=0, select bank0
  9507     03DC  1303               	bcf	3,6	;RP1=0, select bank0
  9508     03DD  00A7               	movwf	___fldiv@b+3
  9509     03DE  1683               	bsf	3,5	;RP0=1, select bank1
  9510     03DF  1303               	bcf	3,6	;RP1=0, select bank1
  9511     03E0  084A               	movf	(efgtoa@u+2)^(0+128),w
  9512     03E1  1283               	bcf	3,5	;RP0=0, select bank0
  9513     03E2  1303               	bcf	3,6	;RP1=0, select bank0
  9514     03E3  00A6               	movwf	___fldiv@b+2
  9515     03E4  1683               	bsf	3,5	;RP0=1, select bank1
  9516     03E5  1303               	bcf	3,6	;RP1=0, select bank1
  9517     03E6  0849               	movf	(efgtoa@u+1)^(0+128),w
  9518     03E7  1283               	bcf	3,5	;RP0=0, select bank0
  9519     03E8  1303               	bcf	3,6	;RP1=0, select bank0
  9520     03E9  00A5               	movwf	___fldiv@b+1
  9521     03EA  1683               	bsf	3,5	;RP0=1, select bank1
  9522     03EB  1303               	bcf	3,6	;RP1=0, select bank1
  9523     03EC  0848               	movf	efgtoa@u^(0+128),w
  9524     03ED  1283               	bcf	3,5	;RP0=0, select bank0
  9525     03EE  1303               	bcf	3,6	;RP1=0, select bank0
  9526     03EF  00A4               	movwf	___fldiv@b
  9527     03F0  120A  158A  2098  120A  118A  	fcall	___fldiv
  9528     03F5  1283               	bcf	3,5	;RP0=0, select bank0
  9529     03F6  1303               	bcf	3,6	;RP1=0, select bank0
  9530     03F7  0823               	movf	?___fldiv+3,w
  9531     03F8  1683               	bsf	3,5	;RP0=1, select bank1
  9532     03F9  1303               	bcf	3,6	;RP1=0, select bank1
  9533     03FA  00CB               	movwf	(efgtoa@u+3)^(0+128)
  9534     03FB  1283               	bcf	3,5	;RP0=0, select bank0
  9535     03FC  1303               	bcf	3,6	;RP1=0, select bank0
  9536     03FD  0822               	movf	?___fldiv+2,w
  9537     03FE  1683               	bsf	3,5	;RP0=1, select bank1
  9538     03FF  1303               	bcf	3,6	;RP1=0, select bank1
  9539     0400  00CA               	movwf	(efgtoa@u+2)^(0+128)
  9540     0401  1283               	bcf	3,5	;RP0=0, select bank0
  9541     0402  1303               	bcf	3,6	;RP1=0, select bank0
  9542     0403  0821               	movf	?___fldiv+1,w
  9543     0404  1683               	bsf	3,5	;RP0=1, select bank1
  9544     0405  1303               	bcf	3,6	;RP1=0, select bank1
  9545     0406  00C9               	movwf	(efgtoa@u+1)^(0+128)
  9546     0407  1283               	bcf	3,5	;RP0=0, select bank0
  9547     0408  1303               	bcf	3,6	;RP1=0, select bank0
  9548     0409  0820               	movf	?___fldiv,w
  9549     040A  1683               	bsf	3,5	;RP0=1, select bank1
  9550     040B  1303               	bcf	3,6	;RP1=0, select bank1
  9551     040C  00C8               	movwf	efgtoa@u^(0+128)
  9552     040D                     l2830:
  9553                           
  9554                           ;C:\Program Files\Microchip\xc8\v3.00\pic\sources\c99\common\doprnt.c: 741:         ++i;
  9555     040D  3001               	movlw	1
  9556     040E  07B7               	addwf	efgtoa@i^(0+128),f
  9557     040F  1803               	skipnc
  9558     0410  0AB8               	incf	(efgtoa@i+1)^(0+128),f
  9559     0411  3000               	movlw	0
  9560     0412  07B8               	addwf	(efgtoa@i+1)^(0+128),f
  9561     0413                     l2832:
  9562                           
  9563                           ;C:\Program Files\Microchip\xc8\v3.00\pic\sources\c99\common\doprnt.c: 736:     while (i
      +                           < m) {
  9564     0413  0838               	movf	(efgtoa@i+1)^(0+128),w
  9565     0414  3A80               	xorlw	128
  9566     0415  1283               	bcf	3,5	;RP0=0, select bank0
  9567     0416  1303               	bcf	3,6	;RP1=0, select bank0
  9568     0417  00D5               	movwf	??_efgtoa
  9569     0418  1683               	bsf	3,5	;RP0=1, select bank1
  9570     0419  1303               	bcf	3,6	;RP1=0, select bank1
  9571     041A  082E               	movf	(efgtoa@m+1)^(0+128),w
  9572     041B  3A80               	xorlw	128
  9573     041C  1283               	bcf	3,5	;RP0=0, select bank0
  9574     041D  1303               	bcf	3,6	;RP1=0, select bank0
  9575     041E  0255               	subwf	??_efgtoa,w
  9576     041F  1D03               	skipz
  9577     0420  2C25               	goto	u4725
  9578     0421  1683               	bsf	3,5	;RP0=1, select bank1
  9579     0422  1303               	bcf	3,6	;RP1=0, select bank1
  9580     0423  082D               	movf	efgtoa@m^(0+128),w
  9581     0424  0237               	subwf	efgtoa@i^(0+128),w
  9582     0425                     u4725:
  9583     0425  1C03               	skipc
  9584     0426  2C28               	goto	u4721
  9585     0427  2C29               	goto	u4720
  9586     0428                     u4721:
  9587     0428  2AED               	goto	l2822
  9588     0429                     u4720:
  9589     0429                     l2834:
  9590                           
  9591                           ;C:\Program Files\Microchip\xc8\v3.00\pic\sources\c99\common\doprnt.c: 745:     l = u.f*
      +                          5.0;
  9592     0429  3040               	movlw	64
  9593     042A  1283               	bcf	3,5	;RP0=0, select bank0
  9594     042B  1303               	bcf	3,6	;RP1=0, select bank0
  9595     042C  00A3               	movwf	___flmul@b+3
  9596     042D  30A0               	movlw	160
  9597     042E  00A2               	movwf	___flmul@b+2
  9598     042F  3000               	movlw	0
  9599     0430  00A1               	movwf	___flmul@b+1
  9600     0431  3000               	movlw	0
  9601     0432  00A0               	movwf	___flmul@b
  9602     0433  1683               	bsf	3,5	;RP0=1, select bank1
  9603     0434  1303               	bcf	3,6	;RP1=0, select bank1
  9604     0435  084B               	movf	(efgtoa@u+3)^(0+128),w
  9605     0436  1283               	bcf	3,5	;RP0=0, select bank0
  9606     0437  1303               	bcf	3,6	;RP1=0, select bank0
  9607     0438  00A7               	movwf	___flmul@a+3
  9608     0439  1683               	bsf	3,5	;RP0=1, select bank1
  9609     043A  1303               	bcf	3,6	;RP1=0, select bank1
  9610     043B  084A               	movf	(efgtoa@u+2)^(0+128),w
  9611     043C  1283               	bcf	3,5	;RP0=0, select bank0
  9612     043D  1303               	bcf	3,6	;RP1=0, select bank0
  9613     043E  00A6               	movwf	___flmul@a+2
  9614     043F  1683               	bsf	3,5	;RP0=1, select bank1
  9615     0440  1303               	bcf	3,6	;RP1=0, select bank1
  9616     0441  0849               	movf	(efgtoa@u+1)^(0+128),w
  9617     0442  1283               	bcf	3,5	;RP0=0, select bank0
  9618     0443  1303               	bcf	3,6	;RP1=0, select bank0
  9619     0444  00A5               	movwf	___flmul@a+1
  9620     0445  1683               	bsf	3,5	;RP0=1, select bank1
  9621     0446  1303               	bcf	3,6	;RP1=0, select bank1
  9622     0447  0848               	movf	efgtoa@u^(0+128),w
  9623     0448  1283               	bcf	3,5	;RP0=0, select bank0
  9624     0449  1303               	bcf	3,6	;RP1=0, select bank0
  9625     044A  00A4               	movwf	___flmul@a
  9626     044B  120A  158A  24BE  120A  118A  	fcall	___flmul
  9627     0450  1283               	bcf	3,5	;RP0=0, select bank0
  9628     0451  1303               	bcf	3,6	;RP1=0, select bank0
  9629     0452  0823               	movf	?___flmul+3,w
  9630     0453  1683               	bsf	3,5	;RP0=1, select bank1
  9631     0454  1303               	bcf	3,6	;RP1=0, select bank1
  9632     0455  00C0               	movwf	(efgtoa@l+3)^(0+128)
  9633     0456  1283               	bcf	3,5	;RP0=0, select bank0
  9634     0457  1303               	bcf	3,6	;RP1=0, select bank0
  9635     0458  0822               	movf	?___flmul+2,w
  9636     0459  1683               	bsf	3,5	;RP0=1, select bank1
  9637     045A  1303               	bcf	3,6	;RP1=0, select bank1
  9638     045B  00BF               	movwf	(efgtoa@l+2)^(0+128)
  9639     045C  1283               	bcf	3,5	;RP0=0, select bank0
  9640     045D  1303               	bcf	3,6	;RP1=0, select bank0
  9641     045E  0821               	movf	?___flmul+1,w
  9642     045F  1683               	bsf	3,5	;RP0=1, select bank1
  9643     0460  1303               	bcf	3,6	;RP1=0, select bank1
  9644     0461  00BE               	movwf	(efgtoa@l+1)^(0+128)
  9645     0462  1283               	bcf	3,5	;RP0=0, select bank0
  9646     0463  1303               	bcf	3,6	;RP1=0, select bank0
  9647     0464  0820               	movf	?___flmul,w
  9648     0465  1683               	bsf	3,5	;RP0=1, select bank1
  9649     0466  1303               	bcf	3,6	;RP1=0, select bank1
  9650     0467  00BD               	movwf	efgtoa@l^(0+128)
  9651     0468                     l2836:
  9652                           
  9653                           ;C:\Program Files\Microchip\xc8\v3.00\pic\sources\c99\common\doprnt.c: 746:     if (h < 
      +                          l) {
  9654     0468  083C               	movf	(efgtoa@h+3)^(0+128),w
  9655     0469  1283               	bcf	3,5	;RP0=0, select bank0
  9656     046A  1303               	bcf	3,6	;RP1=0, select bank0
  9657     046B  00B8               	movwf	___flge@ff1+3
  9658     046C  1683               	bsf	3,5	;RP0=1, select bank1
  9659     046D  1303               	bcf	3,6	;RP1=0, select bank1
  9660     046E  083B               	movf	(efgtoa@h+2)^(0+128),w
  9661     046F  1283               	bcf	3,5	;RP0=0, select bank0
  9662     0470  1303               	bcf	3,6	;RP1=0, select bank0
  9663     0471  00B7               	movwf	___flge@ff1+2
  9664     0472  1683               	bsf	3,5	;RP0=1, select bank1
  9665     0473  1303               	bcf	3,6	;RP1=0, select bank1
  9666     0474  083A               	movf	(efgtoa@h+1)^(0+128),w
  9667     0475  1283               	bcf	3,5	;RP0=0, select bank0
  9668     0476  1303               	bcf	3,6	;RP1=0, select bank0
  9669     0477  00B6               	movwf	___flge@ff1+1
  9670     0478  1683               	bsf	3,5	;RP0=1, select bank1
  9671     0479  1303               	bcf	3,6	;RP1=0, select bank1
  9672     047A  0839               	movf	efgtoa@h^(0+128),w
  9673     047B  1283               	bcf	3,5	;RP0=0, select bank0
  9674     047C  1303               	bcf	3,6	;RP1=0, select bank0
  9675     047D  00B5               	movwf	___flge@ff1
  9676     047E  1683               	bsf	3,5	;RP0=1, select bank1
  9677     047F  1303               	bcf	3,6	;RP1=0, select bank1
  9678     0480  0840               	movf	(efgtoa@l+3)^(0+128),w
  9679     0481  1283               	bcf	3,5	;RP0=0, select bank0
  9680     0482  1303               	bcf	3,6	;RP1=0, select bank0
  9681     0483  00BC               	movwf	___flge@ff2+3
  9682     0484  1683               	bsf	3,5	;RP0=1, select bank1
  9683     0485  1303               	bcf	3,6	;RP1=0, select bank1
  9684     0486  083F               	movf	(efgtoa@l+2)^(0+128),w
  9685     0487  1283               	bcf	3,5	;RP0=0, select bank0
  9686     0488  1303               	bcf	3,6	;RP1=0, select bank0
  9687     0489  00BB               	movwf	___flge@ff2+2
  9688     048A  1683               	bsf	3,5	;RP0=1, select bank1
  9689     048B  1303               	bcf	3,6	;RP1=0, select bank1
  9690     048C  083E               	movf	(efgtoa@l+1)^(0+128),w
  9691     048D  1283               	bcf	3,5	;RP0=0, select bank0
  9692     048E  1303               	bcf	3,6	;RP1=0, select bank0
  9693     048F  00BA               	movwf	___flge@ff2+1
  9694     0490  1683               	bsf	3,5	;RP0=1, select bank1
  9695     0491  1303               	bcf	3,6	;RP1=0, select bank1
  9696     0492  083D               	movf	efgtoa@l^(0+128),w
  9697     0493  1283               	bcf	3,5	;RP0=0, select bank0
  9698     0494  1303               	bcf	3,6	;RP1=0, select bank0
  9699     0495  00B9               	movwf	___flge@ff2
  9700     0496  160A  118A  22AD  120A  118A  	fcall	___flge
  9701     049B  1803               	btfsc	3,0
  9702     049C  2C9E               	goto	u4731
  9703     049D  2C9F               	goto	u4730
  9704     049E                     u4731:
  9705     049E  2CAA               	goto	l2840
  9706     049F                     u4730:
  9707     049F                     l2838:
  9708                           
  9709                           ;C:\Program Files\Microchip\xc8\v3.00\pic\sources\c99\common\doprnt.c: 747:         l = 
      +                          0.0;
  9710     049F  3000               	movlw	0
  9711     04A0  1683               	bsf	3,5	;RP0=1, select bank1
  9712     04A1  1303               	bcf	3,6	;RP1=0, select bank1
  9713     04A2  00C0               	movwf	(efgtoa@l+3)^(0+128)
  9714     04A3  3000               	movlw	0
  9715     04A4  00BF               	movwf	(efgtoa@l+2)^(0+128)
  9716     04A5  3000               	movlw	0
  9717     04A6  00BE               	movwf	(efgtoa@l+1)^(0+128)
  9718     04A7  3000               	movlw	0
  9719     04A8  00BD               	movwf	efgtoa@l^(0+128)
  9720                           
  9721                           ;C:\Program Files\Microchip\xc8\v3.00\pic\sources\c99\common\doprnt.c: 748:     } else {
  9722     04A9  2CD3               	goto	l2846
  9723     04AA                     l2840:
  9724                           
  9725                           ;C:\Program Files\Microchip\xc8\v3.00\pic\sources\c99\common\doprnt.c: 750:         if (
      +                          (h == l) && !(d % 2)) {
  9726     04AA  1683               	bsf	3,5	;RP0=1, select bank1
  9727     04AB  1303               	bcf	3,6	;RP1=0, select bank1
  9728     04AC  083C               	movf	(efgtoa@h+3)^(0+128),w
  9729     04AD  00F3               	movwf	___fleq@ff1+3
  9730     04AE  083B               	movf	(efgtoa@h+2)^(0+128),w
  9731     04AF  00F2               	movwf	___fleq@ff1+2
  9732     04B0  083A               	movf	(efgtoa@h+1)^(0+128),w
  9733     04B1  00F1               	movwf	___fleq@ff1+1
  9734     04B2  0839               	movf	efgtoa@h^(0+128),w
  9735     04B3  00F0               	movwf	___fleq@ff1
  9736     04B4  0840               	movf	(efgtoa@l+3)^(0+128),w
  9737     04B5  00F7               	movwf	___fleq@ff2+3
  9738     04B6  083F               	movf	(efgtoa@l+2)^(0+128),w
  9739     04B7  00F6               	movwf	___fleq@ff2+2
  9740     04B8  083E               	movf	(efgtoa@l+1)^(0+128),w
  9741     04B9  00F5               	movwf	___fleq@ff2+1
  9742     04BA  083D               	movf	efgtoa@l^(0+128),w
  9743     04BB  00F4               	movwf	___fleq@ff2
  9744     04BC  160A  158A  27B2  120A  118A  	fcall	___fleq
  9745     04C1  1C03               	btfss	3,0
  9746     04C2  2CC4               	goto	u4741
  9747     04C3  2CC5               	goto	u4740
  9748     04C4                     u4741:
  9749     04C4  2CD3               	goto	l2846
  9750     04C5                     u4740:
  9751     04C5                     l2842:
  9752     04C5  1683               	bsf	3,5	;RP0=1, select bank1
  9753     04C6  1303               	bcf	3,6	;RP1=0, select bank1
  9754     04C7  182B               	btfsc	efgtoa@d^(0+128),0
  9755     04C8  2CCA               	goto	u4751
  9756     04C9  2CCB               	goto	u4750
  9757     04CA                     u4751:
  9758     04CA  2CD3               	goto	l2846
  9759     04CB                     u4750:
  9760     04CB                     l2844:
  9761                           
  9762                           ;C:\Program Files\Microchip\xc8\v3.00\pic\sources\c99\common\doprnt.c: 751:             
      +                          l = 0.0;
  9763     04CB  3000               	movlw	0
  9764     04CC  00C0               	movwf	(efgtoa@l+3)^(0+128)
  9765     04CD  3000               	movlw	0
  9766     04CE  00BF               	movwf	(efgtoa@l+2)^(0+128)
  9767     04CF  3000               	movlw	0
  9768     04D0  00BE               	movwf	(efgtoa@l+1)^(0+128)
  9769     04D1  3000               	movlw	0
  9770     04D2  00BD               	movwf	efgtoa@l^(0+128)
  9771     04D3                     l2846:
  9772                           
  9773                           ;C:\Program Files\Microchip\xc8\v3.00\pic\sources\c99\common\doprnt.c: 756:     h = g.f 
      +                          + l;
  9774     04D3  1683               	bsf	3,5	;RP0=1, select bank1
  9775     04D4  1303               	bcf	3,6	;RP1=0, select bank1
  9776     04D5  0840               	movf	(efgtoa@l+3)^(0+128),w
  9777     04D6  00F3               	movwf	___fladd@b+3
  9778     04D7  083F               	movf	(efgtoa@l+2)^(0+128),w
  9779     04D8  00F2               	movwf	___fladd@b+2
  9780     04D9  083E               	movf	(efgtoa@l+1)^(0+128),w
  9781     04DA  00F1               	movwf	___fladd@b+1
  9782     04DB  083D               	movf	efgtoa@l^(0+128),w
  9783     04DC  00F0               	movwf	___fladd@b
  9784     04DD  0847               	movf	(efgtoa@g+3)^(0+128),w
  9785     04DE  00F7               	movwf	___fladd@a+3
  9786     04DF  0846               	movf	(efgtoa@g+2)^(0+128),w
  9787     04E0  00F6               	movwf	___fladd@a+2
  9788     04E1  0845               	movf	(efgtoa@g+1)^(0+128),w
  9789     04E2  00F5               	movwf	___fladd@a+1
  9790     04E3  0844               	movf	efgtoa@g^(0+128),w
  9791     04E4  00F4               	movwf	___fladd@a
  9792     04E5  120A  158A  2262  120A  118A  	fcall	___fladd
  9793     04EA  0873               	movf	?___fladd+3,w
  9794     04EB  1683               	bsf	3,5	;RP0=1, select bank1
  9795     04EC  1303               	bcf	3,6	;RP1=0, select bank1
  9796     04ED  00BC               	movwf	(efgtoa@h+3)^(0+128)
  9797     04EE  0872               	movf	?___fladd+2,w
  9798     04EF  00BB               	movwf	(efgtoa@h+2)^(0+128)
  9799     04F0  0871               	movf	?___fladd+1,w
  9800     04F1  00BA               	movwf	(efgtoa@h+1)^(0+128)
  9801     04F2  0870               	movf	?___fladd,w
  9802     04F3  00B9               	movwf	efgtoa@h^(0+128)
  9803     04F4                     l2848:
  9804                           
  9805                           ;C:\Program Files\Microchip\xc8\v3.00\pic\sources\c99\common\doprnt.c: 758:  if (h >= (o
      +                          u.f*10.0)) {
  9806     04F4  083C               	movf	(efgtoa@h+3)^(0+128),w
  9807     04F5  1283               	bcf	3,5	;RP0=0, select bank0
  9808     04F6  1303               	bcf	3,6	;RP1=0, select bank0
  9809     04F7  00B8               	movwf	___flge@ff1+3
  9810     04F8  1683               	bsf	3,5	;RP0=1, select bank1
  9811     04F9  1303               	bcf	3,6	;RP1=0, select bank1
  9812     04FA  083B               	movf	(efgtoa@h+2)^(0+128),w
  9813     04FB  1283               	bcf	3,5	;RP0=0, select bank0
  9814     04FC  1303               	bcf	3,6	;RP1=0, select bank0
  9815     04FD  00B7               	movwf	___flge@ff1+2
  9816     04FE  1683               	bsf	3,5	;RP0=1, select bank1
  9817     04FF  1303               	bcf	3,6	;RP1=0, select bank1
  9818     0500  083A               	movf	(efgtoa@h+1)^(0+128),w
  9819     0501  1283               	bcf	3,5	;RP0=0, select bank0
  9820     0502  1303               	bcf	3,6	;RP1=0, select bank0
  9821     0503  00B6               	movwf	___flge@ff1+1
  9822     0504  1683               	bsf	3,5	;RP0=1, select bank1
  9823     0505  1303               	bcf	3,6	;RP1=0, select bank1
  9824     0506  0839               	movf	efgtoa@h^(0+128),w
  9825     0507  1283               	bcf	3,5	;RP0=0, select bank0
  9826     0508  1303               	bcf	3,6	;RP1=0, select bank0
  9827     0509  00B5               	movwf	___flge@ff1
  9828     050A  3041               	movlw	65
  9829     050B  00A3               	movwf	___flmul@b+3
  9830     050C  3020               	movlw	32
  9831     050D  00A2               	movwf	___flmul@b+2
  9832     050E  3000               	movlw	0
  9833     050F  00A1               	movwf	___flmul@b+1
  9834     0510  3000               	movlw	0
  9835     0511  00A0               	movwf	___flmul@b
  9836     0512  1683               	bsf	3,5	;RP0=1, select bank1
  9837     0513  1303               	bcf	3,6	;RP1=0, select bank1
  9838     0514  0836               	movf	(efgtoa@ou+3)^(0+128),w
  9839     0515  1283               	bcf	3,5	;RP0=0, select bank0
  9840     0516  1303               	bcf	3,6	;RP1=0, select bank0
  9841     0517  00A7               	movwf	___flmul@a+3
  9842     0518  1683               	bsf	3,5	;RP0=1, select bank1
  9843     0519  1303               	bcf	3,6	;RP1=0, select bank1
  9844     051A  0835               	movf	(efgtoa@ou+2)^(0+128),w
  9845     051B  1283               	bcf	3,5	;RP0=0, select bank0
  9846     051C  1303               	bcf	3,6	;RP1=0, select bank0
  9847     051D  00A6               	movwf	___flmul@a+2
  9848     051E  1683               	bsf	3,5	;RP0=1, select bank1
  9849     051F  1303               	bcf	3,6	;RP1=0, select bank1
  9850     0520  0834               	movf	(efgtoa@ou+1)^(0+128),w
  9851     0521  1283               	bcf	3,5	;RP0=0, select bank0
  9852     0522  1303               	bcf	3,6	;RP1=0, select bank0
  9853     0523  00A5               	movwf	___flmul@a+1
  9854     0524  1683               	bsf	3,5	;RP0=1, select bank1
  9855     0525  1303               	bcf	3,6	;RP1=0, select bank1
  9856     0526  0833               	movf	efgtoa@ou^(0+128),w
  9857     0527  1283               	bcf	3,5	;RP0=0, select bank0
  9858     0528  1303               	bcf	3,6	;RP1=0, select bank0
  9859     0529  00A4               	movwf	___flmul@a
  9860     052A  120A  158A  24BE  120A  118A  	fcall	___flmul
  9861     052F  1283               	bcf	3,5	;RP0=0, select bank0
  9862     0530  1303               	bcf	3,6	;RP1=0, select bank0
  9863     0531  0823               	movf	?___flmul+3,w
  9864     0532  00BC               	movwf	___flge@ff2+3
  9865     0533  0822               	movf	?___flmul+2,w
  9866     0534  00BB               	movwf	___flge@ff2+2
  9867     0535  0821               	movf	?___flmul+1,w
  9868     0536  00BA               	movwf	___flge@ff2+1
  9869     0537  0820               	movf	?___flmul,w
  9870     0538  00B9               	movwf	___flge@ff2
  9871     0539  160A  118A  22AD  120A  118A  	fcall	___flge
  9872     053E  1C03               	btfss	3,0
  9873     053F  2D41               	goto	u4761
  9874     0540  2D42               	goto	u4760
  9875     0541                     u4761:
  9876     0541  2D95               	goto	l706
  9877     0542                     u4760:
  9878     0542                     l2850:
  9879                           
  9880                           ;C:\Program Files\Microchip\xc8\v3.00\pic\sources\c99\common\doprnt.c: 759:   e++;
  9881     0542  3001               	movlw	1
  9882     0543  1683               	bsf	3,5	;RP0=1, select bank1
  9883     0544  1303               	bcf	3,6	;RP1=0, select bank1
  9884     0545  07AF               	addwf	efgtoa@e^(0+128),f
  9885     0546  1803               	skipnc
  9886     0547  0AB0               	incf	(efgtoa@e+1)^(0+128),f
  9887     0548  3000               	movlw	0
  9888     0549  07B0               	addwf	(efgtoa@e+1)^(0+128),f
  9889     054A                     l2852:
  9890                           
  9891                           ;C:\Program Files\Microchip\xc8\v3.00\pic\sources\c99\common\doprnt.c: 760:   ou.f *= 10
      +                          .0;
  9892     054A  3041               	movlw	65
  9893     054B  1283               	bcf	3,5	;RP0=0, select bank0
  9894     054C  1303               	bcf	3,6	;RP1=0, select bank0
  9895     054D  00A3               	movwf	___flmul@b+3
  9896     054E  3020               	movlw	32
  9897     054F  00A2               	movwf	___flmul@b+2
  9898     0550  3000               	movlw	0
  9899     0551  00A1               	movwf	___flmul@b+1
  9900     0552  3000               	movlw	0
  9901     0553  00A0               	movwf	___flmul@b
  9902     0554  1683               	bsf	3,5	;RP0=1, select bank1
  9903     0555  1303               	bcf	3,6	;RP1=0, select bank1
  9904     0556  0836               	movf	(efgtoa@ou+3)^(0+128),w
  9905     0557  1283               	bcf	3,5	;RP0=0, select bank0
  9906     0558  1303               	bcf	3,6	;RP1=0, select bank0
  9907     0559  00A7               	movwf	___flmul@a+3
  9908     055A  1683               	bsf	3,5	;RP0=1, select bank1
  9909     055B  1303               	bcf	3,6	;RP1=0, select bank1
  9910     055C  0835               	movf	(efgtoa@ou+2)^(0+128),w
  9911     055D  1283               	bcf	3,5	;RP0=0, select bank0
  9912     055E  1303               	bcf	3,6	;RP1=0, select bank0
  9913     055F  00A6               	movwf	___flmul@a+2
  9914     0560  1683               	bsf	3,5	;RP0=1, select bank1
  9915     0561  1303               	bcf	3,6	;RP1=0, select bank1
  9916     0562  0834               	movf	(efgtoa@ou+1)^(0+128),w
  9917     0563  1283               	bcf	3,5	;RP0=0, select bank0
  9918     0564  1303               	bcf	3,6	;RP1=0, select bank0
  9919     0565  00A5               	movwf	___flmul@a+1
  9920     0566  1683               	bsf	3,5	;RP0=1, select bank1
  9921     0567  1303               	bcf	3,6	;RP1=0, select bank1
  9922     0568  0833               	movf	efgtoa@ou^(0+128),w
  9923     0569  1283               	bcf	3,5	;RP0=0, select bank0
  9924     056A  1303               	bcf	3,6	;RP1=0, select bank0
  9925     056B  00A4               	movwf	___flmul@a
  9926     056C  120A  158A  24BE  120A  118A  	fcall	___flmul
  9927     0571  1283               	bcf	3,5	;RP0=0, select bank0
  9928     0572  1303               	bcf	3,6	;RP1=0, select bank0
  9929     0573  0823               	movf	?___flmul+3,w
  9930     0574  1683               	bsf	3,5	;RP0=1, select bank1
  9931     0575  1303               	bcf	3,6	;RP1=0, select bank1
  9932     0576  00B6               	movwf	(efgtoa@ou+3)^(0+128)
  9933     0577  1283               	bcf	3,5	;RP0=0, select bank0
  9934     0578  1303               	bcf	3,6	;RP1=0, select bank0
  9935     0579  0822               	movf	?___flmul+2,w
  9936     057A  1683               	bsf	3,5	;RP0=1, select bank1
  9937     057B  1303               	bcf	3,6	;RP1=0, select bank1
  9938     057C  00B5               	movwf	(efgtoa@ou+2)^(0+128)
  9939     057D  1283               	bcf	3,5	;RP0=0, select bank0
  9940     057E  1303               	bcf	3,6	;RP1=0, select bank0
  9941     057F  0821               	movf	?___flmul+1,w
  9942     0580  1683               	bsf	3,5	;RP0=1, select bank1
  9943     0581  1303               	bcf	3,6	;RP1=0, select bank1
  9944     0582  00B4               	movwf	(efgtoa@ou+1)^(0+128)
  9945     0583  1283               	bcf	3,5	;RP0=0, select bank0
  9946     0584  1303               	bcf	3,6	;RP1=0, select bank0
  9947     0585  0820               	movf	?___flmul,w
  9948     0586  1683               	bsf	3,5	;RP0=1, select bank1
  9949     0587  1303               	bcf	3,6	;RP1=0, select bank1
  9950     0588  00B3               	movwf	efgtoa@ou^(0+128)
  9951     0589                     l2854:
  9952                           
  9953                           ;C:\Program Files\Microchip\xc8\v3.00\pic\sources\c99\common\doprnt.c: 762:   if (nmode 
      +                          == 'f') {
  9954     0589  3066               	movlw	102
  9955     058A  062A               	xorwf	efgtoa@nmode^(0+128),w
  9956     058B  1D03               	btfss	3,2
  9957     058C  2D8E               	goto	u4771
  9958     058D  2D8F               	goto	u4770
  9959     058E                     u4771:
  9960     058E  2D95               	goto	l706
  9961     058F                     u4770:
  9962     058F                     l2856:
  9963                           
  9964                           ;C:\Program Files\Microchip\xc8\v3.00\pic\sources\c99\common\doprnt.c: 764:    m++;
  9965     058F  3001               	movlw	1
  9966     0590  07AD               	addwf	efgtoa@m^(0+128),f
  9967     0591  1803               	skipnc
  9968     0592  0AAE               	incf	(efgtoa@m+1)^(0+128),f
  9969     0593  3000               	movlw	0
  9970     0594  07AE               	addwf	(efgtoa@m+1)^(0+128),f
  9971     0595                     l706:	
  9972                           ;C:\Program Files\Microchip\xc8\v3.00\pic\sources\c99\common\doprnt.c: 767:  }
  9973                           
  9974                           
  9975                           ;C:\Program Files\Microchip\xc8\v3.00\pic\sources\c99\common\doprnt.c: 770:     u = ou;
  9976     0595  1683               	bsf	3,5	;RP0=1, select bank1
  9977     0596  1303               	bcf	3,6	;RP1=0, select bank1
  9978     0597  0836               	movf	(efgtoa@ou+3)^(0+128),w
  9979     0598  00CB               	movwf	(efgtoa@u+3)^(0+128)
  9980     0599  0835               	movf	(efgtoa@ou+2)^(0+128),w
  9981     059A  00CA               	movwf	(efgtoa@u+2)^(0+128)
  9982     059B  0834               	movf	(efgtoa@ou+1)^(0+128),w
  9983     059C  00C9               	movwf	(efgtoa@u+1)^(0+128)
  9984     059D  0833               	movf	efgtoa@ou^(0+128),w
  9985     059E  00C8               	movwf	efgtoa@u^(0+128)
  9986                           
  9987                           ;C:\Program Files\Microchip\xc8\v3.00\pic\sources\c99\common\doprnt.c: 774:  ne = e;
  9988     059F  0830               	movf	(efgtoa@e+1)^(0+128),w
  9989     05A0  00A1               	movwf	(efgtoa@ne+1)^(0+128)
  9990     05A1  082F               	movf	efgtoa@e^(0+128),w
  9991     05A2  00A0               	movwf	efgtoa@ne^(0+128)
  9992     05A3                     l2858:
  9993                           
  9994                           ;C:\Program Files\Microchip\xc8\v3.00\pic\sources\c99\common\doprnt.c: 776:     pp = 0;
  9995     05A3  01A8               	clrf	efgtoa@pp^(0+128)
  9996     05A4                     l2860:
  9997                           
  9998                           ;C:\Program Files\Microchip\xc8\v3.00\pic\sources\c99\common\doprnt.c: 777:     t = 0;
  9999     05A4  01A4               	clrf	efgtoa@t^(0+128)
 10000     05A5  01A5               	clrf	(efgtoa@t+1)^(0+128)
 10001     05A6                     l2862:
 10002                           
 10003                           ;C:\Program Files\Microchip\xc8\v3.00\pic\sources\c99\common\doprnt.c: 778:     i = 0;
 10004     05A6  01B7               	clrf	efgtoa@i^(0+128)
 10005     05A7  01B8               	clrf	(efgtoa@i+1)^(0+128)
 10006                           
 10007                           ;C:\Program Files\Microchip\xc8\v3.00\pic\sources\c99\common\doprnt.c: 779:     while ((
      +                          i < m) && (n < (80 - 5))) {
 10008     05A8  2F47               	goto	l2906
 10009     05A9                     l2864:
 10010                           
 10011                           ;C:\Program Files\Microchip\xc8\v3.00\pic\sources\c99\common\doprnt.c: 780:         l = 
      +                          floorf(h/u.f);
 10012     05A9  1683               	bsf	3,5	;RP0=1, select bank1
 10013     05AA  1303               	bcf	3,6	;RP1=0, select bank1
 10014     05AB  084B               	movf	(efgtoa@u+3)^(0+128),w
 10015     05AC  1283               	bcf	3,5	;RP0=0, select bank0
 10016     05AD  1303               	bcf	3,6	;RP1=0, select bank0
 10017     05AE  00A3               	movwf	___fldiv@a+3
 10018     05AF  1683               	bsf	3,5	;RP0=1, select bank1
 10019     05B0  1303               	bcf	3,6	;RP1=0, select bank1
 10020     05B1  084A               	movf	(efgtoa@u+2)^(0+128),w
 10021     05B2  1283               	bcf	3,5	;RP0=0, select bank0
 10022     05B3  1303               	bcf	3,6	;RP1=0, select bank0
 10023     05B4  00A2               	movwf	___fldiv@a+2
 10024     05B5  1683               	bsf	3,5	;RP0=1, select bank1
 10025     05B6  1303               	bcf	3,6	;RP1=0, select bank1
 10026     05B7  0849               	movf	(efgtoa@u+1)^(0+128),w
 10027     05B8  1283               	bcf	3,5	;RP0=0, select bank0
 10028     05B9  1303               	bcf	3,6	;RP1=0, select bank0
 10029     05BA  00A1               	movwf	___fldiv@a+1
 10030     05BB  1683               	bsf	3,5	;RP0=1, select bank1
 10031     05BC  1303               	bcf	3,6	;RP1=0, select bank1
 10032     05BD  0848               	movf	efgtoa@u^(0+128),w
 10033     05BE  1283               	bcf	3,5	;RP0=0, select bank0
 10034     05BF  1303               	bcf	3,6	;RP1=0, select bank0
 10035     05C0  00A0               	movwf	___fldiv@a
 10036     05C1  1683               	bsf	3,5	;RP0=1, select bank1
 10037     05C2  1303               	bcf	3,6	;RP1=0, select bank1
 10038     05C3  083C               	movf	(efgtoa@h+3)^(0+128),w
 10039     05C4  1283               	bcf	3,5	;RP0=0, select bank0
 10040     05C5  1303               	bcf	3,6	;RP1=0, select bank0
 10041     05C6  00A7               	movwf	___fldiv@b+3
 10042     05C7  1683               	bsf	3,5	;RP0=1, select bank1
 10043     05C8  1303               	bcf	3,6	;RP1=0, select bank1
 10044     05C9  083B               	movf	(efgtoa@h+2)^(0+128),w
 10045     05CA  1283               	bcf	3,5	;RP0=0, select bank0
 10046     05CB  1303               	bcf	3,6	;RP1=0, select bank0
 10047     05CC  00A6               	movwf	___fldiv@b+2
 10048     05CD  1683               	bsf	3,5	;RP0=1, select bank1
 10049     05CE  1303               	bcf	3,6	;RP1=0, select bank1
 10050     05CF  083A               	movf	(efgtoa@h+1)^(0+128),w
 10051     05D0  1283               	bcf	3,5	;RP0=0, select bank0
 10052     05D1  1303               	bcf	3,6	;RP1=0, select bank0
 10053     05D2  00A5               	movwf	___fldiv@b+1
 10054     05D3  1683               	bsf	3,5	;RP0=1, select bank1
 10055     05D4  1303               	bcf	3,6	;RP1=0, select bank1
 10056     05D5  0839               	movf	efgtoa@h^(0+128),w
 10057     05D6  1283               	bcf	3,5	;RP0=0, select bank0
 10058     05D7  1303               	bcf	3,6	;RP1=0, select bank0
 10059     05D8  00A4               	movwf	___fldiv@b
 10060     05D9  120A  158A  2098  120A  118A  	fcall	___fldiv
 10061     05DE  1283               	bcf	3,5	;RP0=0, select bank0
 10062     05DF  1303               	bcf	3,6	;RP1=0, select bank0
 10063     05E0  0823               	movf	?___fldiv+3,w
 10064     05E1  00BD               	movwf	floorf@x+3
 10065     05E2  0822               	movf	?___fldiv+2,w
 10066     05E3  00BC               	movwf	floorf@x+2
 10067     05E4  0821               	movf	?___fldiv+1,w
 10068     05E5  00BB               	movwf	floorf@x+1
 10069     05E6  0820               	movf	?___fldiv,w
 10070     05E7  00BA               	movwf	floorf@x
 10071     05E8  160A  118A  26F1  120A  118A  	fcall	_floorf
 10072     05ED  1283               	bcf	3,5	;RP0=0, select bank0
 10073     05EE  1303               	bcf	3,6	;RP1=0, select bank0
 10074     05EF  083D               	movf	?_floorf+3,w
 10075     05F0  1683               	bsf	3,5	;RP0=1, select bank1
 10076     05F1  1303               	bcf	3,6	;RP1=0, select bank1
 10077     05F2  00C0               	movwf	(efgtoa@l+3)^(0+128)
 10078     05F3  1283               	bcf	3,5	;RP0=0, select bank0
 10079     05F4  1303               	bcf	3,6	;RP1=0, select bank0
 10080     05F5  083C               	movf	?_floorf+2,w
 10081     05F6  1683               	bsf	3,5	;RP0=1, select bank1
 10082     05F7  1303               	bcf	3,6	;RP1=0, select bank1
 10083     05F8  00BF               	movwf	(efgtoa@l+2)^(0+128)
 10084     05F9  1283               	bcf	3,5	;RP0=0, select bank0
 10085     05FA  1303               	bcf	3,6	;RP1=0, select bank0
 10086     05FB  083B               	movf	?_floorf+1,w
 10087     05FC  1683               	bsf	3,5	;RP0=1, select bank1
 10088     05FD  1303               	bcf	3,6	;RP1=0, select bank1
 10089     05FE  00BE               	movwf	(efgtoa@l+1)^(0+128)
 10090     05FF  1283               	bcf	3,5	;RP0=0, select bank0
 10091     0600  1303               	bcf	3,6	;RP1=0, select bank0
 10092     0601  083A               	movf	?_floorf,w
 10093     0602  1683               	bsf	3,5	;RP0=1, select bank1
 10094     0603  1303               	bcf	3,6	;RP1=0, select bank1
 10095     0604  00BD               	movwf	efgtoa@l^(0+128)
 10096                           
 10097                           ;C:\Program Files\Microchip\xc8\v3.00\pic\sources\c99\common\doprnt.c: 781:         d = 
      +                          (int)l > 9 ? 9 : (int)l;
 10098     0605  0840               	movf	(efgtoa@l+3)^(0+128),w
 10099     0606  00F3               	movwf	___fltol@f1+3
 10100     0607  083F               	movf	(efgtoa@l+2)^(0+128),w
 10101     0608  00F2               	movwf	___fltol@f1+2
 10102     0609  083E               	movf	(efgtoa@l+1)^(0+128),w
 10103     060A  00F1               	movwf	___fltol@f1+1
 10104     060B  083D               	movf	efgtoa@l^(0+128),w
 10105     060C  00F0               	movwf	___fltol@f1
 10106     060D  160A  118A  205B  120A  118A  	fcall	___fltol
 10107     0612  0871               	movf	?___fltol+1,w
 10108     0613  3A80               	xorlw	128
 10109     0614  00FF               	movwf	btemp+1
 10110     0615  3080               	movlw	128
 10111     0616  027F               	subwf	btemp+1,w
 10112     0617  1D03               	skipz
 10113     0618  2E1B               	goto	u4785
 10114     0619  300A               	movlw	10
 10115     061A  0270               	subwf	?___fltol,w
 10116     061B                     u4785:
 10117     061B  1803               	skipnc
 10118     061C  2E1E               	goto	u4781
 10119     061D  2E1F               	goto	u4780
 10120     061E                     u4781:
 10121     061E  2E35               	goto	l2868
 10122     061F                     u4780:
 10123     061F                     l2866:
 10124     061F  1683               	bsf	3,5	;RP0=1, select bank1
 10125     0620  1303               	bcf	3,6	;RP1=0, select bank1
 10126     0621  0840               	movf	(efgtoa@l+3)^(0+128),w
 10127     0622  00F3               	movwf	___fltol@f1+3
 10128     0623  083F               	movf	(efgtoa@l+2)^(0+128),w
 10129     0624  00F2               	movwf	___fltol@f1+2
 10130     0625  083E               	movf	(efgtoa@l+1)^(0+128),w
 10131     0626  00F1               	movwf	___fltol@f1+1
 10132     0627  083D               	movf	efgtoa@l^(0+128),w
 10133     0628  00F0               	movwf	___fltol@f1
 10134     0629  160A  118A  205B  120A  118A  	fcall	___fltol
 10135     062E  0871               	movf	?___fltol+1,w
 10136     062F  1683               	bsf	3,5	;RP0=1, select bank1
 10137     0630  1303               	bcf	3,6	;RP1=0, select bank1
 10138     0631  00AC               	movwf	(efgtoa@d+1)^(0+128)
 10139     0632  0870               	movf	?___fltol,w
 10140     0633  00AB               	movwf	efgtoa@d^(0+128)
 10141     0634  2E3B               	goto	l2870
 10142     0635                     l2868:
 10143     0635  3009               	movlw	9
 10144     0636  1683               	bsf	3,5	;RP0=1, select bank1
 10145     0637  1303               	bcf	3,6	;RP1=0, select bank1
 10146     0638  00AB               	movwf	efgtoa@d^(0+128)
 10147     0639  3000               	movlw	0
 10148     063A  00AC               	movwf	(efgtoa@d^(0+128)+1)
 10149     063B                     l2870:
 10150                           
 10151                           ;C:\Program Files\Microchip\xc8\v3.00\pic\sources\c99\common\doprnt.c: 792:   {;C:\Progr
      +                          am Files\Microchip\xc8\v3.00\pic\sources\c99\common\doprnt.c: 793:             if (!pp &
      +                          & (ne < 0)) {
 10152     063B  0828               	movf	efgtoa@pp^(0+128),w
 10153     063C  1D03               	btfss	3,2
 10154     063D  2E3F               	goto	u4791
 10155     063E  2E40               	goto	u4790
 10156     063F                     u4791:
 10157     063F  2E71               	goto	l2890
 10158     0640                     u4790:
 10159     0640                     l2872:
 10160     0640  1FA1               	btfss	(efgtoa@ne+1)^(0+128),7
 10161     0641  2E43               	goto	u4801
 10162     0642  2E44               	goto	u4800
 10163     0643                     u4801:
 10164     0643  2E71               	goto	l2890
 10165     0644                     u4800:
 10166     0644                     l2874:
 10167                           
 10168                           ;C:\Program Files\Microchip\xc8\v3.00\pic\sources\c99\common\doprnt.c: 794:             
      +                              dbuf[n++] = '.';
 10169     0644  0842               	movf	efgtoa@n^(0+128),w
 10170     0645  3E10               	addlw	(low (_dbuf| (0+256)))& (0+255)
 10171     0646  0084               	movwf	4
 10172     0647  302E               	movlw	46
 10173     0648  1783               	bsf	3,7	;select IRP bank2
 10174     0649  0080               	movwf	0
 10175     064A                     l2876:
 10176     064A  3001               	movlw	1
 10177     064B  07C2               	addwf	efgtoa@n^(0+128),f
 10178     064C  1803               	skipnc
 10179     064D  0AC3               	incf	(efgtoa@n+1)^(0+128),f
 10180     064E  3000               	movlw	0
 10181     064F  07C3               	addwf	(efgtoa@n+1)^(0+128),f
 10182     0650                     l2878:
 10183                           
 10184                           ;C:\Program Files\Microchip\xc8\v3.00\pic\sources\c99\common\doprnt.c: 795:             
      +                              --w;
 10185     0650  30FF               	movlw	255
 10186     0651  07B1               	addwf	efgtoa@w^(0+128),f
 10187     0652  1803               	skipnc
 10188     0653  0AB2               	incf	(efgtoa@w+1)^(0+128),f
 10189     0654  30FF               	movlw	255
 10190     0655  07B2               	addwf	(efgtoa@w+1)^(0+128),f
 10191     0656                     l2880:
 10192                           
 10193                           ;C:\Program Files\Microchip\xc8\v3.00\pic\sources\c99\common\doprnt.c: 796:             
      +                              pp = 1;
 10194     0656  3001               	movlw	1
 10195     0657  00A8               	movwf	efgtoa@pp^(0+128)
 10196     0658  2E71               	goto	l2890
 10197     0659                     l2882:
 10198                           
 10199                           ;C:\Program Files\Microchip\xc8\v3.00\pic\sources\c99\common\doprnt.c: 799:             
      +                              dbuf[n++] = '0';
 10200     0659  0842               	movf	efgtoa@n^(0+128),w
 10201     065A  3E10               	addlw	(low (_dbuf| (0+256)))& (0+255)
 10202     065B  0084               	movwf	4
 10203     065C  3030               	movlw	48
 10204     065D  1783               	bsf	3,7	;select IRP bank2
 10205     065E  0080               	movwf	0
 10206     065F                     l2884:
 10207     065F  3001               	movlw	1
 10208     0660  07C2               	addwf	efgtoa@n^(0+128),f
 10209     0661  1803               	skipnc
 10210     0662  0AC3               	incf	(efgtoa@n+1)^(0+128),f
 10211     0663  3000               	movlw	0
 10212     0664  07C3               	addwf	(efgtoa@n+1)^(0+128),f
 10213     0665                     l2886:
 10214                           
 10215                           ;C:\Program Files\Microchip\xc8\v3.00\pic\sources\c99\common\doprnt.c: 800:             
      +                              --w;
 10216     0665  30FF               	movlw	255
 10217     0666  07B1               	addwf	efgtoa@w^(0+128),f
 10218     0667  1803               	skipnc
 10219     0668  0AB2               	incf	(efgtoa@w+1)^(0+128),f
 10220     0669  30FF               	movlw	255
 10221     066A  07B2               	addwf	(efgtoa@w+1)^(0+128),f
 10222     066B                     l2888:
 10223                           
 10224                           ;C:\Program Files\Microchip\xc8\v3.00\pic\sources\c99\common\doprnt.c: 801:             
      +                              --t;
 10225     066B  30FF               	movlw	255
 10226     066C  07A4               	addwf	efgtoa@t^(0+128),f
 10227     066D  1803               	skipnc
 10228     066E  0AA5               	incf	(efgtoa@t+1)^(0+128),f
 10229     066F  30FF               	movlw	255
 10230     0670  07A5               	addwf	(efgtoa@t+1)^(0+128),f
 10231     0671                     l2890:
 10232                           
 10233                           ;C:\Program Files\Microchip\xc8\v3.00\pic\sources\c99\common\doprnt.c: 798:             
      +                          while (t) {
 10234     0671  0824               	movf	efgtoa@t^(0+128),w
 10235     0672  0425               	iorwf	(efgtoa@t+1)^(0+128),w
 10236     0673  1D03               	btfss	3,2
 10237     0674  2E76               	goto	u4811
 10238     0675  2E77               	goto	u4810
 10239     0676                     u4811:
 10240     0676  2E59               	goto	l2882
 10241     0677                     u4810:
 10242     0677                     l2892:
 10243                           
 10244                           ;C:\Program Files\Microchip\xc8\v3.00\pic\sources\c99\common\doprnt.c: 803:             
      +                          dbuf[n++] = (char)((int)'0' + d);
 10245     0677  0842               	movf	efgtoa@n^(0+128),w
 10246     0678  3E10               	addlw	(low (_dbuf| (0+256)))& (0+255)
 10247     0679  0084               	movwf	4
 10248     067A  082B               	movf	efgtoa@d^(0+128),w
 10249     067B  3E30               	addlw	48
 10250     067C  1783               	bsf	3,7	;select IRP bank2
 10251     067D  0080               	movwf	0
 10252     067E                     l2894:
 10253     067E  3001               	movlw	1
 10254     067F  07C2               	addwf	efgtoa@n^(0+128),f
 10255     0680  1803               	skipnc
 10256     0681  0AC3               	incf	(efgtoa@n+1)^(0+128),f
 10257     0682  3000               	movlw	0
 10258     0683  07C3               	addwf	(efgtoa@n+1)^(0+128),f
 10259     0684                     l2896:
 10260                           
 10261                           ;C:\Program Files\Microchip\xc8\v3.00\pic\sources\c99\common\doprnt.c: 804:             
      +                          --w;
 10262     0684  30FF               	movlw	255
 10263     0685  07B1               	addwf	efgtoa@w^(0+128),f
 10264     0686  1803               	skipnc
 10265     0687  0AB2               	incf	(efgtoa@w+1)^(0+128),f
 10266     0688  30FF               	movlw	255
 10267     0689  07B2               	addwf	(efgtoa@w+1)^(0+128),f
 10268     068A                     l2898:
 10269                           
 10270                           ;C:\Program Files\Microchip\xc8\v3.00\pic\sources\c99\common\doprnt.c: 805:         };C:
      +                          \Program Files\Microchip\xc8\v3.00\pic\sources\c99\common\doprnt.c: 806:         h -= l*
      +                          u.f;
 10271     068A  084B               	movf	(efgtoa@u+3)^(0+128),w
 10272     068B  1283               	bcf	3,5	;RP0=0, select bank0
 10273     068C  1303               	bcf	3,6	;RP1=0, select bank0
 10274     068D  00A7               	movwf	___flmul@a+3
 10275     068E  1683               	bsf	3,5	;RP0=1, select bank1
 10276     068F  1303               	bcf	3,6	;RP1=0, select bank1
 10277     0690  084A               	movf	(efgtoa@u+2)^(0+128),w
 10278     0691  1283               	bcf	3,5	;RP0=0, select bank0
 10279     0692  1303               	bcf	3,6	;RP1=0, select bank0
 10280     0693  00A6               	movwf	___flmul@a+2
 10281     0694  1683               	bsf	3,5	;RP0=1, select bank1
 10282     0695  1303               	bcf	3,6	;RP1=0, select bank1
 10283     0696  0849               	movf	(efgtoa@u+1)^(0+128),w
 10284     0697  1283               	bcf	3,5	;RP0=0, select bank0
 10285     0698  1303               	bcf	3,6	;RP1=0, select bank0
 10286     0699  00A5               	movwf	___flmul@a+1
 10287     069A  1683               	bsf	3,5	;RP0=1, select bank1
 10288     069B  1303               	bcf	3,6	;RP1=0, select bank1
 10289     069C  0848               	movf	efgtoa@u^(0+128),w
 10290     069D  1283               	bcf	3,5	;RP0=0, select bank0
 10291     069E  1303               	bcf	3,6	;RP1=0, select bank0
 10292     069F  00A4               	movwf	___flmul@a
 10293     06A0  1683               	bsf	3,5	;RP0=1, select bank1
 10294     06A1  1303               	bcf	3,6	;RP1=0, select bank1
 10295     06A2  0840               	movf	(efgtoa@l+3)^(0+128),w
 10296     06A3  1283               	bcf	3,5	;RP0=0, select bank0
 10297     06A4  1303               	bcf	3,6	;RP1=0, select bank0
 10298     06A5  00A3               	movwf	___flmul@b+3
 10299     06A6  1683               	bsf	3,5	;RP0=1, select bank1
 10300     06A7  1303               	bcf	3,6	;RP1=0, select bank1
 10301     06A8  083F               	movf	(efgtoa@l+2)^(0+128),w
 10302     06A9  1283               	bcf	3,5	;RP0=0, select bank0
 10303     06AA  1303               	bcf	3,6	;RP1=0, select bank0
 10304     06AB  00A2               	movwf	___flmul@b+2
 10305     06AC  1683               	bsf	3,5	;RP0=1, select bank1
 10306     06AD  1303               	bcf	3,6	;RP1=0, select bank1
 10307     06AE  083E               	movf	(efgtoa@l+1)^(0+128),w
 10308     06AF  1283               	bcf	3,5	;RP0=0, select bank0
 10309     06B0  1303               	bcf	3,6	;RP1=0, select bank0
 10310     06B1  00A1               	movwf	___flmul@b+1
 10311     06B2  1683               	bsf	3,5	;RP0=1, select bank1
 10312     06B3  1303               	bcf	3,6	;RP1=0, select bank1
 10313     06B4  083D               	movf	efgtoa@l^(0+128),w
 10314     06B5  1283               	bcf	3,5	;RP0=0, select bank0
 10315     06B6  1303               	bcf	3,6	;RP1=0, select bank0
 10316     06B7  00A0               	movwf	___flmul@b
 10317     06B8  120A  158A  24BE  120A  118A  	fcall	___flmul
 10318     06BD  1283               	bcf	3,5	;RP0=0, select bank0
 10319     06BE  1303               	bcf	3,6	;RP1=0, select bank0
 10320     06BF  0823               	movf	?___flmul+3,w
 10321     06C0  00B8               	movwf	___flsub@a+3
 10322     06C1  0822               	movf	?___flmul+2,w
 10323     06C2  00B7               	movwf	___flsub@a+2
 10324     06C3  0821               	movf	?___flmul+1,w
 10325     06C4  00B6               	movwf	___flsub@a+1
 10326     06C5  0820               	movf	?___flmul,w
 10327     06C6  00B5               	movwf	___flsub@a
 10328     06C7  1683               	bsf	3,5	;RP0=1, select bank1
 10329     06C8  1303               	bcf	3,6	;RP1=0, select bank1
 10330     06C9  083C               	movf	(efgtoa@h+3)^(0+128),w
 10331     06CA  1283               	bcf	3,5	;RP0=0, select bank0
 10332     06CB  1303               	bcf	3,6	;RP1=0, select bank0
 10333     06CC  00BC               	movwf	___flsub@b+3
 10334     06CD  1683               	bsf	3,5	;RP0=1, select bank1
 10335     06CE  1303               	bcf	3,6	;RP1=0, select bank1
 10336     06CF  083B               	movf	(efgtoa@h+2)^(0+128),w
 10337     06D0  1283               	bcf	3,5	;RP0=0, select bank0
 10338     06D1  1303               	bcf	3,6	;RP1=0, select bank0
 10339     06D2  00BB               	movwf	___flsub@b+2
 10340     06D3  1683               	bsf	3,5	;RP0=1, select bank1
 10341     06D4  1303               	bcf	3,6	;RP1=0, select bank1
 10342     06D5  083A               	movf	(efgtoa@h+1)^(0+128),w
 10343     06D6  1283               	bcf	3,5	;RP0=0, select bank0
 10344     06D7  1303               	bcf	3,6	;RP1=0, select bank0
 10345     06D8  00BA               	movwf	___flsub@b+1
 10346     06D9  1683               	bsf	3,5	;RP0=1, select bank1
 10347     06DA  1303               	bcf	3,6	;RP1=0, select bank1
 10348     06DB  0839               	movf	efgtoa@h^(0+128),w
 10349     06DC  1283               	bcf	3,5	;RP0=0, select bank0
 10350     06DD  1303               	bcf	3,6	;RP1=0, select bank0
 10351     06DE  00B9               	movwf	___flsub@b
 10352     06DF  160A  158A  2650  120A  118A  	fcall	___flsub
 10353     06E4  1283               	bcf	3,5	;RP0=0, select bank0
 10354     06E5  1303               	bcf	3,6	;RP1=0, select bank0
 10355     06E6  0838               	movf	?___flsub+3,w
 10356     06E7  1683               	bsf	3,5	;RP0=1, select bank1
 10357     06E8  1303               	bcf	3,6	;RP1=0, select bank1
 10358     06E9  00BC               	movwf	(efgtoa@h+3)^(0+128)
 10359     06EA  1283               	bcf	3,5	;RP0=0, select bank0
 10360     06EB  1303               	bcf	3,6	;RP1=0, select bank0
 10361     06EC  0837               	movf	?___flsub+2,w
 10362     06ED  1683               	bsf	3,5	;RP0=1, select bank1
 10363     06EE  1303               	bcf	3,6	;RP1=0, select bank1
 10364     06EF  00BB               	movwf	(efgtoa@h+2)^(0+128)
 10365     06F0  1283               	bcf	3,5	;RP0=0, select bank0
 10366     06F1  1303               	bcf	3,6	;RP1=0, select bank0
 10367     06F2  0836               	movf	?___flsub+1,w
 10368     06F3  1683               	bsf	3,5	;RP0=1, select bank1
 10369     06F4  1303               	bcf	3,6	;RP1=0, select bank1
 10370     06F5  00BA               	movwf	(efgtoa@h+1)^(0+128)
 10371     06F6  1283               	bcf	3,5	;RP0=0, select bank0
 10372     06F7  1303               	bcf	3,6	;RP1=0, select bank0
 10373     06F8  0835               	movf	?___flsub,w
 10374     06F9  1683               	bsf	3,5	;RP0=1, select bank1
 10375     06FA  1303               	bcf	3,6	;RP1=0, select bank1
 10376     06FB  00B9               	movwf	efgtoa@h^(0+128)
 10377     06FC                     l2900:
 10378                           
 10379                           ;C:\Program Files\Microchip\xc8\v3.00\pic\sources\c99\common\doprnt.c: 807:         u.f 
      +                          = u.f/10.0;
 10380     06FC  3041               	movlw	65
 10381     06FD  1283               	bcf	3,5	;RP0=0, select bank0
 10382     06FE  1303               	bcf	3,6	;RP1=0, select bank0
 10383     06FF  00A3               	movwf	___fldiv@a+3
 10384     0700  3020               	movlw	32
 10385     0701  00A2               	movwf	___fldiv@a+2
 10386     0702  3000               	movlw	0
 10387     0703  00A1               	movwf	___fldiv@a+1
 10388     0704  3000               	movlw	0
 10389     0705  00A0               	movwf	___fldiv@a
 10390     0706  1683               	bsf	3,5	;RP0=1, select bank1
 10391     0707  1303               	bcf	3,6	;RP1=0, select bank1
 10392     0708  084B               	movf	(efgtoa@u+3)^(0+128),w
 10393     0709  1283               	bcf	3,5	;RP0=0, select bank0
 10394     070A  1303               	bcf	3,6	;RP1=0, select bank0
 10395     070B  00A7               	movwf	___fldiv@b+3
 10396     070C  1683               	bsf	3,5	;RP0=1, select bank1
 10397     070D  1303               	bcf	3,6	;RP1=0, select bank1
 10398     070E  084A               	movf	(efgtoa@u+2)^(0+128),w
 10399     070F  1283               	bcf	3,5	;RP0=0, select bank0
 10400     0710  1303               	bcf	3,6	;RP1=0, select bank0
 10401     0711  00A6               	movwf	___fldiv@b+2
 10402     0712  1683               	bsf	3,5	;RP0=1, select bank1
 10403     0713  1303               	bcf	3,6	;RP1=0, select bank1
 10404     0714  0849               	movf	(efgtoa@u+1)^(0+128),w
 10405     0715  1283               	bcf	3,5	;RP0=0, select bank0
 10406     0716  1303               	bcf	3,6	;RP1=0, select bank0
 10407     0717  00A5               	movwf	___fldiv@b+1
 10408     0718  1683               	bsf	3,5	;RP0=1, select bank1
 10409     0719  1303               	bcf	3,6	;RP1=0, select bank1
 10410     071A  0848               	movf	efgtoa@u^(0+128),w
 10411     071B  1283               	bcf	3,5	;RP0=0, select bank0
 10412     071C  1303               	bcf	3,6	;RP1=0, select bank0
 10413     071D  00A4               	movwf	___fldiv@b
 10414     071E  120A  158A  2098  120A  118A  	fcall	___fldiv
 10415     0723  1283               	bcf	3,5	;RP0=0, select bank0
 10416     0724  1303               	bcf	3,6	;RP1=0, select bank0
 10417     0725  0823               	movf	?___fldiv+3,w
 10418     0726  1683               	bsf	3,5	;RP0=1, select bank1
 10419     0727  1303               	bcf	3,6	;RP1=0, select bank1
 10420     0728  00CB               	movwf	(efgtoa@u+3)^(0+128)
 10421     0729  1283               	bcf	3,5	;RP0=0, select bank0
 10422     072A  1303               	bcf	3,6	;RP1=0, select bank0
 10423     072B  0822               	movf	?___fldiv+2,w
 10424     072C  1683               	bsf	3,5	;RP0=1, select bank1
 10425     072D  1303               	bcf	3,6	;RP1=0, select bank1
 10426     072E  00CA               	movwf	(efgtoa@u+2)^(0+128)
 10427     072F  1283               	bcf	3,5	;RP0=0, select bank0
 10428     0730  1303               	bcf	3,6	;RP1=0, select bank0
 10429     0731  0821               	movf	?___fldiv+1,w
 10430     0732  1683               	bsf	3,5	;RP0=1, select bank1
 10431     0733  1303               	bcf	3,6	;RP1=0, select bank1
 10432     0734  00C9               	movwf	(efgtoa@u+1)^(0+128)
 10433     0735  1283               	bcf	3,5	;RP0=0, select bank0
 10434     0736  1303               	bcf	3,6	;RP1=0, select bank0
 10435     0737  0820               	movf	?___fldiv,w
 10436     0738  1683               	bsf	3,5	;RP0=1, select bank1
 10437     0739  1303               	bcf	3,6	;RP1=0, select bank1
 10438     073A  00C8               	movwf	efgtoa@u^(0+128)
 10439     073B                     l2902:
 10440                           
 10441                           ;C:\Program Files\Microchip\xc8\v3.00\pic\sources\c99\common\doprnt.c: 808:         --ne
      +                          ;
 10442     073B  30FF               	movlw	255
 10443     073C  07A0               	addwf	efgtoa@ne^(0+128),f
 10444     073D  1803               	skipnc
 10445     073E  0AA1               	incf	(efgtoa@ne+1)^(0+128),f
 10446     073F  30FF               	movlw	255
 10447     0740  07A1               	addwf	(efgtoa@ne+1)^(0+128),f
 10448     0741                     l2904:
 10449                           
 10450                           ;C:\Program Files\Microchip\xc8\v3.00\pic\sources\c99\common\doprnt.c: 809:         ++i;
 10451     0741  3001               	movlw	1
 10452     0742  07B7               	addwf	efgtoa@i^(0+128),f
 10453     0743  1803               	skipnc
 10454     0744  0AB8               	incf	(efgtoa@i+1)^(0+128),f
 10455     0745  3000               	movlw	0
 10456     0746  07B8               	addwf	(efgtoa@i+1)^(0+128),f
 10457     0747                     l2906:
 10458                           
 10459                           ;C:\Program Files\Microchip\xc8\v3.00\pic\sources\c99\common\doprnt.c: 779:     while ((
      +                          i < m) && (n < (80 - 5))) {
 10460     0747  0838               	movf	(efgtoa@i+1)^(0+128),w
 10461     0748  3A80               	xorlw	128
 10462     0749  1283               	bcf	3,5	;RP0=0, select bank0
 10463     074A  1303               	bcf	3,6	;RP1=0, select bank0
 10464     074B  00D5               	movwf	??_efgtoa
 10465     074C  1683               	bsf	3,5	;RP0=1, select bank1
 10466     074D  1303               	bcf	3,6	;RP1=0, select bank1
 10467     074E  082E               	movf	(efgtoa@m+1)^(0+128),w
 10468     074F  3A80               	xorlw	128
 10469     0750  1283               	bcf	3,5	;RP0=0, select bank0
 10470     0751  1303               	bcf	3,6	;RP1=0, select bank0
 10471     0752  0255               	subwf	??_efgtoa,w
 10472     0753  1D03               	skipz
 10473     0754  2F59               	goto	u4825
 10474     0755  1683               	bsf	3,5	;RP0=1, select bank1
 10475     0756  1303               	bcf	3,6	;RP1=0, select bank1
 10476     0757  082D               	movf	efgtoa@m^(0+128),w
 10477     0758  0237               	subwf	efgtoa@i^(0+128),w
 10478     0759                     u4825:
 10479     0759  1803               	skipnc
 10480     075A  2F5C               	goto	u4821
 10481     075B  2F5D               	goto	u4820
 10482     075C                     u4821:
 10483     075C  2F6C               	goto	l2910
 10484     075D                     u4820:
 10485     075D                     l2908:
 10486     075D  1683               	bsf	3,5	;RP0=1, select bank1
 10487     075E  1303               	bcf	3,6	;RP1=0, select bank1
 10488     075F  0843               	movf	(efgtoa@n+1)^(0+128),w
 10489     0760  3A80               	xorlw	128
 10490     0761  00FF               	movwf	btemp+1
 10491     0762  3080               	movlw	128
 10492     0763  027F               	subwf	btemp+1,w
 10493     0764  1D03               	skipz
 10494     0765  2F68               	goto	u4835
 10495     0766  304B               	movlw	75
 10496     0767  0242               	subwf	efgtoa@n^(0+128),w
 10497     0768                     u4835:
 10498     0768  1C03               	skipc
 10499     0769  2F6B               	goto	u4831
 10500     076A  2F6C               	goto	u4830
 10501     076B                     u4831:
 10502     076B  2DA9               	goto	l2864
 10503     076C                     u4830:
 10504     076C                     l2910:
 10505                           
 10506                           ;C:\Program Files\Microchip\xc8\v3.00\pic\sources\c99\common\doprnt.c: 816:  i = sizeof(
      +                          dbuf) - 1;
 10507     076C  304F               	movlw	79
 10508     076D  1683               	bsf	3,5	;RP0=1, select bank1
 10509     076E  1303               	bcf	3,6	;RP1=0, select bank1
 10510     076F  00B7               	movwf	efgtoa@i^(0+128)
 10511     0770  3000               	movlw	0
 10512     0771  00B8               	movwf	(efgtoa@i^(0+128)+1)
 10513     0772                     l2912:
 10514                           
 10515                           ;C:\Program Files\Microchip\xc8\v3.00\pic\sources\c99\common\doprnt.c: 817:     dbuf[i] 
      +                          = '\0';
 10516     0772  0837               	movf	efgtoa@i^(0+128),w
 10517     0773  3E10               	addlw	(low (_dbuf| (0+256)))& (0+255)
 10518     0774  0084               	movwf	4
 10519     0775  1783               	bsf	3,7	;select IRP bank2
 10520     0776  0180               	clrf	0
 10521     0777                     l2914:
 10522                           
 10523                           ;C:\Program Files\Microchip\xc8\v3.00\pic\sources\c99\common\doprnt.c: 848:  memcpy(&dbu
      +                          f[i-n], &dbuf[0], (size_t)n);
 10524     0777  3010               	movlw	(low (_dbuf| (0+256)))& (0+255)
 10525     0778  1283               	bcf	3,5	;RP0=0, select bank0
 10526     0779  1303               	bcf	3,6	;RP1=0, select bank0
 10527     077A  00D5               	movwf	??_efgtoa
 10528     077B  1683               	bsf	3,5	;RP0=1, select bank1
 10529     077C  1303               	bcf	3,6	;RP1=0, select bank1
 10530     077D  0842               	movf	efgtoa@n^(0+128),w
 10531     077E  1283               	bcf	3,5	;RP0=0, select bank0
 10532     077F  1303               	bcf	3,6	;RP1=0, select bank0
 10533     0780  02D5               	subwf	??_efgtoa,f
 10534     0781  1683               	bsf	3,5	;RP0=1, select bank1
 10535     0782  1303               	bcf	3,6	;RP1=0, select bank1
 10536     0783  0837               	movf	efgtoa@i^(0+128),w
 10537     0784  1283               	bcf	3,5	;RP0=0, select bank0
 10538     0785  1303               	bcf	3,6	;RP1=0, select bank0
 10539     0786  0755               	addwf	??_efgtoa,w
 10540     0787  00F0               	movwf	memcpy@d1
 10541     0788  3010               	movlw	(low (_dbuf| (0+256)))& (0+255)
 10542     0789  00F1               	movwf	memcpy@s1
 10543     078A  1683               	bsf	3,5	;RP0=1, select bank1
 10544     078B  1303               	bcf	3,6	;RP1=0, select bank1
 10545     078C  0843               	movf	(efgtoa@n+1)^(0+128),w
 10546     078D  00F3               	movwf	memcpy@n+1
 10547     078E  0842               	movf	efgtoa@n^(0+128),w
 10548     078F  00F2               	movwf	memcpy@n
 10549     0790  160A  158A  260C  120A  118A  	fcall	_memcpy
 10550     0795                     l2916:
 10551                           
 10552                           ;C:\Program Files\Microchip\xc8\v3.00\pic\sources\c99\common\doprnt.c: 849:  n = i-n;
 10553     0795  1683               	bsf	3,5	;RP0=1, select bank1
 10554     0796  1303               	bcf	3,6	;RP1=0, select bank1
 10555     0797  0842               	movf	efgtoa@n^(0+128),w
 10556     0798  0237               	subwf	efgtoa@i^(0+128),w
 10557     0799  00C2               	movwf	efgtoa@n^(0+128)
 10558     079A  0843               	movf	(efgtoa@n+1)^(0+128),w
 10559     079B  1C03               	skipc
 10560     079C  0A43               	incf	(efgtoa@n+1)^(0+128),w
 10561     079D  0238               	subwf	(efgtoa@i+1)^(0+128),w
 10562     079E  00C3               	movwf	(efgtoa@n+1)^(0+128)
 10563     079F                     l2918:
 10564                           
 10565                           ;C:\Program Files\Microchip\xc8\v3.00\pic\sources\c99\common\doprnt.c: 850:  i = sign ==
      +                           0 ? 0 : 1;
 10566     079F  0841               	movf	efgtoa@sign^(0+128),w
 10567     07A0  1D03               	btfss	3,2
 10568     07A1  2FA3               	goto	u4841
 10569     07A2  2FA5               	goto	u4840
 10570     07A3                     u4841:
 10571     07A3  3001               	movlw	1
 10572     07A4  2FA6               	goto	u4850
 10573     07A5                     u4840:
 10574     07A5  3000               	movlw	0
 10575     07A6                     u4850:
 10576     07A6  1283               	bcf	3,5	;RP0=0, select bank0
 10577     07A7  1303               	bcf	3,6	;RP1=0, select bank0
 10578     07A8  00D5               	movwf	??_efgtoa
 10579     07A9  01D6               	clrf	??_efgtoa+1
 10580     07AA  0855               	movf	??_efgtoa,w
 10581     07AB  1683               	bsf	3,5	;RP0=1, select bank1
 10582     07AC  1303               	bcf	3,6	;RP1=0, select bank1
 10583     07AD  00B7               	movwf	efgtoa@i^(0+128)
 10584     07AE  1283               	bcf	3,5	;RP0=0, select bank0
 10585     07AF  1303               	bcf	3,6	;RP1=0, select bank0
 10586     07B0  0856               	movf	??_efgtoa+1,w
 10587     07B1  1683               	bsf	3,5	;RP0=1, select bank1
 10588     07B2  1303               	bcf	3,6	;RP1=0, select bank1
 10589     07B3  00B8               	movwf	(efgtoa@i+1)^(0+128)
 10590     07B4                     l2920:
 10591                           
 10592                           ;C:\Program Files\Microchip\xc8\v3.00\pic\sources\c99\common\doprnt.c: 861:  if (sign) {
 10593     07B4  0841               	movf	efgtoa@sign^(0+128),w
 10594     07B5  1903               	btfsc	3,2
 10595     07B6  2FB8               	goto	u4861
 10596     07B7  2FB9               	goto	u4860
 10597     07B8                     u4861:
 10598     07B8  2FC5               	goto	l2924
 10599     07B9                     u4860:
 10600     07B9                     l2922:
 10601                           
 10602                           ;C:\Program Files\Microchip\xc8\v3.00\pic\sources\c99\common\doprnt.c: 862:   dbuf[--n] 
      +                          = sign;
 10603     07B9  30FF               	movlw	255
 10604     07BA  07C2               	addwf	efgtoa@n^(0+128),f
 10605     07BB  1803               	skipnc
 10606     07BC  0AC3               	incf	(efgtoa@n+1)^(0+128),f
 10607     07BD  30FF               	movlw	255
 10608     07BE  07C3               	addwf	(efgtoa@n+1)^(0+128),f
 10609     07BF  0842               	movf	efgtoa@n^(0+128),w
 10610     07C0  3E10               	addlw	(low (_dbuf| (0+256)))& (0+255)
 10611     07C1  0084               	movwf	4
 10612     07C2  0841               	movf	efgtoa@sign^(0+128),w
 10613     07C3  1783               	bsf	3,7	;select IRP bank2
 10614     07C4  0080               	movwf	0
 10615     07C5                     l2924:
 10616                           
 10617                           ;C:\Program Files\Microchip\xc8\v3.00\pic\sources\c99\common\doprnt.c: 864:  w -= i;
 10618     07C5  0837               	movf	efgtoa@i^(0+128),w
 10619     07C6  02B1               	subwf	efgtoa@w^(0+128),f
 10620     07C7  0838               	movf	(efgtoa@i+1)^(0+128),w
 10621     07C8  1C03               	skipc
 10622     07C9  03B2               	decf	(efgtoa@w+1)^(0+128),f
 10623     07CA  02B2               	subwf	(efgtoa@w+1)^(0+128),f
 10624     07CB                     l2926:
 10625                           
 10626                           ;C:\Program Files\Microchip\xc8\v3.00\pic\sources\c99\common\doprnt.c: 867:     return (
      +                          void) pad(fp, &dbuf[n], w);
 10627     07CB  1283               	bcf	3,5	;RP0=0, select bank0
 10628     07CC  1303               	bcf	3,6	;RP1=0, select bank0
 10629     07CD  084E               	movf	efgtoa@fp,w
 10630     07CE  00A8               	movwf	pad@fp
 10631     07CF  084F               	movf	efgtoa@fp+1,w
 10632     07D0  00A9               	movwf	pad@fp+1
 10633     07D1  1683               	bsf	3,5	;RP0=1, select bank1
 10634     07D2  1303               	bcf	3,6	;RP1=0, select bank1
 10635     07D3  0842               	movf	efgtoa@n^(0+128),w
 10636     07D4  3E10               	addlw	(low (_dbuf| (0+256)))& (0+255)
 10637     07D5  1283               	bcf	3,5	;RP0=0, select bank0
 10638     07D6  1303               	bcf	3,6	;RP1=0, select bank0
 10639     07D7  00AA               	movwf	pad@buf
 10640     07D8  1683               	bsf	3,5	;RP0=1, select bank1
 10641     07D9  1303               	bcf	3,6	;RP1=0, select bank1
 10642     07DA  0832               	movf	(efgtoa@w+1)^(0+128),w
 10643     07DB  1283               	bcf	3,5	;RP0=0, select bank0
 10644     07DC  1303               	bcf	3,6	;RP1=0, select bank0
 10645     07DD  00AC               	movwf	pad@p+1
 10646     07DE  1683               	bsf	3,5	;RP0=1, select bank1
 10647     07DF  1303               	bcf	3,6	;RP1=0, select bank1
 10648     07E0  0831               	movf	efgtoa@w^(0+128),w
 10649     07E1  1283               	bcf	3,5	;RP0=0, select bank0
 10650     07E2  1303               	bcf	3,6	;RP1=0, select bank0
 10651     07E3  00AB               	movwf	pad@p
 10652     07E4  120A  118A  2009  120A  118A  	fcall	_pad
 10653     07E9                     l680:
 10654     07E9  0008               	return
 10655     07EA                     __end_of_efgtoa:

Data Sizes:
    Strings     60
    Constant    0
    Data        0
    BSS         93
    Persistent  0
    Stack       0

Auto Spaces:
    Space          Size  Autos    Used
    COMMON           14     14      14
    BANK0            80     80      80
    BANK1            80     60      73
    BANK3            96     22      22
    BANK2            96      0      80

Pointer List with Targets:

    efgtoa@fp	PTR struct _IO_FILE size(2) Largest target is 11
		 -> sprintf@f(BANK1[11]), 

    f$.$buffer	PTR unsigned char  size(2) Largest target is 16
		 -> main@buffer(BANK3[16]), 

    f$.$source	PTR const unsigned char  size(1) Largest target is 0

    fputc@fp	PTR struct _IO_FILE size(2) Largest target is 11
		 -> sprintf@f(BANK1[11]), 

    fputc@fp$.$buffer	PTR unsigned char  size(2) Largest target is 16
		 -> main@buffer(BANK3[16]), 

    fputc@fp$.$source	PTR const unsigned char  size(1) Largest target is 0

    fputs@fp	PTR struct _IO_FILE size(2) Largest target is 11
		 -> sprintf@f(BANK1[11]), 

    fputs@s	PTR const unsigned char  size(1) Largest target is 80
		 -> dbuf(BANK2[80]), 

    LCD_String@str	PTR const unsigned char  size(2) Largest target is 16
		 -> main@buffer(BANK3[16]), STR_1(CODE[13]), STR_2(CODE[13]), STR_3(CODE[14]), 

    memcpy@d	PTR unsigned char  size(1) Largest target is 80
		 -> dbuf(BANK2[80]), 

    memcpy@d1	PTR void  size(1) Largest target is 80
		 -> dbuf(BANK2[80]), 

    memcpy@s	PTR const unsigned char  size(1) Largest target is 80
		 -> dbuf(BANK2[80]), 

    memcpy@s1	PTR const void  size(1) Largest target is 80
		 -> dbuf(BANK2[80]), 

    pad@buf	PTR unsigned char  size(1) Largest target is 80
		 -> dbuf(BANK2[80]), 

    pad@fp	PTR struct _IO_FILE size(2) Largest target is 11
		 -> sprintf@f(BANK1[11]), 

    read_prec_or_width@ap	PTR PTR void [1] size(1) Largest target is 1
		 -> sprintf@ap(BANK1[1]), 

    read_prec_or_width@fmt	PTR PTR const unsigned char  size(1) Largest target is 1
		 -> vfprintf@cfmt(BANK0[1]), 

    S528$buffer	PTR unsigned char  size(2) Largest target is 16
		 -> main@buffer(BANK3[16]), 

    S528$source	PTR const unsigned char  size(1) Largest target is 0

    sp__memcpy	PTR void  size(1) Largest target is 80
		 -> dbuf(BANK2[80]), 

    sp__strcpy	PTR unsigned char  size(1) Largest target is 80
		 -> dbuf(BANK2[80]), 

    sprintf@ap	PTR void [1] size(1) Largest target is 2
		 -> ?_sprintf(BANK0[2]), 

    sprintf@fmt	PTR const unsigned char  size(1) Largest target is 12
		 -> STR_4(CODE[12]), 

    sprintf@s	PTR unsigned char  size(1) Largest target is 16
		 -> main@buffer(BANK3[16]), 

    strcpy@d	PTR unsigned char  size(1) Largest target is 80
		 -> dbuf(BANK2[80]), 

    strcpy@dest	PTR unsigned char  size(1) Largest target is 80
		 -> dbuf(BANK2[80]), 

    strcpy@src	PTR const unsigned char  size(1) Largest target is 4
		 -> STR_5(CODE[4]), STR_8(CODE[4]), 

    vfpfcnvrt@ap	PTR PTR void  size(1) Largest target is 1
		 -> sprintf@ap(BANK1[1]), 

    vfpfcnvrt@cp	PTR unsigned char  size(1) Largest target is 12
		 -> STR_4(CODE[12]), 

    vfpfcnvrt@fmt	PTR PTR unsigned char  size(1) Largest target is 1
		 -> vfprintf@cfmt(BANK0[1]), 

    vfpfcnvrt@fp	PTR struct _IO_FILE size(2) Largest target is 11
		 -> sprintf@f(BANK1[11]), 

    vfprintf@ap	PTR PTR void  size(1) Largest target is 1
		 -> sprintf@ap(BANK1[1]), 

    vfprintf@cfmt	PTR unsigned char  size(1) Largest target is 12
		 -> STR_4(CODE[12]), 

    vfprintf@fmt	PTR const unsigned char  size(1) Largest target is 12
		 -> STR_4(CODE[12]), 

    vfprintf@fp	PTR struct _IO_FILE size(2) Largest target is 11
		 -> sprintf@f(BANK1[11]), 


Critical Paths under _main in COMMON

    _main->___xxtofl
    _read_prec_or_width->___wmul
    _efgtoa->___flmul
    _efgtoa->_pad
    _pad->_fputc
    _fputs->_fputc
    ___flsub->___flmul
    ___flmul->__Umul8_16
    ___flge->___flmul
    ___fldiv->___xxtofl
    _LCD_String->_LCD_Char
    _LCD_Set_Cursor->_LCD_Cmd
    _LCD_Init->_LCD_Cmd
    _LCD_Clear->_LCD_Cmd

Critical Paths under _main in BANK0

    _main->_sprintf
    _sprintf->_vfprintf
    _vfprintf->_vfpfcnvrt
    _vfpfcnvrt->_efgtoa
    _efgtoa->_floorf
    _pad->_fputs
    _floorf->___fldiv
    ___flsub->___flmul
    ___flge->___flmul

Critical Paths under _main in BANK1

    _main->_sprintf
    _vfpfcnvrt->_efgtoa

Critical Paths under _main in BANK3

    None.

Critical Paths under _main in BANK2

    None.

Call Graph Tables:

 ---------------------------------------------------------------------------------
 (Depth) Function   	        Calls       Base Space   Used Autos Params    Refs
 ---------------------------------------------------------------------------------
 (0) _main                                                25    25      0   15149
                                             57 BANK1      3     3      0
                                              0 BANK3     22    22      0
                          _LCD_Clear
                           _LCD_Init
                     _LCD_Set_Cursor
                         _LCD_String
                            ___fldiv
                           ___xxtofl
                          _read_echo
                       _send_trigger
                            _sprintf
 ---------------------------------------------------------------------------------
 (1) _sprintf                                             21    15      6   12415
                                             74 BANK0      6     0      6
                                             44 BANK1     13    13      0
                           _vfprintf
 ---------------------------------------------------------------------------------
 (2) _vfprintf                                             5     1      4   12210
                                             69 BANK0      5     1      4
                          _vfpfcnvrt
 ---------------------------------------------------------------------------------
 (3) _vfpfcnvrt                                           13     9      4   12076
                                             57 BANK0     12     8      4
                             _efgtoa
                              _fputc
                 _read_prec_or_width
 ---------------------------------------------------------------------------------
 (4) _read_prec_or_width                                   5     3      2     276
                                              6 COMMON     5     3      2
                             ___wmul
 ---------------------------------------------------------------------------------
 (5) ___wmul                                               6     2      4      94
                                              0 COMMON     6     2      4
 ---------------------------------------------------------------------------------
 (4) _efgtoa                                              56    49      7   11052
                                             46 BANK0     11     4      7
                                              0 BANK1     44    44      0
                            ___fladd
                            ___fldiv
                             ___fleq
                             ___flge
                            ___flmul
                            ___flneg
                            ___flsub
                            ___fltol
                      ___fpclassifyf
                             _floorf
                               _labs
                             _memcpy
                                _pad
                             _strcpy
 ---------------------------------------------------------------------------------
 (6) _strcpy                                               3     1      2      77
                                              0 COMMON     3     1      2
 ---------------------------------------------------------------------------------
 (5) _pad                                                  8     3      5     707
                                             13 COMMON     1     1      0
                                              8 BANK0      7     2      5
                              _fputc
                              _fputs
 ---------------------------------------------------------------------------------
 (6) _fputs                                                8     5      3     331
                                              0 BANK0      8     5      3
                              _fputc
 ---------------------------------------------------------------------------------
 (4) _fputc                                               13     9      4     232
                                              0 COMMON    13     9      4
                              _putch
 ---------------------------------------------------------------------------------
 (5) _putch                                                1     1      0       0
 ---------------------------------------------------------------------------------
 (5) _memcpy                                               7     3      4     146
                                              0 COMMON     7     3      4
 ---------------------------------------------------------------------------------
 (5) _labs                                                 4     0      4      69
                                              0 COMMON     4     0      4
 ---------------------------------------------------------------------------------
 (5) _floorf                                              20    16      4     340
                                             26 BANK0     20    16      4
                            ___fldiv (ARG)
 ---------------------------------------------------------------------------------
 (5) ___fpclassifyf                                       16    12      4     137
                                              0 COMMON    10     6      4
                                              0 BANK0      6     6      0
 ---------------------------------------------------------------------------------
 (5) ___fltol                                             10     6      4     232
                                              0 COMMON    10     6      4
 ---------------------------------------------------------------------------------
 (5) ___flsub                                              8     0      8    2039
                                             21 BANK0      8     0      8
                            ___fladd
                            ___flmul (ARG)
 ---------------------------------------------------------------------------------
 (6) ___fladd                                             20    12      8    1990
                                              0 COMMON    12     4      8
                                              0 BANK0      8     8      0
 ---------------------------------------------------------------------------------
 (5) ___flneg                                              4     0      4      46
                                              0 COMMON     4     0      4
 ---------------------------------------------------------------------------------
 (5) ___flmul                                             26    18      8    1618
                                              9 COMMON     5     5      0
                                              0 BANK0     21    13      8
                          __Umul8_16
 ---------------------------------------------------------------------------------
 (6) __Umul8_16                                            9     7      2     139
                                              0 COMMON     9     7      2
 ---------------------------------------------------------------------------------
 (5) ___flge                                              12     4      8     192
                                             21 BANK0     12     4      8
                            ___flmul (ARG)
 ---------------------------------------------------------------------------------
 (5) ___fleq                                              12     4      8      94
                                              0 COMMON    12     4      8
 ---------------------------------------------------------------------------------
 (5) ___fldiv                                             26    18      8    1134
                                              0 BANK0     26    18      8
                           ___xxtofl (ARG)
 ---------------------------------------------------------------------------------
 (1) _send_trigger                                         1     1      0       0
                                              0 COMMON     1     1      0
 ---------------------------------------------------------------------------------
 (1) _read_echo                                            6     4      2      45
                                              0 COMMON     6     4      2
 ---------------------------------------------------------------------------------
 (1) ___xxtofl                                            14    10      4     337
                                              0 COMMON    14    10      4
 ---------------------------------------------------------------------------------
 (1) _LCD_String                                           2     0      2     281
                                              3 COMMON     2     0      2
                           _LCD_Char
 ---------------------------------------------------------------------------------
 (2) _LCD_Char                                             3     3      0     232
                                              0 COMMON     3     3      0
                    _LCD_PulseEnable
 ---------------------------------------------------------------------------------
 (1) _LCD_Set_Cursor                                       5     4      1     355
                                              3 COMMON     5     4      1
                            _LCD_Cmd
 ---------------------------------------------------------------------------------
 (1) _LCD_Init                                             2     2      0     232
                                              3 COMMON     2     2      0
                            _LCD_Cmd
 ---------------------------------------------------------------------------------
 (1) _LCD_Clear                                            2     2      0     232
                                              3 COMMON     2     2      0
                            _LCD_Cmd
 ---------------------------------------------------------------------------------
 (2) _LCD_Cmd                                              3     3      0     232
                                              0 COMMON     3     3      0
                    _LCD_PulseEnable
 ---------------------------------------------------------------------------------
 (3) _LCD_PulseEnable                                      0     0      0       0
 ---------------------------------------------------------------------------------
 Estimated maximum stack depth 6
 ---------------------------------------------------------------------------------

 Call Graph Graphs:

 _main (ROOT)
   _LCD_Clear
     _LCD_Cmd
       _LCD_PulseEnable
   _LCD_Init
     _LCD_Cmd
   _LCD_Set_Cursor
     _LCD_Cmd
   _LCD_String
     _LCD_Char
       _LCD_PulseEnable
   ___fldiv
     ___xxtofl (ARG)
   ___xxtofl
   _read_echo
   _send_trigger
   _sprintf
     _vfprintf
       _vfpfcnvrt
         _efgtoa
           ___fladd
           ___fldiv
           ___fleq
           ___flge
             ___flmul (ARG)
               __Umul8_16
           ___flmul
           ___flneg
           ___flsub
             ___fladd
             ___flmul (ARG)
           ___fltol
           ___fpclassifyf
           _floorf
             ___fldiv (ARG)
           _labs
           _memcpy
           _pad
             _fputc
               _putch
             _fputs
               _fputc
           _strcpy
         _fputc
         _read_prec_or_width
           ___wmul

Address spaces:
Name               Size   Autos  Total    Usage
BITCOMMON           14      0       0      0.0%
BITBANK0            80      0       0      0.0%
BITBANK1            80      0       0      0.0%
BITBANK3            96      0       0      0.0%
BITBANK2            96      0       0      0.0%
COMMON              14     14      14    100.0%
BANK0               80     80      80    100.0%
BANK1               80     60      73     91.2%
BANK3               96     22      22     22.9%
BANK2               96      0      80     83.3%
STACK                0      0       0      0.0%
DATA                 0      0     269      0.0%


Microchip Technology PIC Macro Assembler V3.00 build 20241204225717 
Symbol Table                                                                                   Sat May 10 20:04:56 2025

              ___fldiv@aexp 0039                ___fldiv@bexp 0038                           pc 0002  
              ___fldiv@sign 0031                          l40 12AC                          l43 1208  
                        l52 1EBE                          l37 1DA3                          l62 1DBF  
                        l46 1F75                          l65 1DAF                          l58 1E03  
                        l74 1FB1                          l59 1E0B                          l75 1F9F  
                        l68 1F78                          l79 1FAC                          fsr 0004  
       ___wmul@multiplicand 0072                 ?_LCD_String 0073         __Umul8_16@word_mpld 0076  
                       l501 0C30                         l350 1FFF                         l510 0C91  
                       l175 1E80                         l344 1FCE                         l345 1FEA  
                       l361 1350                         l353 12CB                         l177 1E98  
                       l522 1E73                         l507 0C53                         l532 08ED  
                       l356 1337                         l365 080A                         l630 13DA  
                       l622 13B2                         l534 0A61                         l518 0CB1  
                       l519 0CBD                         l471 0A8E                         l616 1373  
                       l480 0B3E                         l376 10B9                         l617 1384  
                       l369 10CE                         l618 1404                         l554 0A4D  
                       l482 0B17                         l706 0595                         l379 10CE  
                       l556 0A59                         l548 09DB                         l572 0FFF  
                       l476 0ABF                         l629 13CE                         l805 1168  
                       l813 1F10                         l822 1DED                         l638 1F3D  
                       l591 1ED3                         l584 0FF5                         l816 0008  
                       l680 07E9                         l593 1EE5                         l497 0C0A  
                       l489 0CBD                         l665 0011                         l729 105A  
                       l578 0F71                         l738 1459                         l772 173E  
                       l756 1E4F                         l773 17FF                         l669 0046  
                       l677 165E                         l749 14F2                         l766 0897  
                       l790 1E1E                         l696 02B0                         l777 17F7  
                       l793 1E2C                         l787 1DD4                         _RC0 0038  
                       _RC1 0039                         _RD0 0040                         _RD1 0041  
                       _RD2 0042                         _RD3 0043                         _RD4 0044  
                       _RD5 0045                         _pad 0009                         fsr0 0004  
                       indf 0000                ___flmul@aexp 002D                ___flmul@bexp 002E  
              ___flmul@sign 0028                ___flmul@temp 0033                ___flmul@prod 002F  
           __end_of_LCD_Cmd 12AD              _LCD_Set_Cursor 1DEE                ___fltol@exp1 0079  
                      l2100 0AE1                        l2020 10E2                        l2110 0AEA  
                      l2102 0AE3                        l2030 0A64                        l2022 10FA  
                      l2014 10CF                        l2200 0C5D                        l2120 0B2A  
                      l2112 0B01                        l2104 0AE5                        l2040 0A76  
                      l2032 0A66                        l2024 112C                        l2016 10D5  
                      l3000 14D9                        l3010 1255                        l2210 0C9B  
                      l2202 0C6B                        l2130 0B47                        l2122 0B2B  
                      l2114 0B1B                        l2106 0AE7                        l2050 0A90  
                      l2042 0A7B                        l2034 0A6C                        l2018 10DB  
                      l3020 128C                        l3012 125A                        l3100 1F97  
                      l2220 0CAF                        l2212 0CA3                        l2204 0C6F  
                      l2140 0B6F                        l2124 0B36                        l2116 0B24  
                      l2108 0AE9                        l2060 0AA1                        l2052 0A92  
                      l2044 0A83                        l2036 0A70                        l2028 0A62  
                      l3022 129E                        l3014 125E                        l3006 120A  
                      l3030 11BA                        l3110 1FA3                        l2230 1EC9  
                      l2222 0CB8                        l2214 0CA8                        l2206 0C8F  
                      l2150 0B8A                        l2142 0B78                        l2134 0B50  
                      l2118 0B26                        l2126 0B38                        l2070 0AB5  
                      l2062 0AA2                        l2054 0A98                        l2046 0A84  
                      l2038 0A71                        l2310 1080                        l2302 105B  
                      l3016 1268                        l3008 120D                        l3032 11C4  
                      l3024 116A                        l3112 1FAD                        l3104 1F9A  
                      l2400 091A                        l2232 1ECD                        l2224 0CBC  
                      l2216 0CA9                        l2208 0C96                        l2160 0BE8  
                      l2144 0B7A                        l2136 0B67                        l2128 0B42  
                      l2152 0B8D                        l2080 0ACD                        l2064 0AA7  
                      l2072 0AB7                        l2056 0A99                        l2048 0A86  
                      l2312 1081                        l2304 1064                        l2240 1EE6  
                      l3040 1E2D                        l3120 1F1D                        l3200 15A8  
                      l3018 127A                        l3050 1F3E                        l3034 11D6  
                      l3026 116D                        l3130 1352                        l3106 1F9C  
                      l2410 0946                        l2402 092C                        l2234 1EDC  
                      l2226 1EC0                        l2218 0CAD                        l2162 0BED  
                      l2154 0BA3                        l2146 0B7E                        l2138 0B6B  
                      l2090 0AD7                        l2082 0ACF                        l2074 0AC5  
                      l2066 0AAC                        l2058 0A9D                        l2314 1089  
                      l2242 1EEB                        l2250 1E76                        l3042 1E32  
                      l3122 1F1F                        l3202 15D4                        l3060 1F5A  
                      l3052 1F41                        l3036 11E8                        l3028 11B5  
                      l3132 1357                        l3108 1F9E                        l2412 094B  
                      l2420 096B                        l2404 0934                        l2236 1EE1  
                      l2228 1EC2                        l2500 0CD2                        l2180 0C38  
                      l2172 0C20                        l2156 0BE3                        l2164 0BFC  
                      l2148 0B7F                        l2092 0AD9                        l2084 0AD1  
                      l2076 0AC9                        l2068 0AB4                        l2340 1E54  
                      l2332 10AE                        l2324 1097                        l2316 108B  
                      l2308 106D                        l2244 1EFB                        l2252 1E7A  
                      l3044 1E3F                        l3124 1F21                        l3116 1F11  
                      l3062 1F60                        l3054 1F45                        l3038 11FF  
                      l3070 1E9A                        l3150 13A9                        l3142 1387  
                      l3134 135B                        l2430 0994                        l2422 097D  
                      l2414 095D                        l2406 093C                        l2350 08A2  
                      l2270 1FFE                        l2262 1FB2                        l2510 0CEC  
                      l2502 0CD7                        l2190 0C46                        l2182 0C3A  
                      l2174 0C2B                        l2166 0C12                        l2158 0BE5  
                      l2094 0ADB                        l2086 0AD3                        l2078 0ACB  
                      l2334 10BE                        l2318 108F                        l2326 10A7  
                      l2246 1F03                        l2254 1E87                        l3046 1E4D  
                      l3126 1F30                        l3118 1F15                        l3064 1F66  
                      l3056 1F4E                        l3080 1DFC                        l3072 1EA8  
                      l3160 13DC                        l3152 13B9                        l3144 1392  
                      l3136 136B                        l2440 09AC                        l2432 099C  
                      l2424 097E                        l2416 0961                        l2408 0944  
                      l2360 08B9                        l2352 08A6                        l2344 0898  
                      l2264 1FC6                        l2280 12E7                        l2600 0F7B  
                      l2520 0CFF                        l2512 0CF0                        l2504 0CDF  
                      l2192 0C4A                        l2184 0C3F                        l2176 0C2F  
                      l2168 0C17                        l2096 0ADD                        l2088 0AD5  
                      l2336 10C3                        l2256 1E8E                        l2248 1E74  
                      l3066 1F6C                        l3058 1F54                        l3082 1E05  
                      l3074 1EAE                        l3162 13F2                        l3154 13C4  
                      l3146 1399                        l3138 137B                        l3090 1DA7  
                      l2450 09C4                        l2442 09B5                        l2434 099E  
                      l2426 098C                        l2418 0962                        l2370 08CB  
                      l2362 08BA                        l2354 08A7                        l2346 089C  
                      l2266 1FE2                        l2290 134F                        l2282 12EB  
                      l2274 12AD                        l2610 0FB9                        l2602 0F89  
                      l2530 0D1B                        l2522 0D07                        l2514 0CF4  
                      l2506 0CE1                        l2194 0C50                        l2178 0C34  
                      l2186 0C41                        l2098 0ADF                        l2338 1E50  
                      l2258 1E94                        l3084 1DB0                        l3076 1DEF  
                      l3068 1E99                        l3164 13F7                        l3156 13C8  
                      l3148 139B                        l3092 1DAC                        l2460 09F3  
                      l2452 09D8                        l2436 09A7                        l2444 09BB  
                      l2428 098E                        l2380 08E2                        l2372 08CF  
                      l2356 08AC                        l2364 08BC                        l2348 089E  
                      l2268 1FFC                        l2284 130F                        l2276 12C3  
                      l2620 0FEB                        l2612 0FC4                        l2604 0F8D  
                      l2540 0D5A                        l2524 0D09                        l2516 0CF5  
                      l2508 0CE9                        l2188 0C45                        l2700 17CD  
                      l3180 1522                        l3172 14F3                        l3086 1DB6  
                      l3078 1DF4                        l3166 13FB                        l3158 13D2  
                      l3094 1F76                        l2470 0A31                        l2462 09F7  
                      l2446 09BF                        l2438 09AB                        l2390 0903  
                      l2382 08E3                        l2374 08D0                        l2366 08C4  
                      l2358 08B1                        l2286 1313                        l2278 12DF  
                      l2622 0FEF                        l2614 0FD3                        l2606 0FA6  
                      l2550 0DE1                        l2542 0D76                        l2534 0D24  
                      l2526 0D11                        l2518 0CFA                        l2294 0800  
                      l2198 0C58                        l2702 17D6                        l2710 1E11  
                      l2630 0009                        l3190 157D                        l3182 1527  
                      l3174 14F9                        l3168 13FC                        l3096 1F7E  
                      l3088 1DA4                        l2480 0A55                        l2472 0A40  
                      l2464 0A10                        l2456 09E0                        l2448 09C0  
                      l2376 08D5                        l2384 08E5                        l2368 08C7  
                      l2288 134D                        l2624 0FF0                        l2616 0FDD  
                      l2608 0FAC                        l2560 0E4E                        l2552 0DEF  
                      l2544 0DA0                        l2536 0D32                        l2528 0D16  
                      l2296 0808                        l2704 17EF                        l2712 1E16  
                      l2640 0039                        l2632 000F                        l2800 02A7  
                      l2720 1601                        l3192 1585                        l3184 152E  
                      l3176 150B                        l3098 1F8E                        l2482 0A57  
                      l2474 0A44                        l2458 09E5                        l2466 0A16  
                      l2386 08F5                        l2394 090C                        l2378 08DA  
                      l2626 0FF7                        l2618 0FDF                        l2570 0EF5  
                      l2562 0E6B                        l2554 0E0C                        l2546 0DBC  
                      l2538 0D3F                        l2490 0CC2                        l2298 080A  
                      l2650 0861                        l2642 080B                        l2714 1E18  
                      l2634 0014                        l2810 02CC                        l2802 02AC  
                      l2730 164B                        l2722 1628                        l3194 158E  
                      l3186 1539                        l3178 1514                        l2476 0A4C  
                      l2468 0A23                        l2396 0911                        l2388 0901  
                      l2580 0F41                        l2572 0F1D                        l2564 0E96  
                      l2556 0E1A                        l2548 0DD8                        l2492 0CC4  
                      l2652 0866                        l2644 082B                        l2708 1E0C  
                      l2636 0023                        l2900 06FC                        l2820 02E4  
                      l2812 02CE                        l2804 02BA                        l2740 1673  
                      l2732 1650                        l2724 162C                        l2716 15E6  
                      l3196 1596                        l3188 1578                        l2478 0A51  
                      l2590 0F56                        l2582 0F42                        l2574 0F26  
                      l2566 0EA4                        l2558 0E37                        l2494 0CC8  
                      l2662 0893                        l2646 0842                        l2670 1DC0  
                      l2638 002B                        l2910 076C                        l2902 073B  
                      l2830 040D                        l2822 02ED                        l2814 02D4  
                      l2806 02C0                        l2742 167A                        l2734 1655  
                      l2726 1643                        l2718 15E9                        l3198 159E  
                      l2592 0F5A                        l2584 0F4B                        l2576 0F34  
                      l2568 0ECF                        l2496 0CCC                        l2488 0CBE  
                      l2648 0848                        l2656 086B                        l2680 1711  
                      l2672 1DC4                        l2920 07B4                        l2912 0772  
                      l2904 0741                        l2840 04AA                        l2824 0349  
                      l2832 0413                        l2808 02C4                        l2816 02DA  
                      l2744 168A                        l2752 16B8                        l2736 165A  
                      l2728 1647                        l2594 0F6E                        l2578 0F3D  
                      l2586 0F51                        l2498 0CCD                        l2658 0871  
                      l2682 1730                        l2674 1DC5                        l2666 1DD5  
                      l2922 07B9                        l2914 0777                        l2906 0747  
                      l2850 0542                        l2842 04C5                        l2834 0429  
                      l2826 035C                        l2818 02DC                        l2770 0053  
                      l2754 16CF                        l2746 1694                        l2738 1660  
                      l2930 1008                        l2588 0F55                        l2692 1773  
                      l2684 173D                        l2668 1DD7                        l2924 07C5  
                      l2916 0795                        l2908 075D                        l2860 05A4  
                      l2852 054A                        l2844 04CB                        l2836 0468  
                      l2828 03CE                        l2780 011A                        l2756 16D6  
                      l2748 169C                        l2940 1040                        l2932 100A  
                      l2598 0F76                        l2694 178C                        l2686 1744  
                      l2678 16F1                        l2926 07CB                        l2918 079F  
                      l2870 063B                        l2862 05A6                        l2854 0589  
                      l2846 04D3                        l2838 049F                        l2790 0203  
                      l2782 0153                        l2774 006D                        l2758 16E6  
                      l2766 0047                        l2934 1019                        l2942 1045  
                      l2950 1405                        ?_pad 0028                        l2696 17A3  
                      l2688 175E                        l2880 0656                        l2872 0640  
                      l2864 05A9                        l2856 058F                        l2848 04F4  
                      l2784 01B3                        l2776 007D                        l2768 0051  
                      l2944 1056                        l2936 101D                        l2960 1434  
                      l2952 1416                        l2698 17B4                        l2882 0659  
                      l2874 0644                        l2890 0671                        l2866 061F  
                      l2858 05A3                        l2786 01BE                        l2794 0262  
                      l2778 00BC                        l2938 102B                        l2970 145C  
                      l2962 1438                        l2954 141A                        l2948 1D9C  
                      l2892 0677                        l2884 065F                        l2876 064A  
                      l2868 0635                        l2788 01FD                        l2796 029B  
                      l2980 148A                        l2964 1447                        l2956 1420  
                      l2894 067E                        l2886 0665                        l2878 0650  
                      l2798 02A3                        l2974 145E                        l2966 144D  
                      l2958 1424                        l2896 0684                        l2888 066B  
                      l2984 149E                        l2976 1469                        l2968 1456  
                      l2898 068A                        l2994 14C6                        l2986 14A6  
                      l2978 1476                        l2988 14AC                        l2996 14D1  
                      STR_1 182B                        STR_2 181E                        STR_3 1810  
                      STR_4 1838                        STR_5 1844                        STR_8 1848  
                      u3010 0B3E                        u3011 0B3D                        u3020 0B42  
                      u3101 0BBC                        u3021 0B41                        u3005 0B2F  
                      u3110 0BD0                        u3102 0BBD                        u3030 0B47  
                      u3111 0BD1                        u3103 0BC2                        u3031 0B46  
                      u3200 0C4A                        u3120 0BED                        u3112 0BD6  
                      u3104 0BC3                        u4001 0DAE                        u3201 0C49  
                      u3121 0BEC                        u3113 0BD7                        u3105 0BC8  
                      u3041 0B59                        u4002 0DB5                        u3210 0C50  
                      u3130 0C12                        u3106 0BC9                        u3050 0B6B  
                      u3042 0B60                        u4011 0DCA                        u4003 0DBC  
                      u3211 0C4F                        u3131 0C11                        u3051 0B6A  
                      u3043 0B67                        u4012 0DD1                        u3300 0CAD  
                      u3220 0C57                        u3140 0C17                        u3060 0B6F  
                      u4101 0EE7                        u4013 0DD8                        u3301 0CAC  
                      u3221 0C56                        u3141 0C16                        u3061 0B6E  
                      u4110 0F03                        u4102 0EEE                        u3310 0CBC  
                      u3230 0C5D                        u3070 0B7E                        u4103 0EF5  
                      u4031 0DFE                        u3311 0CBB                        u3231 0C5C  
                      u3071 0B7D                        u3400 1FC6                        u3320 1ECD  
                      u4200 0F75                        u4032 0E05                        u3240 0C6F  
                      u3160 0C2F                        u3401 1FC5                        u3321 1ECC  
                      u4201 0F74                        u4121 0F0F                        u4041 0E29  
                      u4033 0E0C                        u4025 0DDA                        u3241 0C6E  
                      u3161 0C2E                        u3410 1FE2                        u4210 0F7B  
                      u4122 0F16                        u4042 0E30                        u3250 0C80  
                      u3170 0C34                        u3090 0BA3                        u3411 1FE1  
                      u4211 0F7A                        u4123 0F1D                        u4115 0EFE  
                      u4043 0E37                        u3171 0C33                        u3155 0C24  
                      u3091 0BA2                        u5100 1289                        u5020 1252  
                      u5004 1243                        u3420 1FFC                        u3340 1EE1  
                      u4220 0F8D                        u3500 0808                        u3260 0C8F  
                      u3180 0C3F                        u4300 0848                        u5101 1285  
                      u5021 124E                        u3421 1FFB                        u3341 1EE0  
                      u4221 0F8C                        u4061 0E5D                        u3501 0807  
                      u3261 0C8E                        u3181 0C3E                        u3093 0B9F  
                      u3085 0B83                        u4301 0847                        u3430 12C3  
                      u4230 0F9C                        u4150 0F41                        u4062 0E64  
                      u3270 0C96                        u3190 0C45                        u3510 1064  
                      u4310 0856                        u3350 1F10                        u5015 1246  
                      u3431 12C2                        u3335 1ED4                        u4151 0F40  
                      u4135 0F1F                        u4071 0E88                        u4063 0E6B  
                      u4055 0E39                        u3271 0C95                        u3255 0C7B  
                      u3191 0C44                        u3511 1063                        u3351 1F0F  
                      u5040 1265                        u3440 12DF                        u4240 0FB9  
                      u4072 0E8F                        u3280 0C9B                        u3600 10C3  
                      u3520 107B                        u4320 0861                        u4400 173D  
                      u3360 1E7A                        u5041 1261                        u3425 1FF8  
                      u3441 12DE                        u4241 0FB8                        u4145 0F36  
                      u4081 0EB3                        u4073 0E96                        u3281 0C9A  
                      u3601 10C2                        u4321 0860                        u4401 173C  
                      u3361 1E79                        u5130 129B                        u5114 128C  
                      u5034 1255                        u3610 08A6                        u3450 12EB  
                      u4250 0FD3                        u4170 0F55                        u4090 0EDB  
                      u4082 0EBA                        u3290 0CA8                        u3530 108F  
                      u4330 0871                        u4410 1744                        u2810 10D5  
                      u5131 1297                        u3611 08A5                        u3451 12EA  
                      u4251 0FD2                        u4235 0F97                        u4171 0F54  
                      u4083 0EC1                        u3291 0CA7                        u3531 108E  
                      u4331 0870                        u4315 0851                        u4411 1743  
                      u2811 10D4                        u5300 11D3                        u5220 11A0  
                      u5204 1191                        u3620 08AC                        u4260 0FEF  
                      u4180 0F5A                        u2900 0AA1                        u3540 1096  
                      u4340 087F                        u4500 17EF                        u4420 1754  
                      u2820 10DB                        u5125 128F                        u5301 11CF  
                      u5221 119C                        u3621 08AB                        u3461 12FA  
                      u4261 0FEE                        u4245 0FB5                        u4181 0F59  
                      u4165 0F44                        u2901 0AA0                        u3541 1095  
                      u3525 1076                        u4501 17EE                        u4405 1739  
                      u2821 10DA                        u5070 1277                        u5054 1268  
                      u3630 08B1                        u3470 1313                        u3462 12FB  
                      u4190 0F6E                        u2910 0AA7                        u4350 088B  
                      u4430 1772                        u4510 1E2C                        u2830 10FA  
                      u4270 000F                        u3390 1E94                        u5071 1273  
                      u5215 1194                        u3631 08B0                        u3471 1312  
                      u3463 1300                        u4255 0FCF                        u4191 0F6D  
                      u4095 0ED6                        u2911 0AA6                        u4351 0889  
                      u4431 1771                        u4511 1E2B                        u2831 10F9  
                      u4271 000E                        u3391 1E93                        u3375 1E81  
                      u5144 129E                        u5400 1DF4                        u5160 117C  
                      u3800 09BF                        u3720 0961                        u3640 08CF  
                      u3464 1301                        u2920 0AAC                        u3560 10A6  
                      u4360 088C                        u4440 1781                        u2840 112C  
                      u4280 0039                        u4520 1628                        u5065 126B  
                      u5401 1DF3                        u5161 1178                        u3801 09BE  
                      u3721 0960                        u3705 094D                        u3641 08CE  
                      u3481 1322                        u3465 1306                        u2921 0AAB  
                      u3561 10A5                        u4345 087A                        u4425 174F  
                      u2841 112B                        u4281 0038                        u4601 00DF  
                      u4521 1627                        u3385 1E88                        u5330 11E5  
                      u5314 11D6                        u5250 11B2                        u5234 11A3  
                      u5410 1F7E                        u3810 09C4                        u3650 08D5  
                      u3490 134D                        u3482 1323                        u3466 1307  
                      u2930 0AC5                        u3570 10AD                        u4290 0839  
                      u4450 178C                        u2850 114D                        u4370 1DED  
                      u4610 011A                        u4602 00E2                        u4530 1650  
                      u5331 11E1                        u5251 11AE                        u5155 1170  
                      u5411 1F7D                        u3811 09C3                        u3715 0956  
                      u3651 08D4                        u3491 134C                        u3483 1328  
                      u2931 0AC4                        u3571 10AC                        u3555 1098  
                      u4451 178B                        u4371 1DEC                        u4611 0119  
                      u4603 00E9                        u4531 164F                        u5084 127A  
                      u5500 1398                        u5420 1F8E                        u3820 09D8  
                      u3740 097D                        u3660 08DA                        u3484 1329  
                      u3900 0CCC                        u2940 0AC9                        u2860 0A70  
                      u4380 1DC4                        u4700 02C4                        u4620 0153  
                      u4604 00EC                        u4540 1655                        u5325 11D9  
                      u5245 11A6                        u5501 1397                        u5421 1F8D  
                      u3821 09D7                        u3741 097C                        u3661 08D9  
                      u3485 132E                        u3901 0CCB                        u2941 0AC8  
                      u2861 0A6F                        u4461 1795                        u4445 177C  
                      u4381 1DC3                        u2845 1128                        u4285 0035  
                      u4701 02C3                        u4621 0152                        u4613 0116  
                      u4605 00F3                        u4541 1654                        u5270 11C1  
                      u5190 118E                        u5174 117F                        u5430 1F97  
                      u3830 09DF                        u3750 0994                        u3670 08F5  
                      u3486 132F                        u3910 0CD2                        u2950 0B01  
                      u2870 0A76                        u3590 10BE                        u4470 17C2  
                      u4462 179C                        u4390 171F                        u4710 02D4  
                      u4606 00F6                        u4550 1673                        u5095 127D  
                      u5271 11BD                        u5191 118A                        u5431 1F96  
                      u3831 09DE                        u3751 0993                        u3735 0964  
                      u3671 08F4                        u3495 1349                        u3911 0CD1  
                      u2951 0B00                        u2871 0A75                        u3591 10BD  
                      u4295 0834                        u4463 17A3                        u4711 02D3  
                      u4631 0178                        u4551 1672                        u5360 11F7  
                      u5344 11E8                        u5264 11B5                        u5520 13B8  
                      u5440 1FA3                        u3840 09E5                        u3760 099C  
                      u3680 0911                        u3920 0CD7                        u2960 0B0A  
                      u2880 0A7B                        u4480 17CD                        u4800 0644  
                      u4720 0429                        u4640 01B3                        u4632 017B  
                      u4560 167A                        u5600 159E                        u5361 11F3  
                      u5185 1182                        u5521 13B7                        u5441 1FA2  
                      u3841 09E4                        u3761 099B                        u3745 0979  
                      u3681 0910                        u3921 0CD6                        u2961 0B08  
                      u2881 0A7A                        u3585 10B0                        u4481 17CC  
                      u4801 0643                        u4721 0428                        u4641 01B2  
                      u4633 0182                        u4561 1679                        u5601 159D  
                      u5450 1FAC                        u3850 09F7                        u3690 094B  
                      u3930 0CF4                        u2970 0B0B                        u2890 0A98  
                      u4490 17E4                        u4810 0677                        u4730 049F  
                      u4634 0185                        u4570 16CF                        u5355 11EB  
                      u5515 13AA                        u5451 1FAB                        u3851 09F6  
                      u3691 094A                        u3931 0CF3                        u2955 0AFD  
                      u2891 0A97                        u4475 17BD                        u4395 171A  
                      u4811 0676                        u4731 049E                        u4651 0226  
                      u4643 01AF                        u4635 018C                        u4571 16CC  
                      u5284 11C4                        u5540 13C8                        u5460 1357  
                      u3860 0A06                        u3780 09AB                        u3940 0CFA  
                      u2980 0B1B                        u4820 075D                        u4740 04C5  
                      u4660 0261                        u4652 0229                        u4636 018F  
                      u4580 16D6                        u4900 1434                        u5380 1E4D  
                      u5541 13C7                        u5461 1356                        u3781 09AA  
                      u3941 0CF9                        u2981 0B1A                        u4821 075C  
                      u4741 04C4                        u4725 0425                        u4661 0260  
                      u4653 0230                        u4581 16D5                        u4901 1433  
                      u5381 1E4C                        u5374 11FA                        u5390 1EBE  
                      u5550 13CE                        u5470 135B                        u3870 0A23  
                      u3950 0CFF                        u2990 0B2A                        u4830 076C  
                      u4750 04CB                        u4670 029B                        u4654 0233  
                      u4590 006C                        u4910 1475                        u5295 11C7  
                      u5391 1EBD                        u5551 13CD                        u5535 13BD  
                      u5471 135A                        u3871 0A22                        u3775 09A0  
                      u3951 0CFE                        u2991 0B29                        u4495 17DF  
                      u4831 076B                        u4751 04CA                        u4671 029A  
                      u4663 025D                        u4655 023A                        u4591 006B  
                      u4911 1474                        u5560 13D2                        u5480 137B  
                      u3880 0A40                        u3960 0D16                        u4840 07A5  
                      u4760 0542                        u4680 02A7                        u4656 023D  
                      u5561 13D1                        u5481 137A                        u3881 0A3F  
                      u3865 0A01                        u3961 0D15                        u4841 07A3  
                      u4825 0759                        u4761 0541                        u4681 02A6  
                      u5617 151C                        u4930 121C                        u5570 13E7  
                      u3890 0A55                        u3970 0D1B                        u4850 07A6  
                      u4770 058F                        u4690 02C0                        u5707 12A7  
                      u4931 1218                        u3891 0A54                        u3875 0A1F  
                      u3795 09AE                        u3971 0D1A                        u4835 0768  
                      u4771 058E                        u4691 02BF                        u5627 152B  
                      u5580 13F7                        u4860 07B9                        u4780 061F  
                      u4925 1210                        u5581 13F6                        u3885 0A3C  
                      u3981 0D68                        u4861 07B8                        u4781 061E  
                      u5637 15DC                        u5590 13FB                        u3982 0D6F  
                      u4790 0640                        u4870 1019                        u5591 13FA  
                      u5575 13E2                        u5495 138A                        u5647 1DA9  
                      u3991 0D84                        u3983 0D76                        u4791 063F  
                      u4871 1018                        u4960 122E                        u4944 121F  
                      u3992 0D8B                        u4880 1056                        u4961 122A  
                      u5657 1203                        u3993 0D92                        u4785 061B  
                      u4881 1055                        u4890 1416                        u4955 1222  
                      u5667 1F49                        u4891 1415                        u5677 1F70  
                      u4990 1240                        u4974 1231                        u4991 123C  
                      u5687 1DBA                        u5697 125C                        u4985 1234  
                      _TMR1 000E                        _dbuf 0110                        _labs 1DC0  
                      _main 14F3                        _prec 00E6                        pad@i 002D  
                      pad@p 002B                        btemp 007E               ___fpclassifyf 080B  
                      start 0000             ___fldiv@new_exp 0032                       ??_pad 007D  
          __end_of_LCD_Char 1209            __end_of_LCD_Init 1F76                LCD_Char@data 0072  
              main@distance 01A0               ___fltol@sign1 0078                       ?_labs 0070  
           __end_of___fladd 0CBE                       ?_main 0070             __end_of___fldiv 0A62  
           __end_of___flneg 080B             __end_of___flmul 1000             __end_of___flsub 1E74  
           __end_of___fltol 10CF                       _T1CON 0010                vfpfcnvrt@fmt 005B  
                     _TRISD 0088      __end_of_LCD_Set_Cursor 1E0C                       _flags 00E8  
       read_prec_or_width@c 0078         read_prec_or_width@n 0079                       _fputc 10CF  
                     _fputs 1EE6                       labs@a 0070                       pad@fp 0028  
                     _width 00E4                       _putch 0008                       pclath 000A  
                     status 0003                       wtemp0 007E             __end_of_sprintf 1F3E  
            ?___fpclassifyf 0070             __initialization 07EA                __end_of_labs 1DD5  
              __end_of_main 15E6                      ??_labs 0074                      ??_main 00D9  
         __end_of_LCD_Clear 1DC0                   ??_LCD_Cmd 0070  __end_of_read_prec_or_width 105B  
           ?_LCD_Set_Cursor 0073                      ?_fputc 0070                      ?_fputs 0020  
                    ?_putch 0070             _LCD_PulseEnable 1D9C                      _OSCCON 008F  
                    _TMR1ON 0080                      _TRISC0 0438                      _TRISC1 0439  
          __end_of___xxtofl 1405                vfprintf@cfmt 0069                      ___flge 12AD  
                    ___fleq 1FB2                   ??___fladd 0020                      ___wmul 1E74  
                 ??___fldiv 0028                   ??___flneg 0074                   ??___flmul 0079  
                 ??___flsub 007E                   ??___fltol 0074                      _efgtoa 15E6  
                    _floorf 16F1                      _memcpy 1E0C        read_prec_or_width@ap 0077  
                    pad@buf 002A                      _strcpy 1DD5                      fputc@c 0070  
                    fputs@c 0025                      fputs@i 0026                      fputs@s 0020  
           ___fpclassifyf@e 0020             ___fpclassifyf@u 0022             ___fpclassifyf@x 0070  
                    putch@c 0070            __end_of_vfprintf 1E50                   ??_sprintf 00CC  
                ___flge@ff1 0035                  ___flge@ff2 0039             ??___fpclassifyf 0074  
              ___xxtofl@arg 007A                ___xxtofl@exp 0079                ___xxtofl@val 0070  
                ___fleq@ff1 0070                  ___fleq@ff2 0074                   ?_LCD_Char 0070  
   __end_of__initialization 07FC                   ?_LCD_Init 0070                  ___flneg@f1 0070  
                ___fltol@f1 0070              __pcstackCOMMON 0070            read_echo@timeout 0074  
             __end_of_fputc 1169               __end_of_fputs 1F11               __end_of_putch 0009  
              ??_LCD_String 0075     __end_of_LCD_PulseEnable 1DA4                     ??_fputc 0074  
                   ??_fputs 0023                     ??_putch 0070                  __pbssBANK1 00DC  
                __pbssBANK2 0110                  ??_LCD_Char 0070                  ??_LCD_Init 0073  
         _LCD_Set_Cursor$64 0075          __end_of_LCD_String 1EBF           __end_of__Umul8_16 1EE6  
                _efgtoa$653 00A6                  __pmaintext 14F3                     ?___flge 0035  
                   ?___fleq 0070                     ?___wmul 0070                     ?_efgtoa 004E  
                   ?_floorf 003A                     ?_memcpy 0070                     ?_strcpy 0070  
                   _LCD_Cmd 1209               ?_send_trigger 0070                   ?___xxtofl 0070  
                __stringtab 1800               LCD_String@str 0073                     ___fladd 0A62  
                   ___fldiv 0898                     ___flneg 0800                     ___flmul 0CBE  
                   ___flsub 1E50                     ___fltol 105B                   ?_vfprintf 0065  
          ??_LCD_Set_Cursor 0074                     __ptext1 1F11                     __ptext2 1E2D  
                   __ptext3 1405                     __ptext4 1008                     __ptext5 1E74  
                   __ptext6 15E6                     __ptext7 1DD5                     __ptext8 0009  
                   __ptext9 1EE6              ??_send_trigger 0070       read_prec_or_width@fmt 0076  
                ??___xxtofl 0074           __end_of_read_echo 1FB2            ?_LCD_PulseEnable 0070  
                   efgtoa@c 0054                     efgtoa@d 00AB                     efgtoa@e 00AF  
                   efgtoa@f 0050                     efgtoa@g 00C4                     efgtoa@h 00B9  
                   efgtoa@i 00B7                     efgtoa@l 00BD                     efgtoa@m 00AD  
                   efgtoa@n 00C2                     efgtoa@p 00A2                     efgtoa@t 00A4  
                   efgtoa@u 00C8                     efgtoa@w 00B1                   _LCD_Clear 1DB0  
                   _sprintf 1F11                     clrloop0 1001        end_of_initialization 07FC  
                   floorf@e 0048                     floorf@m 0044                     floorf@u 004A  
                   floorf@x 003A                     memcpy@d 0075                     memcpy@n 0072  
                   memcpy@s 0076                     fputc@fp 0072                     fputs@fp 0021  
        _read_prec_or_width 1008           __end_of_vfpfcnvrt 14F3                  efgtoa@mode 00A9  
                efgtoa@sign 00C1         ?_read_prec_or_width 0076                     psplit$0 11002F  
          vfpfcnvrt@convarg 005F                  ??_vfprintf 007E                     strcpy@d 0072  
               ___fladd@grs 007B               ___xxtofl@sign 0078                  ?_LCD_Clear 0070  
      ??_read_prec_or_width 0078                 ___fldiv@grs 0034                 ___fldiv@rem 002D  
               ___flmul@grs 0029                  LCD_Cmd@cmd 0072                  main@buffer 0190  
            __end_of___flge 1351              __end_of___fleq 2000                 vfpfcnvrt@ap 005C  
               vfpfcnvrt@cp 0064                 vfpfcnvrt@fp 0059              __end_of___wmul 1E99  
            __end_of_efgtoa 07EA              __end_of_floorf 1800              __end_of_memcpy 1E2D  
                floorf@F521 00DC              __end_of_strcpy 1DEE         start_initialization 07EA  
               __end_of_pad 0047           pnum$text6_split_1 002F       __end_of___fpclassifyf 0898  
      __end_of_send_trigger 1DB0                 vfprintf@fmt 0067                    ??___flge 003D  
                  ??___fleq 0078                    ??___wmul 0074                    ??_efgtoa 0055  
                 __Umul8_16 1EBF                    ??_floorf 003E                    ??_memcpy 0074  
                  ??_strcpy 0072                   ___fladd@a 0074                   ___fladd@b 0070  
                  ?_LCD_Cmd 0070                   ___fldiv@a 0020                   ___fldiv@b 0024  
                 ___flmul@a 0024                   ___flmul@b 0020                   ___flsub@a 0035  
                 ___flsub@b 0039                   ___latbits 0002               __pcstackBANK0 0020  
             __pcstackBANK1 00A0               __pcstackBANK3 0190                 ??_LCD_Clear 0073  
                  ?___fladd 0070                    ?___fldiv 0020                    ?___flneg 0070  
                  ?___flmul 0020                    ?___flsub 0035                    ?___fltol 0070  
                ?__Umul8_16 0070                   __pstrings 1800                    ?_sprintf 006A  
                 _read_echo 1F76                    _LCD_Char 1169                    _LCD_Init 1F3E  
            ___wmul@product 0074                   clear_ram0 1000                   _vfpfcnvrt 1405  
               __stringbase 180F           ___wmul@multiplier 0070                  vfpfcnvrt@c 0063  
                ?_read_echo 0070                   memcpy@tmp 0074                  vfprintf@ap 0068  
                vfprintf@fp 0065                 ??__Umul8_16 0072                  ?_vfpfcnvrt 0059  
        __end_of__stringtab 1810          ___fpclassifyf@F465 00E0                  sprintf@fmt 006B  
                  ___xxtofl 1351                _send_trigger 1DA4                    __ptext10 10CF  
                  __ptext11 0008                    __ptext20 0CBE                    __ptext12 1E0C  
                  __ptext21 1EBF                    __ptext13 1DC0                    __ptext30 1DEE  
                  __ptext22 12AD                    __ptext14 16F1                    __ptext31 1F3E  
                  __ptext23 1FB2                    __ptext15 080B                    __ptext32 1DB0  
                  __ptext24 0898                    __ptext16 105B                    __ptext33 1209  
                  __ptext25 1DA4                    __ptext17 1E50                    __ptext34 1D9C  
                  __ptext26 1F76                    __ptext18 0A62                    __ptext27 1351  
                  __ptext19 0800                    __ptext28 1E99                    __ptext29 1169  
                strcpy@dest 0070                   pnum$text6 0011                    efgtoa@fp 004E  
                  efgtoa@ne 00A0                    efgtoa@pp 00A8                    efgtoa@ou 00B3  
                  _vfprintf 1E2D                    main@time 01A4                  _LCD_String 1E99  
                  memcpy@d1 0070                    memcpy@s1 0071                 ??_read_echo 0072  
                 sprintf@ap 00CD                   strcpy@src 0071                   stringcode 180A  
         ??_LCD_PulseEnable 0070                 efgtoa@nmode 00AA                 ??_vfpfcnvrt 005D  
    __Umul8_16@multiplicand 0070                    sprintf@f 00CE                    sprintf@s 006A  
                  stringdir 180A                    stringtab 1800           LCD_Set_Cursor@col 0073  
         LCD_Set_Cursor@pos 0077           LCD_Set_Cursor@row 0074               ___fladd@signs 0078  
              ___fladd@aexp 0079                ___fladd@bexp 007A        __Umul8_16@multiplier 0078  
         __Umul8_16@product 0074  
