Microchip MPLAB XC8 Compiler V3.00

Linker command line:

-W-3 \
  --edf=C:\Program Files\Microchip\xc8\v3.00\pic\dat\20241204225717_en.msgs \
  -cn -h+dist/default/debug\Proy3.X.debug.sym \
  --cmf=dist/default/debug\Proy3.X.debug.cmf -z -Q16F887 \
  -oC:\Users\esaur\AppData\Local\Temp\xcAshto.\driver_tmp_3.o \
  --defsym=__MPLAB_BUILD=1 --fixupoverflow=error \
  -Mdist/default/debug/Proy3.X.debug.map \
  --md=C:\Users\esaur\AppData\Local\Temp\xcAshto.\driver_tmp_0.dat -E1 \
  -ver=XC8 Compiler -ACODE=00h-07FFhx4 -ASTRCODE=00h-01FFFh \
  -ASTRING=00h-0FFhx32 -ACONST=00h-0FFhx32 -AENTRY=00h-0FFhx32 \
  -ACOMMON=070h-07Fh -ABANK0=020h-06Fh -ABANK1=0A0h-0EFh \
  -ABANK2=0110h-016Fh -ABANK3=0190h-01EFh \
  -ARAM=020h-06Fh,0A0h-0EFh,0110h-016Fh,0190h-01EFh \
  -AABS1=020h-07Fh,0A0h-0EFh,0110h-016Fh,0190h-01EFh -ASFR0=00h-01Fh \
  -ASFR1=080h-09Fh -ASFR2=0100h-010Fh -ASFR3=0180h-018Fh \
  -ACONFIG=02007h-02008h -DCONFIG=2 -AIDLOC=02000h-02003h -DIDLOC=2 \
  -AEEDATA=00h-0FFh/02100h -peeprom_data=EEDATA -DEEDATA=2 -DCODE=2 \
  -DSTRCODE=2 -DSTRING=2 -DCONST=2 -DENTRY=2 \
  -preset_vec=00h,intentry,sivt,init,end_init -ppowerup=CODE -pcinit=CODE \
  -pfunctab=ENTRY -k \
  C:\Users\esaur\AppData\Local\Temp\xcAshto.\driver_tmp_17.o \
  dist/default/debug\Proy3.X.debug.o 

Object code version is 3.11

Machine type is 16F887



                Name                               Link     Load   Length Selector   Space Scale
C:\Users\esaur\AppData\Local\Temp\xcAshto.\driver_tmp_17.o
                end_init                              0        0        3        0       0
                config                             2007     2007        2        0       4
dist/default/debug\Proy3.X.debug.o
                cinit                               7EA      7EA       16      FD4       0
                text6_split_1                        47       47      7A3       8E       0
                config                             2007     2007        2        0       4
                text34                             1D9C     1D9C        8     3B38       0
                text33                             1209     1209       A4     2412       0
                text32                             1DB0     1DB0       10     3B60       0
                text31                             1F3E     1F3E       38     3E7C       0
                text30                             1DEE     1DEE       1E     3BDC       0
                text29                             1169     1169       A0     22D2       0
                text28                             1E99     1E99       26     3D32       0
                text27                             1351     1351       B4     26A2       0
                text26                             1F76     1F76       3C     3EEC       0
                text25                             1DA4     1DA4        C     3B48       0
                text24                              898      898      1CA     1130       0
                text23                             1FB2     1FB2       4E     3F64       0
                text22                             12AD     12AD       A4     255A       0
                text21                             1EBF     1EBF       27     3D7E       0
                text20                              CBE      CBE      342     197C       0
                text19                              800      800        B      FD4       0
                text18                              A62      A62      25C     14C4       0
                text17                             1E50     1E50       24     3CA0       0
                text16                             105B     105B       74     20B6       0
                text15                              80B      80B       8D     1016       0
                text14                             16F1     16F1      10F     2DE2       0
                text13                             1DC0     1DC0       15     3B80       0
                text12                             1E0C     1E0C       21     3C18       0
                text11                                8        8        1       10       0
                text10                             10CF     10CF       9A     219E       0
                text9                              1EE6     1EE6       2B     3DCC       0
                text8                                 9        9       3E       12       0
                text7                              1DD5     1DD5       19     3BAA       0
                text6                              15E6     15E6      10B     2BCC       0
                text5                              1E74     1E74       25     3CE8       0
                text4                              1008     1008       53     2010       0
                text3                              1405     1405       EE     280A       0
                text2                              1E2D     1E2D       23     3C5A       0
                text1                              1F11     1F11       2D     3E22       0
                maintext                           14F3     14F3       F3     29E6       0
                cstackBANK0                          20       20       50       20       1
                cstackCOMMON                         70       70        E       70       1
                cstackBANK1                          A0       A0       3C       A0       1
                cstackBANK3                         190      190       16      190       1
                clrtext                            1000     1000        8     197C       0
                bssBANK2                            110      110       50      110       1
                bssBANK1                             DC       DC        D       A0       1
                strings                            1800     1800       4C     3000       0

TOTAL           Name                               Link     Load   Length     Space
        CLASS   CODE           
                end_init                              0        0        3         0
                cinit                               7EA      7EA       16         0
                text6_split_1                        47       47      7A3         0
                text34                             1D9C     1D9C        8         0
                text33                             1209     1209       A4         0
                text32                             1DB0     1DB0       10         0
                text31                             1F3E     1F3E       38         0
                text30                             1DEE     1DEE       1E         0
                text29                             1169     1169       A0         0
                text28                             1E99     1E99       26         0
                text27                             1351     1351       B4         0
                text26                             1F76     1F76       3C         0
                text25                             1DA4     1DA4        C         0
                text24                              898      898      1CA         0
                text23                             1FB2     1FB2       4E         0
                text22                             12AD     12AD       A4         0
                text21                             1EBF     1EBF       27         0
                text20                              CBE      CBE      342         0
                text19                              800      800        B         0
                text18                              A62      A62      25C         0
                text17                             1E50     1E50       24         0
                text16                             105B     105B       74         0
                text15                              80B      80B       8D         0
                text14                             16F1     16F1      10F         0
                text13                             1DC0     1DC0       15         0
                text12                             1E0C     1E0C       21         0
                text11                                8        8        1         0
                text10                             10CF     10CF       9A         0
                text9                              1EE6     1EE6       2B         0
                text8                                 9        9       3E         0
                text7                              1DD5     1DD5       19         0
                text6                              15E6     15E6      10B         0
                text5                              1E74     1E74       25         0
                text4                              1008     1008       53         0
                text3                              1405     1405       EE         0
                text2                              1E2D     1E2D       23         0
                text1                              1F11     1F11       2D         0
                maintext                           14F3     14F3       F3         0
                clrtext                            1000     1000        8         0

        CLASS   STRCODE        

        CLASS   STRING         
                strings                            1800     1800       4C         0

        CLASS   CONST          

        CLASS   ENTRY          

        CLASS   COMMON         
                cstackCOMMON                         70       70        E         1

        CLASS   BANK0          
                cstackBANK0                          20       20       50         1

        CLASS   BANK1          
                cstackBANK1                          A0       A0       3C         1
                bssBANK1                             DC       DC        D         1

        CLASS   BANK2          
                bssBANK2                            110      110       50         1

        CLASS   BANK3          
                cstackBANK3                         190      190       16         1

        CLASS   RAM            

        CLASS   ABS1           
                abs_s1                               7E       7E        2         1

        CLASS   SFR0           

        CLASS   SFR1           

        CLASS   SFR2           

        CLASS   SFR3           

        CLASS   CONFIG         
                config                             2007     2007        2         4

        CLASS   IDLOC          

        CLASS   EEDATA         

        CLASS   HEAP           

        CLASS   STACK          



SEGMENTS        Name                           Load    Length   Top    Selector   Space  Class     Delta

                reset_vec                      000000  000003  000003         0       0  CODE        2
                text11                         000008  000001  000009        10       0  CODE        2
                text8                          000009  00003E  000047        12       0  CODE        2
                cstackBANK0                    000020  000050  000070        20       1  BANK0       1
                cstackCOMMON                   000070  00000E  00007E        70       1  COMMON      1
                text6_split_1                  000047  0007A3  0007EA        8E       0  CODE        2
                cstackBANK1                    0000A0  000049  0000E9        A0       1  BANK1       1
                bssBANK2                       000110  000050  000160       110       1  BANK2       1
                cstackBANK3                    000190  000016  0001A6       190       1  BANK3       1
                cinit                          0007EA  000021  00080B       FD4       0  CODE        2
                text15                         00080B  00008D  000898      1016       0  CODE        2
                text24                         000898  0001CA  000A62      1130       0  CODE        2
                text18                         000A62  00025C  000CBE      14C4       0  CODE        2
                text20                         000CBE  00034A  001008      197C       0  CODE        2
                text4                          001008  000053  00105B      2010       0  CODE        2
                text16                         00105B  000074  0010CF      20B6       0  CODE        2
                text10                         0010CF  00009A  001169      219E       0  CODE        2
                text29                         001169  0000A0  001209      22D2       0  CODE        2
                text33                         001209  0000A4  0012AD      2412       0  CODE        2
                text22                         0012AD  0000A4  001351      255A       0  CODE        2
                text27                         001351  0000B4  001405      26A2       0  CODE        2
                text3                          001405  0000EE  0014F3      280A       0  CODE        2
                maintext                       0014F3  0000F3  0015E6      29E6       0  CODE        2
                text6                          0015E6  00010B  0016F1      2BCC       0  CODE        2
                text14                         0016F1  00010F  001800      2DE2       0  CODE        2
                strings                        001800  00004C  00184C      3000       0  STRING      2
                text34                         001D9C  000008  001DA4      3B38       0  CODE        2
                text25                         001DA4  00000C  001DB0      3B48       0  CODE        2
                text32                         001DB0  000010  001DC0      3B60       0  CODE        2
                text13                         001DC0  000015  001DD5      3B80       0  CODE        2
                text7                          001DD5  000019  001DEE      3BAA       0  CODE        2
                text30                         001DEE  00001E  001E0C      3BDC       0  CODE        2
                text12                         001E0C  000021  001E2D      3C18       0  CODE        2
                text2                          001E2D  000023  001E50      3C5A       0  CODE        2
                text17                         001E50  000024  001E74      3CA0       0  CODE        2
                text5                          001E74  000025  001E99      3CE8       0  CODE        2
                text28                         001E99  000026  001EBF      3D32       0  CODE        2
                text21                         001EBF  000027  001EE6      3D7E       0  CODE        2
                text9                          001EE6  00002B  001F11      3DCC       0  CODE        2
                text1                          001F11  00002D  001F3E      3E22       0  CODE        2
                text31                         001F3E  000038  001F76      3E7C       0  CODE        2
                text26                         001F76  00003C  001FB2      3EEC       0  CODE        2
                text23                         001FB2  00004E  002000      3F64       0  CODE        2


UNUSED ADDRESS RANGES

        Name                Unused          Largest block    Delta
        BANK1            0000E9-0000EF                7           1
        BANK2            000160-00016F               10           1
        BANK3            0001A6-0001EF               4A           1
        CODE             000003-000007                5           2
                         00184C-001D9B              550
        CONST            000003-000007                5           2
                         00184C-001D9B              100
        EEDATA           002100-0021FF              100           2
        ENTRY            000003-000007                5           2
                         00184C-001D9B              100
        IDLOC            002000-002003                4           2
        RAM              0000E9-0000EF                7           1
                         000160-00016F               10
                         0001A6-0001EF               4A
        SFR0             000000-00001F               20           1
        SFR1             000080-00009F               20           1
        SFR2             000100-00010F               10           1
        SFR3             000180-00018F               10           1
        STRCODE          000003-000007                5           2
                         00184C-001D9B              550
        STRING           000003-000007                5           2
                         00184C-001D9B              100

                                  Symbol Table

?__Umul8_16                 cstackCOMMON 000070
?___fladd                   cstackCOMMON 000070
?___fldiv                   cstackBANK0  000020
?___flmul                   cstackBANK0  000020
?___flneg                   cstackCOMMON 000070
?___flsub                   cstackBANK0  000035
?___fltol                   cstackCOMMON 000070
?___fpclassifyf             cstackCOMMON 000070
?___wmul                    cstackCOMMON 000070
?___xxtofl                  cstackCOMMON 000070
?_floorf                    cstackBANK0  00003A
?_labs                      cstackCOMMON 000070
?_read_echo                 cstackCOMMON 000070
?_read_prec_or_width        cstackCOMMON 000076
?_sprintf                   cstackBANK0  00006A
?_vfprintf                  cstackBANK0  000065
LCD_Char@data               cstackCOMMON 000072
LCD_Cmd@cmd                 cstackCOMMON 000072
LCD_Set_Cursor@col          cstackCOMMON 000073
LCD_Set_Cursor@pos          cstackCOMMON 000077
LCD_Set_Cursor@row          cstackCOMMON 000074
LCD_String@str              cstackCOMMON 000073
_LCD_Char                   text29       001169
_LCD_Clear                  text32       001DB0
_LCD_Cmd                    text33       001209
_LCD_Init                   text31       001F3E
_LCD_PulseEnable            text34       001D9C
_LCD_Set_Cursor             text30       001DEE
_LCD_Set_Cursor$64          cstackCOMMON 000075
_LCD_String                 text28       001E99
_OSCCON                     (abs)        00008F
_RC0                        (abs)        000038
_RC1                        (abs)        000039
_RD0                        (abs)        000040
_RD1                        (abs)        000041
_RD2                        (abs)        000042
_RD3                        (abs)        000043
_RD4                        (abs)        000044
_RD5                        (abs)        000045
_T1CON                      (abs)        000010
_TMR1                       (abs)        00000E
_TMR1ON                     (abs)        000080
_TRISC0                     (abs)        000438
_TRISC1                     (abs)        000439
_TRISD                      (abs)        000088
__H__absolute__             __absolute__ 000000
__Habs1                     abs1         000000
__Hbank0                    bank0        000000
__Hbank1                    bank1        000000
__Hbank2                    bank2        000000
__Hbank3                    bank3        000000
__HbssBANK1                 bssBANK1     000000
__HbssBANK2                 bssBANK2     000000
__Hcinit                    cinit        000800
__Hclrtext                  clrtext      000000
__Hcode                     code         000000
__Hcommon                   common       000000
__Hconfig                   config       002009
__HcstackBANK0              cstackBANK0  000000
__HcstackBANK1              cstackBANK1  000000
__HcstackBANK3              cstackBANK3  000000
__HcstackCOMMON             cstackCOMMON 000000
__Heeprom_data              eeprom_data  000000
__Hend_init                 end_init     000003
__Hfunctab                  functab      000000
__Hheap                     heap         000000
__Hinit                     init         000000
__Hintentry                 intentry     000000
__Hmaintext                 maintext     000000
__Hpowerup                  powerup      000000
__Hram                      ram          000000
__Hreset_vec                reset_vec    000000
__Hsfr0                     sfr0         000000
__Hsfr1                     sfr1         000000
__Hsfr2                     sfr2         000000
__Hsfr3                     sfr3         000000
__Hsivt                     sivt         000000
__Hspace_0                  (abs)        002000
__Hspace_1                  (abs)        0001A6
__Hspace_2                  (abs)        000000
__Hspace_3                  (abs)        000000
__Hspace_4                  (abs)        004010
__Hstack                    stack        000000
__Hstrings                  strings      000000
__Htext                     text         000000
__L__absolute__             __absolute__ 000000
__Labs1                     abs1         000000
__Lbank0                    bank0        000000
__Lbank1                    bank1        000000
__Lbank2                    bank2        000000
__Lbank3                    bank3        000000
__LbssBANK1                 bssBANK1     000000
__LbssBANK2                 bssBANK2     000000
__Lcinit                    cinit        0007EA
__Lclrtext                  clrtext      000000
__Lcode                     code         000000
__Lcommon                   common       000000
__Lconfig                   config       000000
__LcstackBANK0              cstackBANK0  000000
__LcstackBANK1              cstackBANK1  000000
__LcstackBANK3              cstackBANK3  000000
__LcstackCOMMON             cstackCOMMON 000000
__Leeprom_data              eeprom_data  000000
__Lend_init                 end_init     000000
__Lfunctab                  functab      000000
__Lheap                     heap         000000
__Linit                     init         000000
__Lintentry                 intentry     000000
__Lmaintext                 maintext     000000
__Lpowerup                  powerup      000000
__Lram                      ram          000000
__Lreset_vec                reset_vec    000000
__Lsfr0                     sfr0         000000
__Lsfr1                     sfr1         000000
__Lsfr2                     sfr2         000000
__Lsfr3                     sfr3         000000
__Lsivt                     sivt         000000
__Lspace_0                  (abs)        000000
__Lspace_1                  (abs)        000000
__Lspace_2                  (abs)        000000
__Lspace_3                  (abs)        000000
__Lspace_4                  (abs)        000000
__Lstack                    stack        000000
__Lstrings                  strings      000000
__Ltext                     text         000000
__S0                        (abs)        002000
__S1                        (abs)        0001A6
__S3                        (abs)        000000
__Umul8_16                  text21       001EBF
__Umul8_16@multiplicand     cstackCOMMON 000070
__Umul8_16@multiplier       cstackCOMMON 000078
__Umul8_16@product          cstackCOMMON 000074
__Umul8_16@word_mpld        cstackCOMMON 000076
___fladd                    text18       000A62
___fladd@a                  cstackCOMMON 000074
___fladd@aexp               cstackCOMMON 000079
___fladd@b                  cstackCOMMON 000070
___fladd@bexp               cstackCOMMON 00007A
___fladd@grs                cstackCOMMON 00007B
___fladd@signs              cstackCOMMON 000078
___fldiv                    text24       000898
___fldiv@a                  cstackBANK0  000020
___fldiv@aexp               cstackBANK0  000039
___fldiv@b                  cstackBANK0  000024
___fldiv@bexp               cstackBANK0  000038
___fldiv@grs                cstackBANK0  000034
___fldiv@new_exp            cstackBANK0  000032
___fldiv@rem                cstackBANK0  00002D
___fldiv@sign               cstackBANK0  000031
___fleq                     text23       001FB2
___fleq@ff1                 cstackCOMMON 000070
___fleq@ff2                 cstackCOMMON 000074
___flge                     text22       0012AD
___flge@ff1                 cstackBANK0  000035
___flge@ff2                 cstackBANK0  000039
___flmul                    text20       000CBE
___flmul@a                  cstackBANK0  000024
___flmul@aexp               cstackBANK0  00002D
___flmul@b                  cstackBANK0  000020
___flmul@bexp               cstackBANK0  00002E
___flmul@grs                cstackBANK0  000029
___flmul@prod               cstackBANK0  00002F
___flmul@sign               cstackBANK0  000028
___flmul@temp               cstackBANK0  000033
___flneg                    text19       000800
___flneg@f1                 cstackCOMMON 000070
___flsub                    text17       001E50
___flsub@a                  cstackBANK0  000035
___flsub@b                  cstackBANK0  000039
___fltol                    text16       00105B
___fltol@exp1               cstackCOMMON 000079
___fltol@f1                 cstackCOMMON 000070
___fltol@sign1              cstackCOMMON 000078
___fpclassifyf              text15       00080B
___fpclassifyf@F465         bssBANK1     0000E0
___fpclassifyf@e            cstackBANK0  000020
___fpclassifyf@u            cstackBANK0  000022
___fpclassifyf@x            cstackCOMMON 000070
___heap_hi                  (abs)        000000
___heap_lo                  (abs)        000000
___int_sp                   stack        000000
___int_stack_hi             stack        000000
___int_stack_lo             stack        000000
___latbits                  (abs)        000002
___sp                       stack        000000
___stack_hi                 stack        000000
___stack_lo                 stack        000000
___stackhi                  (abs)        000000
___stacklo                  (abs)        000000
___wmul                     text5        001E74
___wmul@multiplicand        cstackCOMMON 000072
___wmul@multiplier          cstackCOMMON 000070
___wmul@product             cstackCOMMON 000074
___xxtofl                   text27       001351
___xxtofl@arg               cstackCOMMON 00007A
___xxtofl@exp               cstackCOMMON 000079
___xxtofl@sign              cstackCOMMON 000078
___xxtofl@val               cstackCOMMON 000070
__end_of_LCD_Char           text29       001209
__end_of_LCD_Clear          text32       001DC0
__end_of_LCD_Cmd            text33       0012AD
__end_of_LCD_Init           text31       001F76
__end_of_LCD_PulseEnable    text34       001DA4
__end_of_LCD_Set_Cursor     text30       001E0C
__end_of_LCD_String         text28       001EBF
__end_of__Umul8_16          text21       001EE6
__end_of___fladd            text18       000CBE
__end_of___fldiv            text24       000A62
__end_of___fleq             text23       002000
__end_of___flge             text22       001351
__end_of___flmul            text20       001000
__end_of___flneg            text19       00080B
__end_of___flsub            text17       001E74
__end_of___fltol            text16       0010CF
__end_of___fpclassifyf      text15       000898
__end_of___wmul             text5        001E99
__end_of___xxtofl           text27       001405
__end_of__initialization    cinit        0007FC
__end_of__stringtab         strings      001810
__end_of_efgtoa             text6_split_1 0007EA
__end_of_floorf             text14       001800
__end_of_fputc              text10       001169
__end_of_fputs              text9        001F11
__end_of_labs               text13       001DD5
__end_of_main               maintext     0015E6
__end_of_memcpy             text12       001E2D
__end_of_pad                text8        000047
__end_of_putch              text11       000009
__end_of_read_echo          text26       001FB2
__end_of_read_prec_or_width text4        00105B
__end_of_send_trigger       text25       001DB0
__end_of_sprintf            text1        001F3E
__end_of_strcpy             text7        001DEE
__end_of_vfpfcnvrt          text3        0014F3
__end_of_vfprintf           text2        001E50
__initialization            cinit        0007EA
__pbssBANK1                 bssBANK1     0000DC
__pbssBANK2                 bssBANK2     000110
__pcstackBANK0              cstackBANK0  000020
__pcstackBANK1              cstackBANK1  0000A0
__pcstackBANK3              cstackBANK3  000190
__pcstackCOMMON             cstackCOMMON 000070
__pmaintext                 maintext     0014F3
__pstrings                  strings      001800
__ptext1                    text1        001F11
__ptext10                   text10       0010CF
__ptext11                   text11       000008
__ptext12                   text12       001E0C
__ptext13                   text13       001DC0
__ptext14                   text14       0016F1
__ptext15                   text15       00080B
__ptext16                   text16       00105B
__ptext17                   text17       001E50
__ptext18                   text18       000A62
__ptext19                   text19       000800
__ptext2                    text2        001E2D
__ptext20                   text20       000CBE
__ptext21                   text21       001EBF
__ptext22                   text22       0012AD
__ptext23                   text23       001FB2
__ptext24                   text24       000898
__ptext25                   text25       001DA4
__ptext26                   text26       001F76
__ptext27                   text27       001351
__ptext28                   text28       001E99
__ptext29                   text29       001169
__ptext3                    text3        001405
__ptext30                   text30       001DEE
__ptext31                   text31       001F3E
__ptext32                   text32       001DB0
__ptext33                   text33       001209
__ptext34                   text34       001D9C
__ptext4                    text4        001008
__ptext5                    text5        001E74
__ptext6                    text6        0015E6
__ptext7                    text7        001DD5
__ptext8                    text8        000009
__ptext9                    text9        001EE6
__stringbase                strings      00180F
__stringtab                 strings      001800
_dbuf                       bssBANK2     000110
_efgtoa                     text6        0015E6
_efgtoa$653                 cstackBANK1  0000A6
_flags                      bssBANK1     0000E8
_floorf                     text14       0016F1
_fputc                      text10       0010CF
_fputs                      text9        001EE6
_labs                       text13       001DC0
_main                       maintext     0014F3
_memcpy                     text12       001E0C
_pad                        text8        000009
_prec                       bssBANK1     0000E6
_putch                      text11       000008
_read_echo                  text26       001F76
_read_prec_or_width         text4        001008
_send_trigger               text25       001DA4
_sprintf                    text1        001F11
_strcpy                     text7        001DD5
_vfpfcnvrt                  text3        001405
_vfprintf                   text2        001E2D
_width                      bssBANK1     0000E4
btemp                       (abs)        00007E
clear_ram0                  clrtext      001000
efgtoa@c                    cstackBANK0  000054
efgtoa@d                    cstackBANK1  0000AB
efgtoa@e                    cstackBANK1  0000AF
efgtoa@f                    cstackBANK0  000050
efgtoa@fp                   cstackBANK0  00004E
efgtoa@g                    cstackBANK1  0000C4
efgtoa@h                    cstackBANK1  0000B9
efgtoa@i                    cstackBANK1  0000B7
efgtoa@l                    cstackBANK1  0000BD
efgtoa@m                    cstackBANK1  0000AD
efgtoa@mode                 cstackBANK1  0000A9
efgtoa@n                    cstackBANK1  0000C2
efgtoa@ne                   cstackBANK1  0000A0
efgtoa@nmode                cstackBANK1  0000AA
efgtoa@ou                   cstackBANK1  0000B3
efgtoa@p                    cstackBANK1  0000A2
efgtoa@pp                   cstackBANK1  0000A8
efgtoa@sign                 cstackBANK1  0000C1
efgtoa@t                    cstackBANK1  0000A4
efgtoa@u                    cstackBANK1  0000C8
efgtoa@w                    cstackBANK1  0000B1
end_of_initialization       cinit        0007FC
floorf@F521                 bssBANK1     0000DC
floorf@e                    cstackBANK0  000048
floorf@m                    cstackBANK0  000044
floorf@u                    cstackBANK0  00004A
floorf@x                    cstackBANK0  00003A
fputc@c                     cstackCOMMON 000070
fputc@fp                    cstackCOMMON 000072
fputs@c                     cstackBANK0  000025
fputs@fp                    cstackBANK0  000021
fputs@i                     cstackBANK0  000026
fputs@s                     cstackBANK0  000020
intlevel0                   functab      000000
intlevel1                   functab      000000
intlevel2                   functab      000000
intlevel3                   functab      000000
intlevel4                   functab      000000
intlevel5                   functab      000000
labs@a                      cstackCOMMON 000070
main@buffer                 cstackBANK3  000190
main@distance               cstackBANK3  0001A0
main@time                   cstackBANK3  0001A4
memcpy@d                    cstackCOMMON 000075
memcpy@d1                   cstackCOMMON 000070
memcpy@n                    cstackCOMMON 000072
memcpy@s                    cstackCOMMON 000076
memcpy@s1                   cstackCOMMON 000071
memcpy@tmp                  cstackCOMMON 000074
pad@buf                     cstackBANK0  00002A
pad@fp                      cstackBANK0  000028
pad@i                       cstackBANK0  00002D
pad@p                       cstackBANK0  00002B
pnum$text6                  (abs)        000011
pnum$text6_split_1          (abs)        00002F
psplit$0                    (abs)        11002F
read_echo@timeout           cstackCOMMON 000074
read_prec_or_width@ap       cstackCOMMON 000077
read_prec_or_width@c        cstackCOMMON 000078
read_prec_or_width@fmt      cstackCOMMON 000076
read_prec_or_width@n        cstackCOMMON 000079
reset_vec                   reset_vec    000000
sprintf@ap                  cstackBANK1  0000CD
sprintf@f                   cstackBANK1  0000CE
sprintf@fmt                 cstackBANK0  00006B
sprintf@s                   cstackBANK0  00006A
start                       init         000000
start_initialization        cinit        0007EA
strcpy@d                    cstackCOMMON 000072
strcpy@dest                 cstackCOMMON 000070
strcpy@src                  cstackCOMMON 000071
vfpfcnvrt@ap                cstackBANK0  00005C
vfpfcnvrt@c                 cstackBANK0  000063
vfpfcnvrt@convarg           cstackBANK0  00005F
vfpfcnvrt@cp                cstackBANK0  000064
vfpfcnvrt@fmt               cstackBANK0  00005B
vfpfcnvrt@fp                cstackBANK0  000059
vfprintf@ap                 cstackBANK0  000068
vfprintf@cfmt               cstackBANK0  000069
vfprintf@fmt                cstackBANK0  000067
vfprintf@fp                 cstackBANK0  000065
wtemp0                      (abs)        00007E


MODULE INFORMATION

Module		Function		Class		Link	Load	Size
C:\Program Files\Microchip\xc8\v3.00\pic\sources\c99\common\flge.c
		___flge        		CODE           	12AD	0000	164

C:\Program Files\Microchip\xc8\v3.00\pic\sources\c99\common\flge.c estimated size: 164

C:\Program Files\Microchip\xc8\v3.00\pic\sources\c99\common\nf_fputc.c
		_fputc         		CODE           	10CF	0000	154

C:\Program Files\Microchip\xc8\v3.00\pic\sources\c99\common\nf_fputc.c estimated size: 154

C:\Program Files\Microchip\xc8\v3.00\pic\sources\c99\common\memcpy.c
		_memcpy        		CODE           	1E0C	0000	33

C:\Program Files\Microchip\xc8\v3.00\pic\sources\c99\common\memcpy.c estimated size: 33

C:\Program Files\Microchip\xc8\v3.00\pic\sources\c99\common\flneg.c
		___flneg       		CODE           	0800	0000	11

C:\Program Files\Microchip\xc8\v3.00\pic\sources\c99\common\flneg.c estimated size: 11

C:\Program Files\Microchip\xc8\v3.00\pic\sources\c99\common\__fpclassifyf.c
		___fpclassifyf 		CODE           	080B	0000	141

C:\Program Files\Microchip\xc8\v3.00\pic\sources\c99\common\__fpclassifyf.c estimated size: 141

C:\Program Files\Microchip\xc8\v3.00\pic\sources\c99\common\Umul16.c
		___wmul        		CODE           	1E74	0000	37

C:\Program Files\Microchip\xc8\v3.00\pic\sources\c99\common\Umul16.c estimated size: 37

C:\Program Files\Microchip\xc8\v3.00\pic\sources\c99\common\nf_sprintf.c
		_sprintf       		CODE           	1F11	0000	45

C:\Program Files\Microchip\xc8\v3.00\pic\sources\c99\common\nf_sprintf.c estimated size: 45

Proy3.c
		_LCD_String    		CODE           	1E99	0000	38
		_LCD_Init      		CODE           	1F3E	0000	56
		_LCD_Cmd       		CODE           	1209	0000	164
		_LCD_PulseEnable		CODE           	1D9C	0000	8
		_main          		CODE           	14F3	0000	243
		_read_echo     		CODE           	1F76	0000	60
		_LCD_Char      		CODE           	1169	0000	160
		_LCD_Set_Cursor		CODE           	1DEE	0000	30
		_send_trigger  		CODE           	1DA4	0000	12
		_LCD_Clear     		CODE           	1DB0	0000	16

Proy3.c estimated size: 787

C:\Program Files\Microchip\xc8\v3.00\pic\sources\c99\common\floorf.c
		_floorf        		CODE           	16F1	0000	271

C:\Program Files\Microchip\xc8\v3.00\pic\sources\c99\common\floorf.c estimated size: 271

C:\Program Files\Microchip\xc8\v3.00\pic\sources\c99\common\putch.c
		_putch         		CODE           	0008	0000	1

C:\Program Files\Microchip\xc8\v3.00\pic\sources\c99\common\putch.c estimated size: 1

C:\Program Files\Microchip\xc8\v3.00\pic\sources\c99\common\fleq.c
		___fleq        		CODE           	1FB2	0000	78

C:\Program Files\Microchip\xc8\v3.00\pic\sources\c99\common\fleq.c estimated size: 78

C:\Program Files\Microchip\xc8\v3.00\pic\sources\c99\common\sprcmul.c
		___flmul       		CODE           	0CBE	0000	834

C:\Program Files\Microchip\xc8\v3.00\pic\sources\c99\common\sprcmul.c estimated size: 834

C:\Program Files\Microchip\xc8\v3.00\pic\sources\c99\common\sprcdiv.c
		___fldiv       		CODE           	0898	0000	458

C:\Program Files\Microchip\xc8\v3.00\pic\sources\c99\common\sprcdiv.c estimated size: 458

shared
		__stringtab    		STRING         	1800	0000	16
		__initialization		CODE           	07EA	0000	18

shared estimated size: 34

C:\Program Files\Microchip\xc8\v3.00\pic\sources\c99\common\xxtofl.c
		___xxtofl      		CODE           	1351	0000	180

C:\Program Files\Microchip\xc8\v3.00\pic\sources\c99\common\xxtofl.c estimated size: 180

C:\Program Files\Microchip\xc8\v3.00\pic\sources\c99\common\nf_fputs.c
		_fputs         		CODE           	1EE6	0000	43

C:\Program Files\Microchip\xc8\v3.00\pic\sources\c99\common\nf_fputs.c estimated size: 43

C:\Program Files\Microchip\xc8\v3.00\pic\sources\c99\common\strcpy.c
		_strcpy        		CODE           	1DD5	0000	25

C:\Program Files\Microchip\xc8\v3.00\pic\sources\c99\common\strcpy.c estimated size: 25

C:\Program Files\Microchip\xc8\v3.00\pic\sources\c99\common\fltol.c
		___fltol       		CODE           	105B	0000	116

C:\Program Files\Microchip\xc8\v3.00\pic\sources\c99\common\fltol.c estimated size: 116

C:\Program Files\Microchip\xc8\v3.00\pic\sources\c99\common\labs.c
		_labs          		CODE           	1DC0	0000	21

C:\Program Files\Microchip\xc8\v3.00\pic\sources\c99\common\labs.c estimated size: 21

C:\Program Files\Microchip\xc8\v3.00\pic\sources\c99\common\doprnt.c
		_read_prec_or_width		CODE           	1008	0000	83
		_vfpfcnvrt     		CODE           	1405	0000	238
		_efgtoa        		CODE           	15E6	0000	2222
		_pad           		CODE           	0009	0000	62
		_vfprintf      		CODE           	1E2D	0000	35

C:\Program Files\Microchip\xc8\v3.00\pic\sources\c99\common\doprnt.c estimated size: 2640

C:\Program Files\Microchip\xc8\v3.00\pic\sources\c99\common\sprcadd.c
		___flsub       		CODE           	1E50	0000	36
		___fladd       		CODE           	0A62	0000	604

C:\Program Files\Microchip\xc8\v3.00\pic\sources\c99\common\sprcadd.c estimated size: 640

C:\Program Files\Microchip\xc8\v3.00\pic\sources\c99\common\Umul8_16.c
		__Umul8_16     		CODE           	1EBF	0000	39

C:\Program Files\Microchip\xc8\v3.00\pic\sources\c99\common\Umul8_16.c estimated size: 39

